
/home/gerard/Hunter-Adams-RP2040-Demos/build/VGA_Graphics/VGA_Graphics_Primitives/VGA_Graphics_Primitives.elf:     file format elf32-littlearm

Sections:
Idx Name          Size      VMA       LMA       File off  Algn
  0 .boot2        00000100  10000000  10000000  00001000  2**0
                  CONTENTS, ALLOC, LOAD, READONLY, CODE
  1 .text         00005988  10000100  10000100  00001100  2**3
                  CONTENTS, ALLOC, LOAD, READONLY, CODE
  2 .rodata       0000092c  10005a88  10005a88  00006a88  2**3
                  CONTENTS, ALLOC, LOAD, READONLY, DATA
  3 .binary_info  00000028  100063b4  100063b4  000073b4  2**2
                  CONTENTS, ALLOC, LOAD, READONLY, DATA
  4 .ram_vector_table 000000c0  20000000  20000000  00009000  2**2
                  ALLOC
  5 .uninitialized_data 00000000  200000c0  200000c0  00008670  2**0
                  CONTENTS
  6 .data         000005b0  200000c0  100063dc  000080c0  2**4
                  CONTENTS, ALLOC, LOAD, READONLY, CODE
  7 .tdata        00000000  20000670  20000670  00008670  2**0
                  CONTENTS, ALLOC, LOAD, DATA, THREAD_LOCAL
  8 .tbss         00000000  20000670  20000670  00000000  2**0
                  ALLOC, THREAD_LOCAL
  9 .bss          00025c40  20000670  1000698c  00008670  2**3
                  ALLOC
 10 .heap         00000800  200262b0  200262b0  00008670  2**2
                  CONTENTS, READONLY
 11 .scratch_x    00000000  20040000  20040000  00008e70  2**0
                  CONTENTS
 12 .scratch_y    00000000  20041000  20041000  00008e70  2**0
                  CONTENTS
 13 .stack_dummy  00000800  20041000  20041000  00008e80  2**5
                  CONTENTS, READONLY
 14 .ARM.attributes 00000028  00000000  00000000  00009680  2**0
                  CONTENTS, READONLY
 15 .comment      00000026  00000000  00000000  000096a8  2**0
                  CONTENTS, READONLY
 16 .debug_info   00026556  00000000  00000000  000096ce  2**0
                  CONTENTS, READONLY, DEBUGGING, OCTETS
 17 .debug_abbrev 00006494  00000000  00000000  0002fc24  2**0
                  CONTENTS, READONLY, DEBUGGING, OCTETS
 18 .debug_loclists 00018f31  00000000  00000000  000360b8  2**0
                  CONTENTS, READONLY, DEBUGGING, OCTETS
 19 .debug_aranges 000011e8  00000000  00000000  0004eff0  2**3
                  CONTENTS, READONLY, DEBUGGING, OCTETS
 20 .debug_rnglists 000041f2  00000000  00000000  000501d8  2**0
                  CONTENTS, READONLY, DEBUGGING, OCTETS
 21 .debug_line   0001b45f  00000000  00000000  000543ca  2**0
                  CONTENTS, READONLY, DEBUGGING, OCTETS
 22 .debug_str    00006319  00000000  00000000  0006f829  2**0
                  CONTENTS, READONLY, DEBUGGING, OCTETS
 23 .debug_frame  00002404  00000000  00000000  00075b44  2**2
                  CONTENTS, READONLY, DEBUGGING, OCTETS
 24 .debug_line_str 00000319  00000000  00000000  00077f48  2**0
                  CONTENTS, READONLY, DEBUGGING, OCTETS

/home/gerard/Hunter-Adams-RP2040-Demos/build/VGA_Graphics/VGA_Graphics_Primitives/VGA_Graphics_Primitives.elf:     file format elf32-littlearm


Disassembly of section .boot2:

10000000 <__boot2_start__>:
10000000:	4b32b500 	.word	0x4b32b500
10000004:	60582021 	.word	0x60582021
10000008:	21026898 	.word	0x21026898
1000000c:	60984388 	.word	0x60984388
10000010:	611860d8 	.word	0x611860d8
10000014:	4b2e6158 	.word	0x4b2e6158
10000018:	60992100 	.word	0x60992100
1000001c:	61592102 	.word	0x61592102
10000020:	22f02101 	.word	0x22f02101
10000024:	492b5099 	.word	0x492b5099
10000028:	21016019 	.word	0x21016019
1000002c:	20356099 	.word	0x20356099
10000030:	f844f000 	.word	0xf844f000
10000034:	42902202 	.word	0x42902202
10000038:	2106d014 	.word	0x2106d014
1000003c:	f0006619 	.word	0xf0006619
10000040:	6e19f834 	.word	0x6e19f834
10000044:	66192101 	.word	0x66192101
10000048:	66182000 	.word	0x66182000
1000004c:	f000661a 	.word	0xf000661a
10000050:	6e19f82c 	.word	0x6e19f82c
10000054:	6e196e19 	.word	0x6e196e19
10000058:	f0002005 	.word	0xf0002005
1000005c:	2101f82f 	.word	0x2101f82f
10000060:	d1f94208 	.word	0xd1f94208
10000064:	60992100 	.word	0x60992100
10000068:	6019491b 	.word	0x6019491b
1000006c:	60592100 	.word	0x60592100
10000070:	481b491a 	.word	0x481b491a
10000074:	21016001 	.word	0x21016001
10000078:	21eb6099 	.word	0x21eb6099
1000007c:	21a06619 	.word	0x21a06619
10000080:	f0006619 	.word	0xf0006619
10000084:	2100f812 	.word	0x2100f812
10000088:	49166099 	.word	0x49166099
1000008c:	60014814 	.word	0x60014814
10000090:	60992101 	.word	0x60992101
10000094:	2800bc01 	.word	0x2800bc01
10000098:	4700d000 	.word	0x4700d000
1000009c:	49134812 	.word	0x49134812
100000a0:	c8036008 	.word	0xc8036008
100000a4:	8808f380 	.word	0x8808f380
100000a8:	b5034708 	.word	0xb5034708
100000ac:	20046a99 	.word	0x20046a99
100000b0:	d0fb4201 	.word	0xd0fb4201
100000b4:	42012001 	.word	0x42012001
100000b8:	bd03d1f8 	.word	0xbd03d1f8
100000bc:	6618b502 	.word	0x6618b502
100000c0:	f7ff6618 	.word	0xf7ff6618
100000c4:	6e18fff2 	.word	0x6e18fff2
100000c8:	bd026e18 	.word	0xbd026e18
100000cc:	40020000 	.word	0x40020000
100000d0:	18000000 	.word	0x18000000
100000d4:	00070000 	.word	0x00070000
100000d8:	005f0300 	.word	0x005f0300
100000dc:	00002221 	.word	0x00002221
100000e0:	180000f4 	.word	0x180000f4
100000e4:	a0002022 	.word	0xa0002022
100000e8:	10000100 	.word	0x10000100
100000ec:	e000ed08 	.word	0xe000ed08
	...
100000fc:	7a4eb274 	.word	0x7a4eb274

Disassembly of section .text:

10000100 <__VECTOR_TABLE>:
10000100:	20042000 	.word	0x20042000
10000104:	100001f7 	.word	0x100001f7
10000108:	100001c3 	.word	0x100001c3
1000010c:	100001c5 	.word	0x100001c5
10000110:	100001c1 	.word	0x100001c1
10000114:	100001c1 	.word	0x100001c1
10000118:	100001c1 	.word	0x100001c1
1000011c:	100001c1 	.word	0x100001c1
10000120:	100001c1 	.word	0x100001c1
10000124:	100001c1 	.word	0x100001c1
10000128:	100001c1 	.word	0x100001c1
1000012c:	100001c7 	.word	0x100001c7
10000130:	100001c1 	.word	0x100001c1
10000134:	100001c1 	.word	0x100001c1
10000138:	100001c9 	.word	0x100001c9
1000013c:	100001cb 	.word	0x100001cb
10000140:	100001cd 	.word	0x100001cd
10000144:	100001cd 	.word	0x100001cd
10000148:	100001cd 	.word	0x100001cd
1000014c:	100001cd 	.word	0x100001cd
10000150:	100001cd 	.word	0x100001cd
10000154:	100001cd 	.word	0x100001cd
10000158:	100001cd 	.word	0x100001cd
1000015c:	100001cd 	.word	0x100001cd
10000160:	100001cd 	.word	0x100001cd
10000164:	100001cd 	.word	0x100001cd
10000168:	100001cd 	.word	0x100001cd
1000016c:	100001cd 	.word	0x100001cd
10000170:	100001cd 	.word	0x100001cd
10000174:	100001cd 	.word	0x100001cd
10000178:	100001cd 	.word	0x100001cd
1000017c:	100001cd 	.word	0x100001cd
10000180:	100001cd 	.word	0x100001cd
10000184:	100001cd 	.word	0x100001cd
10000188:	100001cd 	.word	0x100001cd
1000018c:	100001cd 	.word	0x100001cd
10000190:	100001cd 	.word	0x100001cd
10000194:	100001cd 	.word	0x100001cd
10000198:	100001cd 	.word	0x100001cd
1000019c:	100001cd 	.word	0x100001cd
100001a0:	100001cd 	.word	0x100001cd
100001a4:	100001cd 	.word	0x100001cd
100001a8:	100001cd 	.word	0x100001cd
100001ac:	100001cd 	.word	0x100001cd
100001b0:	100001cd 	.word	0x100001cd
100001b4:	100001cd 	.word	0x100001cd
100001b8:	100001cd 	.word	0x100001cd
100001bc:	100001cd 	.word	0x100001cd

100001c0 <isr_invalid>:
100001c0:	be00      	bkpt	0x0000

100001c2 <isr_nmi>:
100001c2:	be00      	bkpt	0x0000

100001c4 <isr_hardfault>:
100001c4:	be00      	bkpt	0x0000

100001c6 <isr_svcall>:
100001c6:	be00      	bkpt	0x0000

100001c8 <isr_pendsv>:
100001c8:	be00      	bkpt	0x0000

100001ca <isr_systick>:
100001ca:	be00      	bkpt	0x0000

100001cc <__unhandled_user_irq>:
100001cc:	f3ef 8005 	mrs	r0, IPSR
100001d0:	3810      	subs	r0, #16

100001d2 <unhandled_user_irq_num_in_r0>:
100001d2:	be00      	bkpt	0x0000

100001d4 <binary_info_header>:
100001d4:	7188ebf2 	.word	0x7188ebf2
100001d8:	100063b4 	.word	0x100063b4
100001dc:	100063dc 	.word	0x100063dc
100001e0:	10000238 	.word	0x10000238
100001e4:	e71aa390 	.word	0xe71aa390

100001e8 <_entry_point>:
100001e8:	481e      	ldr	r0, [pc, #120]	@ (10000264 <data_cpy_table+0x2c>)

100001ea <_enter_vtable_in_r0>:
100001ea:	491f      	ldr	r1, [pc, #124]	@ (10000268 <data_cpy_table+0x30>)
100001ec:	6008      	str	r0, [r1, #0]
100001ee:	c806      	ldmia	r0!, {r1, r2}
100001f0:	f381 8808 	msr	MSP, r1
100001f4:	4710      	bx	r2

100001f6 <_reset_handler>:
100001f6:	481d      	ldr	r0, [pc, #116]	@ (1000026c <data_cpy_table+0x34>)
100001f8:	6800      	ldr	r0, [r0, #0]
100001fa:	2800      	cmp	r0, #0
100001fc:	d001      	beq.n	10000202 <hold_non_core0_in_bootrom+0x4>

100001fe <hold_non_core0_in_bootrom>:
100001fe:	4819      	ldr	r0, [pc, #100]	@ (10000264 <data_cpy_table+0x2c>)
10000200:	e7f3      	b.n	100001ea <_enter_vtable_in_r0>
10000202:	a40d      	add	r4, pc, #52	@ (adr r4, 10000238 <data_cpy_table>)
10000204:	cc0e      	ldmia	r4!, {r1, r2, r3}
10000206:	2900      	cmp	r1, #0
10000208:	d002      	beq.n	10000210 <hold_non_core0_in_bootrom+0x12>
1000020a:	f000 f812 	bl	10000232 <data_cpy>
1000020e:	e7f9      	b.n	10000204 <hold_non_core0_in_bootrom+0x6>
10000210:	4917      	ldr	r1, [pc, #92]	@ (10000270 <data_cpy_table+0x38>)
10000212:	4a18      	ldr	r2, [pc, #96]	@ (10000274 <data_cpy_table+0x3c>)
10000214:	2000      	movs	r0, #0
10000216:	e000      	b.n	1000021a <bss_fill_test>

10000218 <bss_fill_loop>:
10000218:	c101      	stmia	r1!, {r0}

1000021a <bss_fill_test>:
1000021a:	4291      	cmp	r1, r2
1000021c:	d1fc      	bne.n	10000218 <bss_fill_loop>

1000021e <platform_entry>:
1000021e:	4916      	ldr	r1, [pc, #88]	@ (10000278 <data_cpy_table+0x40>)
10000220:	4788      	blx	r1
10000222:	4916      	ldr	r1, [pc, #88]	@ (1000027c <data_cpy_table+0x44>)
10000224:	4788      	blx	r1
10000226:	4916      	ldr	r1, [pc, #88]	@ (10000280 <data_cpy_table+0x48>)
10000228:	4788      	blx	r1
1000022a:	be00      	bkpt	0x0000
1000022c:	e7fd      	b.n	1000022a <platform_entry+0xc>

1000022e <data_cpy_loop>:
1000022e:	c901      	ldmia	r1!, {r0}
10000230:	c201      	stmia	r2!, {r0}

10000232 <data_cpy>:
10000232:	429a      	cmp	r2, r3
10000234:	d3fb      	bcc.n	1000022e <data_cpy_loop>
10000236:	4770      	bx	lr

10000238 <data_cpy_table>:
10000238:	100063dc 	.word	0x100063dc
1000023c:	200000c0 	.word	0x200000c0
10000240:	20000670 	.word	0x20000670
10000244:	1000698c 	.word	0x1000698c
10000248:	20040000 	.word	0x20040000
1000024c:	20040000 	.word	0x20040000
10000250:	1000698c 	.word	0x1000698c
10000254:	20041000 	.word	0x20041000
10000258:	20041000 	.word	0x20041000
1000025c:	00000000 	.word	0x00000000
10000260:	4770      	bx	lr
10000262:	0000      	.short	0x0000
10000264:	00000000 	.word	0x00000000
10000268:	e000ed08 	.word	0xe000ed08
1000026c:	d0000000 	.word	0xd0000000
10000270:	20000670 	.word	0x20000670
10000274:	200262b0 	.word	0x200262b0
10000278:	100051e5 	.word	0x100051e5
1000027c:	10000331 	.word	0x10000331
10000280:	100051dd 	.word	0x100051dd

10000284 <_init>:
10000284:	b5f8      	push	{r3, r4, r5, r6, r7, lr}
10000286:	46c0      	nop			@ (mov r8, r8)

10000288 <deregister_tm_clones>:
10000288:	4804      	ldr	r0, [pc, #16]	@ (1000029c <deregister_tm_clones+0x14>)
1000028a:	4b05      	ldr	r3, [pc, #20]	@ (100002a0 <deregister_tm_clones+0x18>)
1000028c:	b510      	push	{r4, lr}
1000028e:	4283      	cmp	r3, r0
10000290:	d003      	beq.n	1000029a <deregister_tm_clones+0x12>
10000292:	4b04      	ldr	r3, [pc, #16]	@ (100002a4 <deregister_tm_clones+0x1c>)
10000294:	2b00      	cmp	r3, #0
10000296:	d000      	beq.n	1000029a <deregister_tm_clones+0x12>
10000298:	4798      	blx	r3
1000029a:	bd10      	pop	{r4, pc}
1000029c:	20000670 	.word	0x20000670
100002a0:	20000670 	.word	0x20000670
100002a4:	00000000 	.word	0x00000000

100002a8 <register_tm_clones>:
100002a8:	4806      	ldr	r0, [pc, #24]	@ (100002c4 <register_tm_clones+0x1c>)
100002aa:	4907      	ldr	r1, [pc, #28]	@ (100002c8 <register_tm_clones+0x20>)
100002ac:	1a09      	subs	r1, r1, r0
100002ae:	108b      	asrs	r3, r1, #2
100002b0:	0fc9      	lsrs	r1, r1, #31
100002b2:	18c9      	adds	r1, r1, r3
100002b4:	b510      	push	{r4, lr}
100002b6:	1049      	asrs	r1, r1, #1
100002b8:	d003      	beq.n	100002c2 <register_tm_clones+0x1a>
100002ba:	4b04      	ldr	r3, [pc, #16]	@ (100002cc <register_tm_clones+0x24>)
100002bc:	2b00      	cmp	r3, #0
100002be:	d000      	beq.n	100002c2 <register_tm_clones+0x1a>
100002c0:	4798      	blx	r3
100002c2:	bd10      	pop	{r4, pc}
100002c4:	20000670 	.word	0x20000670
100002c8:	20000670 	.word	0x20000670
100002cc:	00000000 	.word	0x00000000

100002d0 <__do_global_dtors_aux>:
100002d0:	b510      	push	{r4, lr}
100002d2:	4c07      	ldr	r4, [pc, #28]	@ (100002f0 <__do_global_dtors_aux+0x20>)
100002d4:	7823      	ldrb	r3, [r4, #0]
100002d6:	2b00      	cmp	r3, #0
100002d8:	d109      	bne.n	100002ee <__do_global_dtors_aux+0x1e>
100002da:	f7ff ffd5 	bl	10000288 <deregister_tm_clones>
100002de:	4b05      	ldr	r3, [pc, #20]	@ (100002f4 <__do_global_dtors_aux+0x24>)
100002e0:	2b00      	cmp	r3, #0
100002e2:	d002      	beq.n	100002ea <__do_global_dtors_aux+0x1a>
100002e4:	4804      	ldr	r0, [pc, #16]	@ (100002f8 <__do_global_dtors_aux+0x28>)
100002e6:	e000      	b.n	100002ea <__do_global_dtors_aux+0x1a>
100002e8:	bf00      	nop
100002ea:	2301      	movs	r3, #1
100002ec:	7023      	strb	r3, [r4, #0]
100002ee:	bd10      	pop	{r4, pc}
100002f0:	200009f0 	.word	0x200009f0
100002f4:	00000000 	.word	0x00000000
100002f8:	10005a88 	.word	0x10005a88

100002fc <frame_dummy>:
100002fc:	4b05      	ldr	r3, [pc, #20]	@ (10000314 <frame_dummy+0x18>)
100002fe:	b510      	push	{r4, lr}
10000300:	2b00      	cmp	r3, #0
10000302:	d003      	beq.n	1000030c <frame_dummy+0x10>
10000304:	4904      	ldr	r1, [pc, #16]	@ (10000318 <frame_dummy+0x1c>)
10000306:	4805      	ldr	r0, [pc, #20]	@ (1000031c <frame_dummy+0x20>)
10000308:	e000      	b.n	1000030c <frame_dummy+0x10>
1000030a:	bf00      	nop
1000030c:	f7ff ffcc 	bl	100002a8 <register_tm_clones>
10000310:	bd10      	pop	{r4, pc}
10000312:	46c0      	nop			@ (mov r8, r8)
10000314:	00000000 	.word	0x00000000
10000318:	200009f4 	.word	0x200009f4
1000031c:	10005a88 	.word	0x10005a88

10000320 <repeating_timer_callback>:
10000320:	4a02      	ldr	r2, [pc, #8]	@ (1000032c <repeating_timer_callback+0xc>)
10000322:	2001      	movs	r0, #1
10000324:	6813      	ldr	r3, [r2, #0]
10000326:	3301      	adds	r3, #1
10000328:	6013      	str	r3, [r2, #0]
1000032a:	4770      	bx	lr
1000032c:	20000a6c 	.word	0x20000a6c

10000330 <main>:
10000330:	b5f0      	push	{r4, r5, r6, r7, lr}
10000332:	46de      	mov	lr, fp
10000334:	464e      	mov	r6, r9
10000336:	4657      	mov	r7, sl
10000338:	4645      	mov	r5, r8
1000033a:	b5e0      	push	{r5, r6, r7, lr}
1000033c:	b091      	sub	sp, #68	@ 0x44
1000033e:	f005 f865 	bl	1000540c <stdio_init_all>
10000342:	f000 f929 	bl	10000598 <initVGA>
10000346:	2305      	movs	r3, #5
10000348:	22b0      	movs	r2, #176	@ 0xb0
1000034a:	2100      	movs	r1, #0
1000034c:	2040      	movs	r0, #64	@ 0x40
1000034e:	9300      	str	r3, [sp, #0]
10000350:	332d      	adds	r3, #45	@ 0x2d
10000352:	f001 f8cd 	bl	100014f0 <fillRect>
10000356:	2308      	movs	r3, #8
10000358:	22b0      	movs	r2, #176	@ 0xb0
1000035a:	2100      	movs	r1, #0
1000035c:	20fa      	movs	r0, #250	@ 0xfa
1000035e:	9300      	str	r3, [sp, #0]
10000360:	332a      	adds	r3, #42	@ 0x2a
10000362:	f001 f8c5 	bl	100014f0 <fillRect>
10000366:	2303      	movs	r3, #3
10000368:	20b4      	movs	r0, #180	@ 0xb4
1000036a:	22b0      	movs	r2, #176	@ 0xb0
1000036c:	2100      	movs	r1, #0
1000036e:	9300      	str	r3, [sp, #0]
10000370:	30ff      	adds	r0, #255	@ 0xff
10000372:	332f      	adds	r3, #47	@ 0x2f
10000374:	f001 f8bc 	bl	100014f0 <fillRect>
10000378:	200f      	movs	r0, #15
1000037a:	f001 fabb 	bl	100018f4 <setTextColor>
1000037e:	2100      	movs	r1, #0
10000380:	2041      	movs	r0, #65	@ 0x41
10000382:	f001 faa3 	bl	100018cc <setCursor>
10000386:	2001      	movs	r0, #1
10000388:	f001 faaa 	bl	100018e0 <setTextSize>
1000038c:	4876      	ldr	r0, [pc, #472]	@ (10000568 <main+0x238>)
1000038e:	f001 fabb 	bl	10001908 <writeString>
10000392:	210a      	movs	r1, #10
10000394:	2041      	movs	r0, #65	@ 0x41
10000396:	f001 fa99 	bl	100018cc <setCursor>
1000039a:	4874      	ldr	r0, [pc, #464]	@ (1000056c <main+0x23c>)
1000039c:	f001 fab4 	bl	10001908 <writeString>
100003a0:	2114      	movs	r1, #20
100003a2:	2041      	movs	r0, #65	@ 0x41
100003a4:	f001 fa92 	bl	100018cc <setCursor>
100003a8:	4871      	ldr	r0, [pc, #452]	@ (10000570 <main+0x240>)
100003aa:	f001 faad 	bl	10001908 <writeString>
100003ae:	211e      	movs	r1, #30
100003b0:	2041      	movs	r0, #65	@ 0x41
100003b2:	f001 fa8b 	bl	100018cc <setCursor>
100003b6:	486f      	ldr	r0, [pc, #444]	@ (10000574 <main+0x244>)
100003b8:	f001 faa6 	bl	10001908 <writeString>
100003bc:	2128      	movs	r1, #40	@ 0x28
100003be:	2041      	movs	r0, #65	@ 0x41
100003c0:	f001 fa84 	bl	100018cc <setCursor>
100003c4:	486c      	ldr	r0, [pc, #432]	@ (10000578 <main+0x248>)
100003c6:	f001 fa9f 	bl	10001908 <writeString>
100003ca:	2100      	movs	r1, #0
100003cc:	20fa      	movs	r0, #250	@ 0xfa
100003ce:	f001 fa7d 	bl	100018cc <setCursor>
100003d2:	2002      	movs	r0, #2
100003d4:	f001 fa84 	bl	100018e0 <setTextSize>
100003d8:	4868      	ldr	r0, [pc, #416]	@ (1000057c <main+0x24c>)
100003da:	f001 fa95 	bl	10001908 <writeString>
100003de:	f001 ff9b 	bl	10002318 <alarm_pool_get_default>
100003e2:	ab0a      	add	r3, sp, #40	@ 0x28
100003e4:	9302      	str	r3, [sp, #8]
100003e6:	2300      	movs	r3, #0
100003e8:	9301      	str	r3, [sp, #4]
100003ea:	4b65      	ldr	r3, [pc, #404]	@ (10000580 <main+0x250>)
100003ec:	4a65      	ldr	r2, [pc, #404]	@ (10000584 <main+0x254>)
100003ee:	9300      	str	r3, [sp, #0]
100003f0:	2301      	movs	r3, #1
100003f2:	425b      	negs	r3, r3
100003f4:	f002 f92c 	bl	10002650 <alarm_pool_add_repeating_timer_us>
100003f8:	23fa      	movs	r3, #250	@ 0xfa
100003fa:	4699      	mov	r9, r3
100003fc:	2300      	movs	r3, #0
100003fe:	4698      	mov	r8, r3
10000400:	9305      	str	r3, [sp, #20]
10000402:	4b61      	ldr	r3, [pc, #388]	@ (10000588 <main+0x258>)
10000404:	26af      	movs	r6, #175	@ 0xaf
10000406:	469b      	mov	fp, r3
10000408:	4b60      	ldr	r3, [pc, #384]	@ (1000058c <main+0x25c>)
1000040a:	2400      	movs	r4, #0
1000040c:	469a      	mov	sl, r3
1000040e:	4b60      	ldr	r3, [pc, #384]	@ (10000590 <main+0x260>)
10000410:	0076      	lsls	r6, r6, #1
10000412:	9308      	str	r3, [sp, #32]
10000414:	4b5f      	ldr	r3, [pc, #380]	@ (10000594 <main+0x264>)
10000416:	9309      	str	r3, [sp, #36]	@ 0x24
10000418:	4643      	mov	r3, r8
1000041a:	9306      	str	r3, [sp, #24]
1000041c:	e09e      	b.n	1000055c <main+0x22c>
1000041e:	3401      	adds	r4, #1
10000420:	b2e4      	uxtb	r4, r4
10000422:	9d05      	ldr	r5, [sp, #20]
10000424:	0023      	movs	r3, r4
10000426:	0028      	movs	r0, r5
10000428:	2214      	movs	r2, #20
1000042a:	2164      	movs	r1, #100	@ 0x64
1000042c:	f000 fea2 	bl	10001174 <fillCircle>
10000430:	002b      	movs	r3, r5
10000432:	22a0      	movs	r2, #160	@ 0xa0
10000434:	2000      	movs	r0, #0
10000436:	2100      	movs	r1, #0
10000438:	3323      	adds	r3, #35	@ 0x23
1000043a:	b29b      	uxth	r3, r3
1000043c:	0092      	lsls	r2, r2, #2
1000043e:	429a      	cmp	r2, r3
10000440:	4141      	adcs	r1, r0
10000442:	424a      	negs	r2, r1
10000444:	9d06      	ldr	r5, [sp, #24]
10000446:	4013      	ands	r3, r2
10000448:	b21b      	sxth	r3, r3
1000044a:	3041      	adds	r0, #65	@ 0x41
1000044c:	21c8      	movs	r1, #200	@ 0xc8
1000044e:	002a      	movs	r2, r5
10000450:	9305      	str	r3, [sp, #20]
10000452:	30ff      	adds	r0, #255	@ 0xff
10000454:	0023      	movs	r3, r4
10000456:	f000 fc7f 	bl	10000d58 <drawCircle>
1000045a:	002b      	movs	r3, r5
1000045c:	3301      	adds	r3, #1
1000045e:	b29b      	uxth	r3, r3
10000460:	001a      	movs	r2, r3
10000462:	3a83      	subs	r2, #131	@ 0x83
10000464:	1e51      	subs	r1, r2, #1
10000466:	418a      	sbcs	r2, r1
10000468:	2196      	movs	r1, #150	@ 0x96
1000046a:	4252      	negs	r2, r2
1000046c:	4013      	ands	r3, r2
1000046e:	b21b      	sxth	r3, r3
10000470:	9306      	str	r3, [sp, #24]
10000472:	4642      	mov	r2, r8
10000474:	4643      	mov	r3, r8
10000476:	200a      	movs	r0, #10
10000478:	9400      	str	r4, [sp, #0]
1000047a:	0049      	lsls	r1, r1, #1
1000047c:	f000 fb42 	bl	10000b04 <drawRect>
10000480:	4643      	mov	r3, r8
10000482:	3305      	adds	r3, #5
10000484:	b29b      	uxth	r3, r3
10000486:	2bc3      	cmp	r3, #195	@ 0xc3
10000488:	d900      	bls.n	1000048c <main+0x15c>
1000048a:	230a      	movs	r3, #10
1000048c:	b21b      	sxth	r3, r3
1000048e:	4698      	mov	r8, r3
10000490:	f005 fa6e 	bl	10005970 <rand>
10000494:	9007      	str	r0, [sp, #28]
10000496:	f005 fa6b 	bl	10005970 <rand>
1000049a:	0005      	movs	r5, r0
1000049c:	f005 fa68 	bl	10005970 <rand>
100004a0:	0007      	movs	r7, r0
100004a2:	f005 fa65 	bl	10005970 <rand>
100004a6:	22af      	movs	r2, #175	@ 0xaf
100004a8:	237f      	movs	r3, #127	@ 0x7f
100004aa:	0052      	lsls	r2, r2, #1
100004ac:	4694      	mov	ip, r2
100004ae:	401d      	ands	r5, r3
100004b0:	401f      	ands	r7, r3
100004b2:	0029      	movs	r1, r5
100004b4:	003a      	movs	r2, r7
100004b6:	4018      	ands	r0, r3
100004b8:	4484      	add	ip, r0
100004ba:	9807      	ldr	r0, [sp, #28]
100004bc:	315f      	adds	r1, #95	@ 0x5f
100004be:	4003      	ands	r3, r0
100004c0:	33d2      	adds	r3, #210	@ 0xd2
100004c2:	0018      	movs	r0, r3
100004c4:	32d2      	adds	r2, #210	@ 0xd2
100004c6:	4663      	mov	r3, ip
100004c8:	31ff      	adds	r1, #255	@ 0xff
100004ca:	9400      	str	r4, [sp, #0]
100004cc:	f000 fa20 	bl	10000910 <drawLine>
100004d0:	2196      	movs	r1, #150	@ 0x96
100004d2:	0023      	movs	r3, r4
100004d4:	0030      	movs	r0, r6
100004d6:	10b2      	asrs	r2, r6, #2
100004d8:	0049      	lsls	r1, r1, #1
100004da:	f000 f97b 	bl	100007d4 <drawVLine>
100004de:	239b      	movs	r3, #155	@ 0x9b
100004e0:	3602      	adds	r6, #2
100004e2:	b2b6      	uxth	r6, r6
100004e4:	009b      	lsls	r3, r3, #2
100004e6:	429e      	cmp	r6, r3
100004e8:	d901      	bls.n	100004ee <main+0x1be>
100004ea:	26af      	movs	r6, #175	@ 0xaf
100004ec:	0076      	lsls	r6, r6, #1
100004ee:	25c8      	movs	r5, #200	@ 0xc8
100004f0:	006d      	lsls	r5, r5, #1
100004f2:	0023      	movs	r3, r4
100004f4:	4649      	mov	r1, r9
100004f6:	2296      	movs	r2, #150	@ 0x96
100004f8:	0028      	movs	r0, r5
100004fa:	f000 f9bb 	bl	10000874 <drawHLine>
100004fe:	464b      	mov	r3, r9
10000500:	3302      	adds	r3, #2
10000502:	b21b      	sxth	r3, r3
10000504:	4699      	mov	r9, r3
10000506:	b236      	sxth	r6, r6
10000508:	42ab      	cmp	r3, r5
1000050a:	dd01      	ble.n	10000510 <main+0x1e0>
1000050c:	23f0      	movs	r3, #240	@ 0xf0
1000050e:	4699      	mov	r9, r3
10000510:	465b      	mov	r3, fp
10000512:	681a      	ldr	r2, [r3, #0]
10000514:	4653      	mov	r3, sl
10000516:	681b      	ldr	r3, [r3, #0]
10000518:	429a      	cmp	r2, r3
1000051a:	d01c      	beq.n	10000556 <main+0x226>
1000051c:	465b      	mov	r3, fp
1000051e:	4652      	mov	r2, sl
10000520:	681b      	ldr	r3, [r3, #0]
10000522:	2114      	movs	r1, #20
10000524:	6013      	str	r3, [r2, #0]
10000526:	2308      	movs	r3, #8
10000528:	22b0      	movs	r2, #176	@ 0xb0
1000052a:	20fa      	movs	r0, #250	@ 0xfa
1000052c:	9300      	str	r3, [sp, #0]
1000052e:	3316      	adds	r3, #22
10000530:	f000 ffde 	bl	100014f0 <fillRect>
10000534:	465b      	mov	r3, fp
10000536:	9d09      	ldr	r5, [sp, #36]	@ 0x24
10000538:	681a      	ldr	r2, [r3, #0]
1000053a:	9908      	ldr	r1, [sp, #32]
1000053c:	0028      	movs	r0, r5
1000053e:	f004 fe1d 	bl	1000517c <__wrap_sprintf>
10000542:	2114      	movs	r1, #20
10000544:	20fa      	movs	r0, #250	@ 0xfa
10000546:	f001 f9c1 	bl	100018cc <setCursor>
1000054a:	2002      	movs	r0, #2
1000054c:	f001 f9c8 	bl	100018e0 <setTextSize>
10000550:	0028      	movs	r0, r5
10000552:	f001 f9d9 	bl	10001908 <writeString>
10000556:	200a      	movs	r0, #10
10000558:	f001 ffe0 	bl	1000251c <sleep_ms>
1000055c:	2c0f      	cmp	r4, #15
1000055e:	d000      	beq.n	10000562 <main+0x232>
10000560:	e75d      	b.n	1000041e <main+0xee>
10000562:	2400      	movs	r4, #0
10000564:	e75d      	b.n	10000422 <main+0xf2>
10000566:	46c0      	nop			@ (mov r8, r8)
10000568:	10005a88 	.word	0x10005a88
1000056c:	10005a9c 	.word	0x10005a9c
10000570:	10005ab8 	.word	0x10005ab8
10000574:	10005ac8 	.word	0x10005ac8
10000578:	10005adc 	.word	0x10005adc
1000057c:	10005af4 	.word	0x10005af4
10000580:	10000321 	.word	0x10000321
10000584:	fff0bdc0 	.word	0xfff0bdc0
10000588:	20000a6c 	.word	0x20000a6c
1000058c:	20000a70 	.word	0x20000a70
10000590:	10005b04 	.word	0x10005b04
10000594:	20000a74 	.word	0x20000a74

10000598 <initVGA>:
10000598:	b5f0      	push	{r4, r5, r6, r7, lr}
1000059a:	46d6      	mov	lr, sl
1000059c:	464f      	mov	r7, r9
1000059e:	4646      	mov	r6, r8
100005a0:	b5c0      	push	{r6, r7, lr}
100005a2:	497a      	ldr	r1, [pc, #488]	@ (1000078c <initVGA+0x1f4>)
100005a4:	b08a      	sub	sp, #40	@ 0x28
100005a6:	487a      	ldr	r0, [pc, #488]	@ (10000790 <initVGA+0x1f8>)
100005a8:	f005 f89c 	bl	100056e4 <pio_add_program>
100005ac:	4979      	ldr	r1, [pc, #484]	@ (10000794 <initVGA+0x1fc>)
100005ae:	0006      	movs	r6, r0
100005b0:	4877      	ldr	r0, [pc, #476]	@ (10000790 <initVGA+0x1f8>)
100005b2:	f005 f897 	bl	100056e4 <pio_add_program>
100005b6:	4978      	ldr	r1, [pc, #480]	@ (10000798 <initVGA+0x200>)
100005b8:	0005      	movs	r5, r0
100005ba:	4875      	ldr	r0, [pc, #468]	@ (10000790 <initVGA+0x1f8>)
100005bc:	f005 f892 	bl	100056e4 <pio_add_program>
100005c0:	2300      	movs	r3, #0
100005c2:	2280      	movs	r2, #128	@ 0x80
100005c4:	4699      	mov	r9, r3
100005c6:	9305      	str	r3, [sp, #20]
100005c8:	23f8      	movs	r3, #248	@ 0xf8
100005ca:	0252      	lsls	r2, r2, #9
100005cc:	025b      	lsls	r3, r3, #9
100005ce:	9202      	str	r2, [sp, #8]
100005d0:	9303      	str	r3, [sp, #12]
100005d2:	23c0      	movs	r3, #192	@ 0xc0
100005d4:	0004      	movs	r4, r0
100005d6:	031b      	lsls	r3, r3, #12
100005d8:	2210      	movs	r2, #16
100005da:	a902      	add	r1, sp, #8
100005dc:	a806      	add	r0, sp, #24
100005de:	4698      	mov	r8, r3
100005e0:	9304      	str	r3, [sp, #16]
100005e2:	f003 fad7 	bl	10003b94 <__wrap___aeabi_memcpy>
100005e6:	0031      	movs	r1, r6
100005e8:	1c73      	adds	r3, r6, #1
100005ea:	3108      	adds	r1, #8
100005ec:	030a      	lsls	r2, r1, #12
100005ee:	01db      	lsls	r3, r3, #7
100005f0:	4313      	orrs	r3, r2
100005f2:	a906      	add	r1, sp, #24
100005f4:	2210      	movs	r2, #16
100005f6:	a802      	add	r0, sp, #8
100005f8:	9307      	str	r3, [sp, #28]
100005fa:	f003 facb 	bl	10003b94 <__wrap___aeabi_memcpy>
100005fe:	4b67      	ldr	r3, [pc, #412]	@ (1000079c <initVGA+0x204>)
10000600:	2701      	movs	r7, #1
10000602:	9305      	str	r3, [sp, #20]
10000604:	23a0      	movs	r3, #160	@ 0xa0
10000606:	2106      	movs	r1, #6
10000608:	02db      	lsls	r3, r3, #11
1000060a:	2010      	movs	r0, #16
1000060c:	469a      	mov	sl, r3
1000060e:	9302      	str	r3, [sp, #8]
10000610:	f001 f9e4 	bl	100019dc <gpio_set_function>
10000614:	2301      	movs	r3, #1
10000616:	2210      	movs	r2, #16
10000618:	2100      	movs	r1, #0
1000061a:	485d      	ldr	r0, [pc, #372]	@ (10000790 <initVGA+0x1f8>)
1000061c:	9700      	str	r7, [sp, #0]
1000061e:	f005 f8e3 	bl	100057e8 <pio_sm_set_consecutive_pindirs>
10000622:	0032      	movs	r2, r6
10000624:	2100      	movs	r1, #0
10000626:	ab02      	add	r3, sp, #8
10000628:	4859      	ldr	r0, [pc, #356]	@ (10000790 <initVGA+0x1f8>)
1000062a:	f005 f937 	bl	1000589c <pio_sm_init>
1000062e:	0029      	movs	r1, r5
10000630:	1c6b      	adds	r3, r5, #1
10000632:	310d      	adds	r1, #13
10000634:	030a      	lsls	r2, r1, #12
10000636:	01db      	lsls	r3, r3, #7
10000638:	4313      	orrs	r3, r2
1000063a:	4a59      	ldr	r2, [pc, #356]	@ (100007a0 <initVGA+0x208>)
1000063c:	2106      	movs	r1, #6
1000063e:	4013      	ands	r3, r2
10000640:	2280      	movs	r2, #128	@ 0x80
10000642:	05d2      	lsls	r2, r2, #23
10000644:	4313      	orrs	r3, r2
10000646:	9307      	str	r3, [sp, #28]
10000648:	4643      	mov	r3, r8
1000064a:	9308      	str	r3, [sp, #32]
1000064c:	4b55      	ldr	r3, [pc, #340]	@ (100007a4 <initVGA+0x20c>)
1000064e:	2011      	movs	r0, #17
10000650:	9309      	str	r3, [sp, #36]	@ 0x24
10000652:	4653      	mov	r3, sl
10000654:	9306      	str	r3, [sp, #24]
10000656:	f001 f9c1 	bl	100019dc <gpio_set_function>
1000065a:	2301      	movs	r3, #1
1000065c:	2211      	movs	r2, #17
1000065e:	2101      	movs	r1, #1
10000660:	484b      	ldr	r0, [pc, #300]	@ (10000790 <initVGA+0x1f8>)
10000662:	9700      	str	r7, [sp, #0]
10000664:	f005 f8c0 	bl	100057e8 <pio_sm_set_consecutive_pindirs>
10000668:	002a      	movs	r2, r5
1000066a:	2101      	movs	r1, #1
1000066c:	ab06      	add	r3, sp, #24
1000066e:	4848      	ldr	r0, [pc, #288]	@ (10000790 <initVGA+0x1f8>)
10000670:	f005 f914 	bl	1000589c <pio_sm_init>
10000674:	464b      	mov	r3, r9
10000676:	2280      	movs	r2, #128	@ 0x80
10000678:	9305      	str	r3, [sp, #20]
1000067a:	23f8      	movs	r3, #248	@ 0xf8
1000067c:	0252      	lsls	r2, r2, #9
1000067e:	025b      	lsls	r3, r3, #9
10000680:	9202      	str	r2, [sp, #8]
10000682:	9303      	str	r3, [sp, #12]
10000684:	4643      	mov	r3, r8
10000686:	2210      	movs	r2, #16
10000688:	a902      	add	r1, sp, #8
1000068a:	a806      	add	r0, sp, #24
1000068c:	9304      	str	r3, [sp, #16]
1000068e:	f003 fa81 	bl	10003b94 <__wrap___aeabi_memcpy>
10000692:	0022      	movs	r2, r4
10000694:	1ca3      	adds	r3, r4, #2
10000696:	3208      	adds	r2, #8
10000698:	0312      	lsls	r2, r2, #12
1000069a:	01db      	lsls	r3, r3, #7
1000069c:	4313      	orrs	r3, r2
1000069e:	a906      	add	r1, sp, #24
100006a0:	2210      	movs	r2, #16
100006a2:	a802      	add	r0, sp, #8
100006a4:	9307      	str	r3, [sp, #28]
100006a6:	f003 fa75 	bl	10003b94 <__wrap___aeabi_memcpy>
100006aa:	4b3f      	ldr	r3, [pc, #252]	@ (100007a8 <initVGA+0x210>)
100006ac:	2106      	movs	r1, #6
100006ae:	2012      	movs	r0, #18
100006b0:	9305      	str	r3, [sp, #20]
100006b2:	f001 f993 	bl	100019dc <gpio_set_function>
100006b6:	2106      	movs	r1, #6
100006b8:	2013      	movs	r0, #19
100006ba:	f001 f98f 	bl	100019dc <gpio_set_function>
100006be:	2106      	movs	r1, #6
100006c0:	2014      	movs	r0, #20
100006c2:	f001 f98b 	bl	100019dc <gpio_set_function>
100006c6:	2106      	movs	r1, #6
100006c8:	2015      	movs	r0, #21
100006ca:	f001 f987 	bl	100019dc <gpio_set_function>
100006ce:	2304      	movs	r3, #4
100006d0:	2212      	movs	r2, #18
100006d2:	2102      	movs	r1, #2
100006d4:	482e      	ldr	r0, [pc, #184]	@ (10000790 <initVGA+0x1f8>)
100006d6:	9700      	str	r7, [sp, #0]
100006d8:	f005 f886 	bl	100057e8 <pio_sm_set_consecutive_pindirs>
100006dc:	0022      	movs	r2, r4
100006de:	2102      	movs	r1, #2
100006e0:	ab02      	add	r3, sp, #8
100006e2:	482b      	ldr	r0, [pc, #172]	@ (10000790 <initVGA+0x1f8>)
100006e4:	f005 f8da 	bl	1000589c <pio_sm_init>
100006e8:	2001      	movs	r0, #1
100006ea:	f005 f925 	bl	10005938 <dma_claim_unused_channel>
100006ee:	26a0      	movs	r6, #160	@ 0xa0
100006f0:	0004      	movs	r4, r0
100006f2:	2001      	movs	r0, #1
100006f4:	f005 f920 	bl	10005938 <dma_claim_unused_channel>
100006f8:	05f6      	lsls	r6, r6, #23
100006fa:	46b4      	mov	ip, r6
100006fc:	4b2b      	ldr	r3, [pc, #172]	@ (100007ac <initVGA+0x214>)
100006fe:	02e5      	lsls	r5, r4, #11
10000700:	02c2      	lsls	r2, r0, #11
10000702:	492b      	ldr	r1, [pc, #172]	@ (100007b0 <initVGA+0x218>)
10000704:	402b      	ands	r3, r5
10000706:	4313      	orrs	r3, r2
10000708:	4319      	orrs	r1, r3
1000070a:	4e2a      	ldr	r6, [pc, #168]	@ (100007b4 <initVGA+0x21c>)
1000070c:	01a3      	lsls	r3, r4, #6
1000070e:	4463      	add	r3, ip
10000710:	601e      	str	r6, [r3, #0]
10000712:	4e29      	ldr	r6, [pc, #164]	@ (100007b8 <initVGA+0x220>)
10000714:	0180      	lsls	r0, r0, #6
10000716:	605e      	str	r6, [r3, #4]
10000718:	2696      	movs	r6, #150	@ 0x96
1000071a:	02b6      	lsls	r6, r6, #10
1000071c:	609e      	str	r6, [r3, #8]
1000071e:	6119      	str	r1, [r3, #16]
10000720:	4926      	ldr	r1, [pc, #152]	@ (100007bc <initVGA+0x224>)
10000722:	4460      	add	r0, ip
10000724:	400a      	ands	r2, r1
10000726:	4926      	ldr	r1, [pc, #152]	@ (100007c0 <initVGA+0x228>)
10000728:	432a      	orrs	r2, r5
1000072a:	430a      	orrs	r2, r1
1000072c:	4925      	ldr	r1, [pc, #148]	@ (100007c4 <initVGA+0x22c>)
1000072e:	6001      	str	r1, [r0, #0]
10000730:	2180      	movs	r1, #128	@ 0x80
10000732:	6043      	str	r3, [r0, #4]
10000734:	6087      	str	r7, [r0, #8]
10000736:	6102      	str	r2, [r0, #16]
10000738:	4a15      	ldr	r2, [pc, #84]	@ (10000790 <initVGA+0x1f8>)
1000073a:	0249      	lsls	r1, r1, #9
1000073c:	6853      	ldr	r3, [r2, #4]
1000073e:	420b      	tst	r3, r1
10000740:	d1fc      	bne.n	1000073c <initVGA+0x1a4>
10000742:	2180      	movs	r1, #128	@ 0x80
10000744:	4b20      	ldr	r3, [pc, #128]	@ (100007c8 <initVGA+0x230>)
10000746:	0289      	lsls	r1, r1, #10
10000748:	6113      	str	r3, [r2, #16]
1000074a:	4a11      	ldr	r2, [pc, #68]	@ (10000790 <initVGA+0x1f8>)
1000074c:	6853      	ldr	r3, [r2, #4]
1000074e:	420b      	tst	r3, r1
10000750:	d1fc      	bne.n	1000074c <initVGA+0x1b4>
10000752:	23e0      	movs	r3, #224	@ 0xe0
10000754:	2180      	movs	r1, #128	@ 0x80
10000756:	33ff      	adds	r3, #255	@ 0xff
10000758:	6153      	str	r3, [r2, #20]
1000075a:	4a0d      	ldr	r2, [pc, #52]	@ (10000790 <initVGA+0x1f8>)
1000075c:	02c9      	lsls	r1, r1, #11
1000075e:	6853      	ldr	r3, [r2, #4]
10000760:	420b      	tst	r3, r1
10000762:	d1fc      	bne.n	1000075e <initVGA+0x1c6>
10000764:	2340      	movs	r3, #64	@ 0x40
10000766:	33ff      	adds	r3, #255	@ 0xff
10000768:	6193      	str	r3, [r2, #24]
1000076a:	4b18      	ldr	r3, [pc, #96]	@ (100007cc <initVGA+0x234>)
1000076c:	4a18      	ldr	r2, [pc, #96]	@ (100007d0 <initVGA+0x238>)
1000076e:	21a0      	movs	r1, #160	@ 0xa0
10000770:	601a      	str	r2, [r3, #0]
10000772:	2301      	movs	r3, #1
10000774:	2286      	movs	r2, #134	@ 0x86
10000776:	40a3      	lsls	r3, r4
10000778:	05c9      	lsls	r1, r1, #23
1000077a:	00d2      	lsls	r2, r2, #3
1000077c:	508b      	str	r3, [r1, r2]
1000077e:	b00a      	add	sp, #40	@ 0x28
10000780:	bce0      	pop	{r5, r6, r7}
10000782:	46ba      	mov	sl, r7
10000784:	46b1      	mov	r9, r6
10000786:	46a8      	mov	r8, r5
10000788:	bdf0      	pop	{r4, r5, r6, r7, pc}
1000078a:	46c0      	nop			@ (mov r8, r8)
1000078c:	10006044 	.word	0x10006044
10000790:	50200000 	.word	0x50200000
10000794:	10006020 	.word	0x10006020
10000798:	10006004 	.word	0x10006004
1000079c:	04000200 	.word	0x04000200
100007a0:	9fffffff 	.word	0x9fffffff
100007a4:	44004620 	.word	0x44004620
100007a8:	10400252 	.word	0x10400252
100007ac:	ff0007fd 	.word	0xff0007fd
100007b0:	00010011 	.word	0x00010011
100007b4:	20000aa4 	.word	0x20000aa4
100007b8:	50200018 	.word	0x50200018
100007bc:	ff1f87fd 	.word	0xff1f87fd
100007c0:	001f8009 	.word	0x001f8009
100007c4:	20000198 	.word	0x20000198
100007c8:	0000028f 	.word	0x0000028f
100007cc:	50202000 	.word	0x50202000
100007d0:	00000707 	.word	0x00000707

100007d4 <drawVLine>:
100007d4:	b5f0      	push	{r4, r5, r6, r7, lr}
100007d6:	4645      	mov	r5, r8
100007d8:	46de      	mov	lr, fp
100007da:	4657      	mov	r7, sl
100007dc:	464e      	mov	r6, r9
100007de:	b5e0      	push	{r5, r6, r7, lr}
100007e0:	1855      	adds	r5, r2, r1
100007e2:	0004      	movs	r4, r0
100007e4:	469c      	mov	ip, r3
100007e6:	42a9      	cmp	r1, r5
100007e8:	da37      	bge.n	1000085a <drawVLine+0x86>
100007ea:	011b      	lsls	r3, r3, #4
100007ec:	b2db      	uxtb	r3, r3
100007ee:	43c0      	mvns	r0, r0
100007f0:	4698      	mov	r8, r3
100007f2:	23a0      	movs	r3, #160	@ 0xa0
100007f4:	17c0      	asrs	r0, r0, #31
100007f6:	009b      	lsls	r3, r3, #2
100007f8:	4020      	ands	r0, r4
100007fa:	4298      	cmp	r0, r3
100007fc:	da33      	bge.n	10000866 <drawVLine+0x92>
100007fe:	23f0      	movs	r3, #240	@ 0xf0
10000800:	005b      	lsls	r3, r3, #1
10000802:	469a      	mov	sl, r3
10000804:	3bd2      	subs	r3, #210	@ 0xd2
10000806:	3bff      	subs	r3, #255	@ 0xff
10000808:	2701      	movs	r7, #1
1000080a:	469b      	mov	fp, r3
1000080c:	4c17      	ldr	r4, [pc, #92]	@ (1000086c <drawVLine+0x98>)
1000080e:	e00a      	b.n	10000826 <drawVLine+0x52>
10000810:	465e      	mov	r6, fp
10000812:	1052      	asrs	r2, r2, #1
10000814:	5ca3      	ldrb	r3, [r4, r2]
10000816:	3101      	adds	r1, #1
10000818:	4033      	ands	r3, r6
1000081a:	4646      	mov	r6, r8
1000081c:	b209      	sxth	r1, r1
1000081e:	4333      	orrs	r3, r6
10000820:	54a3      	strb	r3, [r4, r2]
10000822:	42a9      	cmp	r1, r5
10000824:	da19      	bge.n	1000085a <drawVLine+0x86>
10000826:	1c0b      	adds	r3, r1, #0
10000828:	4551      	cmp	r1, sl
1000082a:	db01      	blt.n	10000830 <drawVLine+0x5c>
1000082c:	23e0      	movs	r3, #224	@ 0xe0
1000082e:	33ff      	adds	r3, #255	@ 0xff
10000830:	b21b      	sxth	r3, r3
10000832:	43da      	mvns	r2, r3
10000834:	17d2      	asrs	r2, r2, #31
10000836:	4013      	ands	r3, r2
10000838:	009a      	lsls	r2, r3, #2
1000083a:	18d2      	adds	r2, r2, r3
1000083c:	01d2      	lsls	r2, r2, #7
1000083e:	1812      	adds	r2, r2, r0
10000840:	4217      	tst	r7, r2
10000842:	d1e5      	bne.n	10000810 <drawVLine+0x3c>
10000844:	465e      	mov	r6, fp
10000846:	1052      	asrs	r2, r2, #1
10000848:	5ca3      	ldrb	r3, [r4, r2]
1000084a:	3101      	adds	r1, #1
1000084c:	43b3      	bics	r3, r6
1000084e:	4666      	mov	r6, ip
10000850:	b209      	sxth	r1, r1
10000852:	4333      	orrs	r3, r6
10000854:	54a3      	strb	r3, [r4, r2]
10000856:	42a9      	cmp	r1, r5
10000858:	dbe5      	blt.n	10000826 <drawVLine+0x52>
1000085a:	bcf0      	pop	{r4, r5, r6, r7}
1000085c:	46bb      	mov	fp, r7
1000085e:	46b2      	mov	sl, r6
10000860:	46a9      	mov	r9, r5
10000862:	46a0      	mov	r8, r4
10000864:	bdf0      	pop	{r4, r5, r6, r7, pc}
10000866:	4802      	ldr	r0, [pc, #8]	@ (10000870 <drawVLine+0x9c>)
10000868:	e7c9      	b.n	100007fe <drawVLine+0x2a>
1000086a:	46c0      	nop			@ (mov r8, r8)
1000086c:	20000aa4 	.word	0x20000aa4
10000870:	0000027f 	.word	0x0000027f

10000874 <drawHLine>:
10000874:	b5f0      	push	{r4, r5, r6, r7, lr}
10000876:	4645      	mov	r5, r8
10000878:	46de      	mov	lr, fp
1000087a:	4657      	mov	r7, sl
1000087c:	464e      	mov	r6, r9
1000087e:	b5e0      	push	{r5, r6, r7, lr}
10000880:	1815      	adds	r5, r2, r0
10000882:	469c      	mov	ip, r3
10000884:	42a8      	cmp	r0, r5
10000886:	da36      	bge.n	100008f6 <drawHLine+0x82>
10000888:	22f0      	movs	r2, #240	@ 0xf0
1000088a:	1c0b      	adds	r3, r1, #0
1000088c:	0052      	lsls	r2, r2, #1
1000088e:	4291      	cmp	r1, r2
10000890:	da37      	bge.n	10000902 <drawHLine+0x8e>
10000892:	b21b      	sxth	r3, r3
10000894:	43da      	mvns	r2, r3
10000896:	17d2      	asrs	r2, r2, #31
10000898:	4013      	ands	r3, r2
1000089a:	009c      	lsls	r4, r3, #2
1000089c:	18e4      	adds	r4, r4, r3
1000089e:	4663      	mov	r3, ip
100008a0:	011b      	lsls	r3, r3, #4
100008a2:	b2db      	uxtb	r3, r3
100008a4:	4698      	mov	r8, r3
100008a6:	23a0      	movs	r3, #160	@ 0xa0
100008a8:	009b      	lsls	r3, r3, #2
100008aa:	469a      	mov	sl, r3
100008ac:	230f      	movs	r3, #15
100008ae:	2701      	movs	r7, #1
100008b0:	469b      	mov	fp, r3
100008b2:	4a15      	ldr	r2, [pc, #84]	@ (10000908 <drawHLine+0x94>)
100008b4:	01e4      	lsls	r4, r4, #7
100008b6:	e00a      	b.n	100008ce <drawHLine+0x5a>
100008b8:	465e      	mov	r6, fp
100008ba:	1049      	asrs	r1, r1, #1
100008bc:	5c53      	ldrb	r3, [r2, r1]
100008be:	3001      	adds	r0, #1
100008c0:	4033      	ands	r3, r6
100008c2:	4646      	mov	r6, r8
100008c4:	b200      	sxth	r0, r0
100008c6:	4333      	orrs	r3, r6
100008c8:	5453      	strb	r3, [r2, r1]
100008ca:	42a8      	cmp	r0, r5
100008cc:	da13      	bge.n	100008f6 <drawHLine+0x82>
100008ce:	43c1      	mvns	r1, r0
100008d0:	17c9      	asrs	r1, r1, #31
100008d2:	4001      	ands	r1, r0
100008d4:	4551      	cmp	r1, sl
100008d6:	db00      	blt.n	100008da <drawHLine+0x66>
100008d8:	490c      	ldr	r1, [pc, #48]	@ (1000090c <drawHLine+0x98>)
100008da:	1909      	adds	r1, r1, r4
100008dc:	420f      	tst	r7, r1
100008de:	d1eb      	bne.n	100008b8 <drawHLine+0x44>
100008e0:	465e      	mov	r6, fp
100008e2:	1049      	asrs	r1, r1, #1
100008e4:	5c53      	ldrb	r3, [r2, r1]
100008e6:	3001      	adds	r0, #1
100008e8:	43b3      	bics	r3, r6
100008ea:	4666      	mov	r6, ip
100008ec:	b200      	sxth	r0, r0
100008ee:	4333      	orrs	r3, r6
100008f0:	5453      	strb	r3, [r2, r1]
100008f2:	42a8      	cmp	r0, r5
100008f4:	dbeb      	blt.n	100008ce <drawHLine+0x5a>
100008f6:	bcf0      	pop	{r4, r5, r6, r7}
100008f8:	46bb      	mov	fp, r7
100008fa:	46b2      	mov	sl, r6
100008fc:	46a9      	mov	r9, r5
100008fe:	46a0      	mov	r8, r4
10000900:	bdf0      	pop	{r4, r5, r6, r7, pc}
10000902:	23e0      	movs	r3, #224	@ 0xe0
10000904:	33ff      	adds	r3, #255	@ 0xff
10000906:	e7c4      	b.n	10000892 <drawHLine+0x1e>
10000908:	20000aa4 	.word	0x20000aa4
1000090c:	0000027f 	.word	0x0000027f

10000910 <drawLine>:
10000910:	b5f0      	push	{r4, r5, r6, r7, lr}
10000912:	464e      	mov	r6, r9
10000914:	4645      	mov	r5, r8
10000916:	46de      	mov	lr, fp
10000918:	4657      	mov	r7, sl
1000091a:	b5e0      	push	{r5, r6, r7, lr}
1000091c:	1a5d      	subs	r5, r3, r1
1000091e:	17ee      	asrs	r6, r5, #31
10000920:	b087      	sub	sp, #28
10000922:	19ad      	adds	r5, r5, r6
10000924:	1a17      	subs	r7, r2, r0
10000926:	ac10      	add	r4, sp, #64	@ 0x40
10000928:	7824      	ldrb	r4, [r4, #0]
1000092a:	4075      	eors	r5, r6
1000092c:	17fe      	asrs	r6, r7, #31
1000092e:	19bf      	adds	r7, r7, r6
10000930:	9403      	str	r4, [sp, #12]
10000932:	469c      	mov	ip, r3
10000934:	000c      	movs	r4, r1
10000936:	4691      	mov	r9, r2
10000938:	4680      	mov	r8, r0
1000093a:	46ab      	mov	fp, r5
1000093c:	4077      	eors	r7, r6
1000093e:	42bd      	cmp	r5, r7
10000940:	dd06      	ble.n	10000950 <drawLine+0x40>
10000942:	4694      	mov	ip, r2
10000944:	0004      	movs	r4, r0
10000946:	001a      	movs	r2, r3
10000948:	0008      	movs	r0, r1
1000094a:	46bb      	mov	fp, r7
1000094c:	464b      	mov	r3, r9
1000094e:	4641      	mov	r1, r8
10000950:	4290      	cmp	r0, r2
10000952:	dd61      	ble.n	10000a18 <drawLine+0x108>
10000954:	4666      	mov	r6, ip
10000956:	1ba4      	subs	r4, r4, r6
10000958:	17e6      	asrs	r6, r4, #31
1000095a:	19a4      	adds	r4, r4, r6
1000095c:	4074      	eors	r4, r6
1000095e:	46a3      	mov	fp, r4
10000960:	1a84      	subs	r4, r0, r2
10000962:	b2a6      	uxth	r6, r4
10000964:	b224      	sxth	r4, r4
10000966:	46b2      	mov	sl, r6
10000968:	0fe6      	lsrs	r6, r4, #31
1000096a:	46b4      	mov	ip, r6
1000096c:	4464      	add	r4, ip
1000096e:	1064      	asrs	r4, r4, #1
10000970:	4299      	cmp	r1, r3
10000972:	dc00      	bgt.n	10000976 <drawLine+0x66>
10000974:	e0bd      	b.n	10000af2 <drawLine+0x1e2>
10000976:	2101      	movs	r1, #1
10000978:	9102      	str	r1, [sp, #8]
1000097a:	9903      	ldr	r1, [sp, #12]
1000097c:	0109      	lsls	r1, r1, #4
1000097e:	b2c9      	uxtb	r1, r1
10000980:	9104      	str	r1, [sp, #16]
10000982:	4659      	mov	r1, fp
10000984:	b28e      	uxth	r6, r1
10000986:	42bd      	cmp	r5, r7
10000988:	dc5e      	bgt.n	10000a48 <drawLine+0x138>
1000098a:	21f0      	movs	r1, #240	@ 0xf0
1000098c:	0049      	lsls	r1, r1, #1
1000098e:	4689      	mov	r9, r1
10000990:	31a0      	adds	r1, #160	@ 0xa0
10000992:	4688      	mov	r8, r1
10000994:	2101      	movs	r1, #1
10000996:	4f58      	ldr	r7, [pc, #352]	@ (10000af8 <drawLine+0x1e8>)
10000998:	468c      	mov	ip, r1
1000099a:	310e      	adds	r1, #14
1000099c:	9105      	str	r1, [sp, #20]
1000099e:	9701      	str	r7, [sp, #4]
100009a0:	e018      	b.n	100009d4 <drawLine+0xc4>
100009a2:	9f01      	ldr	r7, [sp, #4]
100009a4:	1049      	asrs	r1, r1, #1
100009a6:	5c7d      	ldrb	r5, [r7, r1]
100009a8:	9f05      	ldr	r7, [sp, #20]
100009aa:	43bd      	bics	r5, r7
100009ac:	9f03      	ldr	r7, [sp, #12]
100009ae:	433d      	orrs	r5, r7
100009b0:	9f01      	ldr	r7, [sp, #4]
100009b2:	547d      	strb	r5, [r7, r1]
100009b4:	1ba1      	subs	r1, r4, r6
100009b6:	b28d      	uxth	r5, r1
100009b8:	b20c      	sxth	r4, r1
100009ba:	0409      	lsls	r1, r1, #16
100009bc:	d505      	bpl.n	100009ca <drawLine+0xba>
100009be:	9902      	ldr	r1, [sp, #8]
100009c0:	4455      	add	r5, sl
100009c2:	468b      	mov	fp, r1
100009c4:	445b      	add	r3, fp
100009c6:	b21b      	sxth	r3, r3
100009c8:	b22c      	sxth	r4, r5
100009ca:	3201      	adds	r2, #1
100009cc:	b212      	sxth	r2, r2
100009ce:	4282      	cmp	r2, r0
100009d0:	dd00      	ble.n	100009d4 <drawLine+0xc4>
100009d2:	e087      	b.n	10000ae4 <drawLine+0x1d4>
100009d4:	1c1d      	adds	r5, r3, #0
100009d6:	454b      	cmp	r3, r9
100009d8:	db02      	blt.n	100009e0 <drawLine+0xd0>
100009da:	21e0      	movs	r1, #224	@ 0xe0
100009dc:	31ff      	adds	r1, #255	@ 0xff
100009de:	1c0d      	adds	r5, r1, #0
100009e0:	b22d      	sxth	r5, r5
100009e2:	43e9      	mvns	r1, r5
100009e4:	17c9      	asrs	r1, r1, #31
100009e6:	400d      	ands	r5, r1
100009e8:	00a9      	lsls	r1, r5, #2
100009ea:	1949      	adds	r1, r1, r5
100009ec:	43d5      	mvns	r5, r2
100009ee:	17ed      	asrs	r5, r5, #31
100009f0:	4015      	ands	r5, r2
100009f2:	b22d      	sxth	r5, r5
100009f4:	01c9      	lsls	r1, r1, #7
100009f6:	4545      	cmp	r5, r8
100009f8:	db00      	blt.n	100009fc <drawLine+0xec>
100009fa:	4d40      	ldr	r5, [pc, #256]	@ (10000afc <drawLine+0x1ec>)
100009fc:	1949      	adds	r1, r1, r5
100009fe:	4665      	mov	r5, ip
10000a00:	420d      	tst	r5, r1
10000a02:	d0ce      	beq.n	100009a2 <drawLine+0x92>
10000a04:	9f01      	ldr	r7, [sp, #4]
10000a06:	1049      	asrs	r1, r1, #1
10000a08:	5c7d      	ldrb	r5, [r7, r1]
10000a0a:	9f05      	ldr	r7, [sp, #20]
10000a0c:	403d      	ands	r5, r7
10000a0e:	9f04      	ldr	r7, [sp, #16]
10000a10:	433d      	orrs	r5, r7
10000a12:	9f01      	ldr	r7, [sp, #4]
10000a14:	547d      	strb	r5, [r7, r1]
10000a16:	e7cd      	b.n	100009b4 <drawLine+0xa4>
10000a18:	1a14      	subs	r4, r2, r0
10000a1a:	b2a6      	uxth	r6, r4
10000a1c:	b224      	sxth	r4, r4
10000a1e:	46b2      	mov	sl, r6
10000a20:	0fe6      	lsrs	r6, r4, #31
10000a22:	46b4      	mov	ip, r6
10000a24:	4464      	add	r4, ip
10000a26:	1064      	asrs	r4, r4, #1
10000a28:	4299      	cmp	r1, r3
10000a2a:	db53      	blt.n	10000ad4 <drawLine+0x1c4>
10000a2c:	000b      	movs	r3, r1
10000a2e:	0011      	movs	r1, r2
10000a30:	0002      	movs	r2, r0
10000a32:	0008      	movs	r0, r1
10000a34:	4932      	ldr	r1, [pc, #200]	@ (10000b00 <drawLine+0x1f0>)
10000a36:	9102      	str	r1, [sp, #8]
10000a38:	9903      	ldr	r1, [sp, #12]
10000a3a:	0109      	lsls	r1, r1, #4
10000a3c:	b2c9      	uxtb	r1, r1
10000a3e:	9104      	str	r1, [sp, #16]
10000a40:	4659      	mov	r1, fp
10000a42:	b28e      	uxth	r6, r1
10000a44:	42bd      	cmp	r5, r7
10000a46:	dda0      	ble.n	1000098a <drawLine+0x7a>
10000a48:	21f0      	movs	r1, #240	@ 0xf0
10000a4a:	0049      	lsls	r1, r1, #1
10000a4c:	4689      	mov	r9, r1
10000a4e:	31a0      	adds	r1, #160	@ 0xa0
10000a50:	4688      	mov	r8, r1
10000a52:	2101      	movs	r1, #1
10000a54:	4f28      	ldr	r7, [pc, #160]	@ (10000af8 <drawLine+0x1e8>)
10000a56:	468c      	mov	ip, r1
10000a58:	310e      	adds	r1, #14
10000a5a:	9105      	str	r1, [sp, #20]
10000a5c:	9701      	str	r7, [sp, #4]
10000a5e:	e017      	b.n	10000a90 <drawLine+0x180>
10000a60:	9f01      	ldr	r7, [sp, #4]
10000a62:	1049      	asrs	r1, r1, #1
10000a64:	5c7d      	ldrb	r5, [r7, r1]
10000a66:	9f05      	ldr	r7, [sp, #20]
10000a68:	403d      	ands	r5, r7
10000a6a:	9f04      	ldr	r7, [sp, #16]
10000a6c:	433d      	orrs	r5, r7
10000a6e:	9f01      	ldr	r7, [sp, #4]
10000a70:	547d      	strb	r5, [r7, r1]
10000a72:	1ba1      	subs	r1, r4, r6
10000a74:	b28d      	uxth	r5, r1
10000a76:	b20c      	sxth	r4, r1
10000a78:	0409      	lsls	r1, r1, #16
10000a7a:	d505      	bpl.n	10000a88 <drawLine+0x178>
10000a7c:	9902      	ldr	r1, [sp, #8]
10000a7e:	4455      	add	r5, sl
10000a80:	468b      	mov	fp, r1
10000a82:	445b      	add	r3, fp
10000a84:	b21b      	sxth	r3, r3
10000a86:	b22c      	sxth	r4, r5
10000a88:	3201      	adds	r2, #1
10000a8a:	b212      	sxth	r2, r2
10000a8c:	4282      	cmp	r2, r0
10000a8e:	dc29      	bgt.n	10000ae4 <drawLine+0x1d4>
10000a90:	1c15      	adds	r5, r2, #0
10000a92:	454a      	cmp	r2, r9
10000a94:	db02      	blt.n	10000a9c <drawLine+0x18c>
10000a96:	21e0      	movs	r1, #224	@ 0xe0
10000a98:	31ff      	adds	r1, #255	@ 0xff
10000a9a:	1c0d      	adds	r5, r1, #0
10000a9c:	b22d      	sxth	r5, r5
10000a9e:	43e9      	mvns	r1, r5
10000aa0:	17c9      	asrs	r1, r1, #31
10000aa2:	400d      	ands	r5, r1
10000aa4:	00a9      	lsls	r1, r5, #2
10000aa6:	1949      	adds	r1, r1, r5
10000aa8:	43dd      	mvns	r5, r3
10000aaa:	17ed      	asrs	r5, r5, #31
10000aac:	401d      	ands	r5, r3
10000aae:	b22d      	sxth	r5, r5
10000ab0:	01c9      	lsls	r1, r1, #7
10000ab2:	4545      	cmp	r5, r8
10000ab4:	db00      	blt.n	10000ab8 <drawLine+0x1a8>
10000ab6:	4d11      	ldr	r5, [pc, #68]	@ (10000afc <drawLine+0x1ec>)
10000ab8:	1949      	adds	r1, r1, r5
10000aba:	4665      	mov	r5, ip
10000abc:	420d      	tst	r5, r1
10000abe:	d1cf      	bne.n	10000a60 <drawLine+0x150>
10000ac0:	9f01      	ldr	r7, [sp, #4]
10000ac2:	1049      	asrs	r1, r1, #1
10000ac4:	5c7d      	ldrb	r5, [r7, r1]
10000ac6:	9f05      	ldr	r7, [sp, #20]
10000ac8:	43bd      	bics	r5, r7
10000aca:	9f03      	ldr	r7, [sp, #12]
10000acc:	433d      	orrs	r5, r7
10000ace:	9f01      	ldr	r7, [sp, #4]
10000ad0:	547d      	strb	r5, [r7, r1]
10000ad2:	e7ce      	b.n	10000a72 <drawLine+0x162>
10000ad4:	000b      	movs	r3, r1
10000ad6:	0011      	movs	r1, r2
10000ad8:	0002      	movs	r2, r0
10000ada:	0008      	movs	r0, r1
10000adc:	2101      	movs	r1, #1
10000ade:	9102      	str	r1, [sp, #8]
10000ae0:	4282      	cmp	r2, r0
10000ae2:	dda9      	ble.n	10000a38 <drawLine+0x128>
10000ae4:	b007      	add	sp, #28
10000ae6:	bcf0      	pop	{r4, r5, r6, r7}
10000ae8:	46bb      	mov	fp, r7
10000aea:	46b2      	mov	sl, r6
10000aec:	46a9      	mov	r9, r5
10000aee:	46a0      	mov	r8, r4
10000af0:	bdf0      	pop	{r4, r5, r6, r7, pc}
10000af2:	4903      	ldr	r1, [pc, #12]	@ (10000b00 <drawLine+0x1f0>)
10000af4:	9102      	str	r1, [sp, #8]
10000af6:	e7f3      	b.n	10000ae0 <drawLine+0x1d0>
10000af8:	20000aa4 	.word	0x20000aa4
10000afc:	0000027f 	.word	0x0000027f
10000b00:	0000ffff 	.word	0x0000ffff

10000b04 <drawRect>:
10000b04:	b5f0      	push	{r4, r5, r6, r7, lr}
10000b06:	46de      	mov	lr, fp
10000b08:	464e      	mov	r6, r9
10000b0a:	4645      	mov	r5, r8
10000b0c:	4657      	mov	r7, sl
10000b0e:	b5e0      	push	{r5, r6, r7, lr}
10000b10:	b085      	sub	sp, #20
10000b12:	469b      	mov	fp, r3
10000b14:	1816      	adds	r6, r2, r0
10000b16:	ab0e      	add	r3, sp, #56	@ 0x38
10000b18:	781d      	ldrb	r5, [r3, #0]
10000b1a:	9201      	str	r2, [sp, #4]
10000b1c:	42b0      	cmp	r0, r6
10000b1e:	da7f      	bge.n	10000c20 <drawRect+0x11c>
10000b20:	22f0      	movs	r2, #240	@ 0xf0
10000b22:	1c0b      	adds	r3, r1, #0
10000b24:	0052      	lsls	r2, r2, #1
10000b26:	4291      	cmp	r1, r2
10000b28:	db00      	blt.n	10000b2c <drawRect+0x28>
10000b2a:	e10d      	b.n	10000d48 <drawRect+0x244>
10000b2c:	b21b      	sxth	r3, r3
10000b2e:	43da      	mvns	r2, r3
10000b30:	17d2      	asrs	r2, r2, #31
10000b32:	4013      	ands	r3, r2
10000b34:	009f      	lsls	r7, r3, #2
10000b36:	18ff      	adds	r7, r7, r3
10000b38:	012b      	lsls	r3, r5, #4
10000b3a:	b2db      	uxtb	r3, r3
10000b3c:	469c      	mov	ip, r3
10000b3e:	23a0      	movs	r3, #160	@ 0xa0
10000b40:	009b      	lsls	r3, r3, #2
10000b42:	469a      	mov	sl, r3
10000b44:	2301      	movs	r3, #1
10000b46:	4699      	mov	r9, r3
10000b48:	330e      	adds	r3, #14
10000b4a:	4698      	mov	r8, r3
10000b4c:	4663      	mov	r3, ip
10000b4e:	0004      	movs	r4, r0
10000b50:	4a7f      	ldr	r2, [pc, #508]	@ (10000d50 <drawRect+0x24c>)
10000b52:	01ff      	lsls	r7, r7, #7
10000b54:	9002      	str	r0, [sp, #8]
10000b56:	9300      	str	r3, [sp, #0]
10000b58:	9103      	str	r1, [sp, #12]
10000b5a:	e00a      	b.n	10000b72 <drawRect+0x6e>
10000b5c:	4640      	mov	r0, r8
10000b5e:	105b      	asrs	r3, r3, #1
10000b60:	5cd1      	ldrb	r1, [r2, r3]
10000b62:	3401      	adds	r4, #1
10000b64:	4001      	ands	r1, r0
10000b66:	9800      	ldr	r0, [sp, #0]
10000b68:	b224      	sxth	r4, r4
10000b6a:	4301      	orrs	r1, r0
10000b6c:	54d1      	strb	r1, [r2, r3]
10000b6e:	42b4      	cmp	r4, r6
10000b70:	da13      	bge.n	10000b9a <drawRect+0x96>
10000b72:	43e3      	mvns	r3, r4
10000b74:	17db      	asrs	r3, r3, #31
10000b76:	4023      	ands	r3, r4
10000b78:	4553      	cmp	r3, sl
10000b7a:	db00      	blt.n	10000b7e <drawRect+0x7a>
10000b7c:	4b75      	ldr	r3, [pc, #468]	@ (10000d54 <drawRect+0x250>)
10000b7e:	4649      	mov	r1, r9
10000b80:	19db      	adds	r3, r3, r7
10000b82:	4219      	tst	r1, r3
10000b84:	d1ea      	bne.n	10000b5c <drawRect+0x58>
10000b86:	4640      	mov	r0, r8
10000b88:	105b      	asrs	r3, r3, #1
10000b8a:	5cd1      	ldrb	r1, [r2, r3]
10000b8c:	3401      	adds	r4, #1
10000b8e:	4381      	bics	r1, r0
10000b90:	4329      	orrs	r1, r5
10000b92:	b224      	sxth	r4, r4
10000b94:	54d1      	strb	r1, [r2, r3]
10000b96:	42b4      	cmp	r4, r6
10000b98:	dbeb      	blt.n	10000b72 <drawRect+0x6e>
10000b9a:	9b00      	ldr	r3, [sp, #0]
10000b9c:	27f0      	movs	r7, #240	@ 0xf0
10000b9e:	469c      	mov	ip, r3
10000ba0:	465b      	mov	r3, fp
10000ba2:	9903      	ldr	r1, [sp, #12]
10000ba4:	1e5c      	subs	r4, r3, #1
10000ba6:	1864      	adds	r4, r4, r1
10000ba8:	1c23      	adds	r3, r4, #0
10000baa:	b224      	sxth	r4, r4
10000bac:	9802      	ldr	r0, [sp, #8]
10000bae:	007f      	lsls	r7, r7, #1
10000bb0:	42bc      	cmp	r4, r7
10000bb2:	db00      	blt.n	10000bb6 <drawRect+0xb2>
10000bb4:	e0c1      	b.n	10000d3a <drawRect+0x236>
10000bb6:	b21b      	sxth	r3, r3
10000bb8:	43dc      	mvns	r4, r3
10000bba:	17e4      	asrs	r4, r4, #31
10000bbc:	4023      	ands	r3, r4
10000bbe:	009f      	lsls	r7, r3, #2
10000bc0:	18ff      	adds	r7, r7, r3
10000bc2:	23a0      	movs	r3, #160	@ 0xa0
10000bc4:	009b      	lsls	r3, r3, #2
10000bc6:	469a      	mov	sl, r3
10000bc8:	2301      	movs	r3, #1
10000bca:	4699      	mov	r9, r3
10000bcc:	330e      	adds	r3, #14
10000bce:	4698      	mov	r8, r3
10000bd0:	4663      	mov	r3, ip
10000bd2:	0004      	movs	r4, r0
10000bd4:	01ff      	lsls	r7, r7, #7
10000bd6:	9002      	str	r0, [sp, #8]
10000bd8:	9300      	str	r3, [sp, #0]
10000bda:	9103      	str	r1, [sp, #12]
10000bdc:	e00a      	b.n	10000bf4 <drawRect+0xf0>
10000bde:	4640      	mov	r0, r8
10000be0:	105b      	asrs	r3, r3, #1
10000be2:	5cd1      	ldrb	r1, [r2, r3]
10000be4:	3401      	adds	r4, #1
10000be6:	4001      	ands	r1, r0
10000be8:	9800      	ldr	r0, [sp, #0]
10000bea:	b224      	sxth	r4, r4
10000bec:	4301      	orrs	r1, r0
10000bee:	54d1      	strb	r1, [r2, r3]
10000bf0:	42b4      	cmp	r4, r6
10000bf2:	da13      	bge.n	10000c1c <drawRect+0x118>
10000bf4:	43e3      	mvns	r3, r4
10000bf6:	17db      	asrs	r3, r3, #31
10000bf8:	4023      	ands	r3, r4
10000bfa:	4553      	cmp	r3, sl
10000bfc:	db00      	blt.n	10000c00 <drawRect+0xfc>
10000bfe:	4b55      	ldr	r3, [pc, #340]	@ (10000d54 <drawRect+0x250>)
10000c00:	4649      	mov	r1, r9
10000c02:	19db      	adds	r3, r3, r7
10000c04:	4219      	tst	r1, r3
10000c06:	d1ea      	bne.n	10000bde <drawRect+0xda>
10000c08:	4640      	mov	r0, r8
10000c0a:	105b      	asrs	r3, r3, #1
10000c0c:	5cd1      	ldrb	r1, [r2, r3]
10000c0e:	3401      	adds	r4, #1
10000c10:	4381      	bics	r1, r0
10000c12:	4329      	orrs	r1, r5
10000c14:	b224      	sxth	r4, r4
10000c16:	54d1      	strb	r1, [r2, r3]
10000c18:	42b4      	cmp	r4, r6
10000c1a:	dbeb      	blt.n	10000bf4 <drawRect+0xf0>
10000c1c:	9802      	ldr	r0, [sp, #8]
10000c1e:	9903      	ldr	r1, [sp, #12]
10000c20:	465b      	mov	r3, fp
10000c22:	185e      	adds	r6, r3, r1
10000c24:	42b1      	cmp	r1, r6
10000c26:	db00      	blt.n	10000c2a <drawRect+0x126>
10000c28:	e080      	b.n	10000d2c <drawRect+0x228>
10000c2a:	012b      	lsls	r3, r5, #4
10000c2c:	b2db      	uxtb	r3, r3
10000c2e:	43c7      	mvns	r7, r0
10000c30:	469c      	mov	ip, r3
10000c32:	23a0      	movs	r3, #160	@ 0xa0
10000c34:	17ff      	asrs	r7, r7, #31
10000c36:	009b      	lsls	r3, r3, #2
10000c38:	4007      	ands	r7, r0
10000c3a:	429f      	cmp	r7, r3
10000c3c:	db00      	blt.n	10000c40 <drawRect+0x13c>
10000c3e:	e081      	b.n	10000d44 <drawRect+0x240>
10000c40:	23f0      	movs	r3, #240	@ 0xf0
10000c42:	000c      	movs	r4, r1
10000c44:	4661      	mov	r1, ip
10000c46:	005b      	lsls	r3, r3, #1
10000c48:	469a      	mov	sl, r3
10000c4a:	3be0      	subs	r3, #224	@ 0xe0
10000c4c:	3bff      	subs	r3, #255	@ 0xff
10000c4e:	4699      	mov	r9, r3
10000c50:	330e      	adds	r3, #14
10000c52:	4698      	mov	r8, r3
10000c54:	46a4      	mov	ip, r4
10000c56:	4a3e      	ldr	r2, [pc, #248]	@ (10000d50 <drawRect+0x24c>)
10000c58:	9002      	str	r0, [sp, #8]
10000c5a:	9100      	str	r1, [sp, #0]
10000c5c:	e00a      	b.n	10000c74 <drawRect+0x170>
10000c5e:	4641      	mov	r1, r8
10000c60:	105b      	asrs	r3, r3, #1
10000c62:	5cd0      	ldrb	r0, [r2, r3]
10000c64:	3401      	adds	r4, #1
10000c66:	4008      	ands	r0, r1
10000c68:	9900      	ldr	r1, [sp, #0]
10000c6a:	b224      	sxth	r4, r4
10000c6c:	4308      	orrs	r0, r1
10000c6e:	54d0      	strb	r0, [r2, r3]
10000c70:	42b4      	cmp	r4, r6
10000c72:	da1b      	bge.n	10000cac <drawRect+0x1a8>
10000c74:	1c20      	adds	r0, r4, #0
10000c76:	4554      	cmp	r4, sl
10000c78:	db02      	blt.n	10000c80 <drawRect+0x17c>
10000c7a:	23e0      	movs	r3, #224	@ 0xe0
10000c7c:	33ff      	adds	r3, #255	@ 0xff
10000c7e:	1c18      	adds	r0, r3, #0
10000c80:	b200      	sxth	r0, r0
10000c82:	43c3      	mvns	r3, r0
10000c84:	17db      	asrs	r3, r3, #31
10000c86:	4018      	ands	r0, r3
10000c88:	0083      	lsls	r3, r0, #2
10000c8a:	181b      	adds	r3, r3, r0
10000c8c:	4648      	mov	r0, r9
10000c8e:	01db      	lsls	r3, r3, #7
10000c90:	19db      	adds	r3, r3, r7
10000c92:	4218      	tst	r0, r3
10000c94:	d1e3      	bne.n	10000c5e <drawRect+0x15a>
10000c96:	105b      	asrs	r3, r3, #1
10000c98:	5cd1      	ldrb	r1, [r2, r3]
10000c9a:	3401      	adds	r4, #1
10000c9c:	0008      	movs	r0, r1
10000c9e:	4641      	mov	r1, r8
10000ca0:	4388      	bics	r0, r1
10000ca2:	4328      	orrs	r0, r5
10000ca4:	b224      	sxth	r4, r4
10000ca6:	54d0      	strb	r0, [r2, r3]
10000ca8:	42b4      	cmp	r4, r6
10000caa:	dbe3      	blt.n	10000c74 <drawRect+0x170>
10000cac:	9b00      	ldr	r3, [sp, #0]
10000cae:	4661      	mov	r1, ip
10000cb0:	469c      	mov	ip, r3
10000cb2:	9b01      	ldr	r3, [sp, #4]
10000cb4:	9802      	ldr	r0, [sp, #8]
10000cb6:	3b01      	subs	r3, #1
10000cb8:	181b      	adds	r3, r3, r0
10000cba:	b218      	sxth	r0, r3
10000cbc:	43c0      	mvns	r0, r0
10000cbe:	17c0      	asrs	r0, r0, #31
10000cc0:	4018      	ands	r0, r3
10000cc2:	23a0      	movs	r3, #160	@ 0xa0
10000cc4:	b200      	sxth	r0, r0
10000cc6:	009b      	lsls	r3, r3, #2
10000cc8:	4298      	cmp	r0, r3
10000cca:	da39      	bge.n	10000d40 <drawRect+0x23c>
10000ccc:	23f0      	movs	r3, #240	@ 0xf0
10000cce:	005b      	lsls	r3, r3, #1
10000cd0:	4698      	mov	r8, r3
10000cd2:	3bd2      	subs	r3, #210	@ 0xd2
10000cd4:	3bff      	subs	r3, #255	@ 0xff
10000cd6:	2701      	movs	r7, #1
10000cd8:	469a      	mov	sl, r3
10000cda:	46e1      	mov	r9, ip
10000cdc:	46ab      	mov	fp, r5
10000cde:	e00a      	b.n	10000cf6 <drawRect+0x1f2>
10000ce0:	4655      	mov	r5, sl
10000ce2:	105b      	asrs	r3, r3, #1
10000ce4:	5cd4      	ldrb	r4, [r2, r3]
10000ce6:	3101      	adds	r1, #1
10000ce8:	402c      	ands	r4, r5
10000cea:	464d      	mov	r5, r9
10000cec:	b209      	sxth	r1, r1
10000cee:	432c      	orrs	r4, r5
10000cf0:	54d4      	strb	r4, [r2, r3]
10000cf2:	42b1      	cmp	r1, r6
10000cf4:	da1a      	bge.n	10000d2c <drawRect+0x228>
10000cf6:	1c0c      	adds	r4, r1, #0
10000cf8:	4541      	cmp	r1, r8
10000cfa:	db02      	blt.n	10000d02 <drawRect+0x1fe>
10000cfc:	23e0      	movs	r3, #224	@ 0xe0
10000cfe:	33ff      	adds	r3, #255	@ 0xff
10000d00:	1c1c      	adds	r4, r3, #0
10000d02:	b224      	sxth	r4, r4
10000d04:	43e3      	mvns	r3, r4
10000d06:	17db      	asrs	r3, r3, #31
10000d08:	401c      	ands	r4, r3
10000d0a:	00a3      	lsls	r3, r4, #2
10000d0c:	191b      	adds	r3, r3, r4
10000d0e:	01db      	lsls	r3, r3, #7
10000d10:	181b      	adds	r3, r3, r0
10000d12:	421f      	tst	r7, r3
10000d14:	d1e4      	bne.n	10000ce0 <drawRect+0x1dc>
10000d16:	4655      	mov	r5, sl
10000d18:	105b      	asrs	r3, r3, #1
10000d1a:	5cd4      	ldrb	r4, [r2, r3]
10000d1c:	3101      	adds	r1, #1
10000d1e:	43ac      	bics	r4, r5
10000d20:	465d      	mov	r5, fp
10000d22:	b209      	sxth	r1, r1
10000d24:	432c      	orrs	r4, r5
10000d26:	54d4      	strb	r4, [r2, r3]
10000d28:	42b1      	cmp	r1, r6
10000d2a:	dbe4      	blt.n	10000cf6 <drawRect+0x1f2>
10000d2c:	b005      	add	sp, #20
10000d2e:	bcf0      	pop	{r4, r5, r6, r7}
10000d30:	46bb      	mov	fp, r7
10000d32:	46b2      	mov	sl, r6
10000d34:	46a9      	mov	r9, r5
10000d36:	46a0      	mov	r8, r4
10000d38:	bdf0      	pop	{r4, r5, r6, r7, pc}
10000d3a:	23e0      	movs	r3, #224	@ 0xe0
10000d3c:	33ff      	adds	r3, #255	@ 0xff
10000d3e:	e73a      	b.n	10000bb6 <drawRect+0xb2>
10000d40:	4804      	ldr	r0, [pc, #16]	@ (10000d54 <drawRect+0x250>)
10000d42:	e7c3      	b.n	10000ccc <drawRect+0x1c8>
10000d44:	4f03      	ldr	r7, [pc, #12]	@ (10000d54 <drawRect+0x250>)
10000d46:	e77b      	b.n	10000c40 <drawRect+0x13c>
10000d48:	23e0      	movs	r3, #224	@ 0xe0
10000d4a:	33ff      	adds	r3, #255	@ 0xff
10000d4c:	e6ee      	b.n	10000b2c <drawRect+0x28>
10000d4e:	46c0      	nop			@ (mov r8, r8)
10000d50:	20000aa4 	.word	0x20000aa4
10000d54:	0000027f 	.word	0x0000027f

10000d58 <drawCircle>:
10000d58:	b5f0      	push	{r4, r5, r6, r7, lr}
10000d5a:	4645      	mov	r5, r8
10000d5c:	46de      	mov	lr, fp
10000d5e:	4657      	mov	r7, sl
10000d60:	464e      	mov	r6, r9
10000d62:	469c      	mov	ip, r3
10000d64:	2301      	movs	r3, #1
10000d66:	b5e0      	push	{r5, r6, r7, lr}
10000d68:	b295      	uxth	r5, r2
10000d6a:	1b5b      	subs	r3, r3, r5
10000d6c:	b089      	sub	sp, #36	@ 0x24
10000d6e:	b21b      	sxth	r3, r3
10000d70:	9306      	str	r3, [sp, #24]
10000d72:	03eb      	lsls	r3, r5, #15
10000d74:	1b5b      	subs	r3, r3, r5
10000d76:	005b      	lsls	r3, r3, #1
10000d78:	b21b      	sxth	r3, r3
10000d7a:	9205      	str	r2, [sp, #20]
10000d7c:	9307      	str	r3, [sp, #28]
10000d7e:	43c2      	mvns	r2, r0
10000d80:	b28b      	uxth	r3, r1
10000d82:	4698      	mov	r8, r3
10000d84:	23a0      	movs	r3, #160	@ 0xa0
10000d86:	17d2      	asrs	r2, r2, #31
10000d88:	009b      	lsls	r3, r3, #2
10000d8a:	4002      	ands	r2, r0
10000d8c:	429a      	cmp	r2, r3
10000d8e:	db00      	blt.n	10000d92 <drawCircle+0x3a>
10000d90:	4ada      	ldr	r2, [pc, #872]	@ (100010fc <drawCircle+0x3a4>)
10000d92:	4643      	mov	r3, r8
10000d94:	26f0      	movs	r6, #240	@ 0xf0
10000d96:	18eb      	adds	r3, r5, r3
10000d98:	1c1c      	adds	r4, r3, #0
10000d9a:	b21b      	sxth	r3, r3
10000d9c:	0076      	lsls	r6, r6, #1
10000d9e:	42b3      	cmp	r3, r6
10000da0:	db02      	blt.n	10000da8 <drawCircle+0x50>
10000da2:	23e0      	movs	r3, #224	@ 0xe0
10000da4:	33ff      	adds	r3, #255	@ 0xff
10000da6:	1c1c      	adds	r4, r3, #0
10000da8:	b224      	sxth	r4, r4
10000daa:	43e3      	mvns	r3, r4
10000dac:	17db      	asrs	r3, r3, #31
10000dae:	401c      	ands	r4, r3
10000db0:	00a3      	lsls	r3, r4, #2
10000db2:	191b      	adds	r3, r3, r4
10000db4:	01db      	lsls	r3, r3, #7
10000db6:	189b      	adds	r3, r3, r2
10000db8:	105b      	asrs	r3, r3, #1
10000dba:	07d4      	lsls	r4, r2, #31
10000dbc:	d400      	bmi.n	10000dc0 <drawCircle+0x68>
10000dbe:	e1ce      	b.n	1000115e <drawCircle+0x406>
10000dc0:	260f      	movs	r6, #15
10000dc2:	4ccf      	ldr	r4, [pc, #828]	@ (10001100 <drawCircle+0x3a8>)
10000dc4:	5ce7      	ldrb	r7, [r4, r3]
10000dc6:	403e      	ands	r6, r7
10000dc8:	4667      	mov	r7, ip
10000dca:	013f      	lsls	r7, r7, #4
10000dcc:	433e      	orrs	r6, r7
10000dce:	54e6      	strb	r6, [r4, r3]
10000dd0:	4643      	mov	r3, r8
10000dd2:	27f0      	movs	r7, #240	@ 0xf0
10000dd4:	1b5b      	subs	r3, r3, r5
10000dd6:	1c1e      	adds	r6, r3, #0
10000dd8:	b21b      	sxth	r3, r3
10000dda:	007f      	lsls	r7, r7, #1
10000ddc:	42bb      	cmp	r3, r7
10000dde:	db02      	blt.n	10000de6 <drawCircle+0x8e>
10000de0:	23e0      	movs	r3, #224	@ 0xe0
10000de2:	33ff      	adds	r3, #255	@ 0xff
10000de4:	1c1e      	adds	r6, r3, #0
10000de6:	b236      	sxth	r6, r6
10000de8:	43f3      	mvns	r3, r6
10000dea:	17db      	asrs	r3, r3, #31
10000dec:	401e      	ands	r6, r3
10000dee:	00b3      	lsls	r3, r6, #2
10000df0:	199b      	adds	r3, r3, r6
10000df2:	01db      	lsls	r3, r3, #7
10000df4:	189b      	adds	r3, r3, r2
10000df6:	105b      	asrs	r3, r3, #1
10000df8:	07d2      	lsls	r2, r2, #31
10000dfa:	d400      	bmi.n	10000dfe <drawCircle+0xa6>
10000dfc:	e1a8      	b.n	10001150 <drawCircle+0x3f8>
10000dfe:	220f      	movs	r2, #15
10000e00:	5ce6      	ldrb	r6, [r4, r3]
10000e02:	4032      	ands	r2, r6
10000e04:	4666      	mov	r6, ip
10000e06:	0136      	lsls	r6, r6, #4
10000e08:	4332      	orrs	r2, r6
10000e0a:	54e2      	strb	r2, [r4, r3]
10000e0c:	b283      	uxth	r3, r0
10000e0e:	20f0      	movs	r0, #240	@ 0xf0
10000e10:	1c0a      	adds	r2, r1, #0
10000e12:	0040      	lsls	r0, r0, #1
10000e14:	4281      	cmp	r1, r0
10000e16:	db01      	blt.n	10000e1c <drawCircle+0xc4>
10000e18:	22e0      	movs	r2, #224	@ 0xe0
10000e1a:	32ff      	adds	r2, #255	@ 0xff
10000e1c:	b212      	sxth	r2, r2
10000e1e:	43d1      	mvns	r1, r2
10000e20:	17c9      	asrs	r1, r1, #31
10000e22:	400a      	ands	r2, r1
10000e24:	18e8      	adds	r0, r5, r3
10000e26:	0091      	lsls	r1, r2, #2
10000e28:	1889      	adds	r1, r1, r2
10000e2a:	b202      	sxth	r2, r0
10000e2c:	43d2      	mvns	r2, r2
10000e2e:	17d2      	asrs	r2, r2, #31
10000e30:	4002      	ands	r2, r0
10000e32:	20a0      	movs	r0, #160	@ 0xa0
10000e34:	b212      	sxth	r2, r2
10000e36:	01c9      	lsls	r1, r1, #7
10000e38:	0080      	lsls	r0, r0, #2
10000e3a:	4282      	cmp	r2, r0
10000e3c:	db00      	blt.n	10000e40 <drawCircle+0xe8>
10000e3e:	4aaf      	ldr	r2, [pc, #700]	@ (100010fc <drawCircle+0x3a4>)
10000e40:	1850      	adds	r0, r2, r1
10000e42:	1040      	asrs	r0, r0, #1
10000e44:	07d2      	lsls	r2, r2, #31
10000e46:	d400      	bmi.n	10000e4a <drawCircle+0xf2>
10000e48:	e17b      	b.n	10001142 <drawCircle+0x3ea>
10000e4a:	220f      	movs	r2, #15
10000e4c:	5c26      	ldrb	r6, [r4, r0]
10000e4e:	4032      	ands	r2, r6
10000e50:	4666      	mov	r6, ip
10000e52:	0136      	lsls	r6, r6, #4
10000e54:	4332      	orrs	r2, r6
10000e56:	5422      	strb	r2, [r4, r0]
10000e58:	1b5d      	subs	r5, r3, r5
10000e5a:	b22a      	sxth	r2, r5
10000e5c:	43d2      	mvns	r2, r2
10000e5e:	20a0      	movs	r0, #160	@ 0xa0
10000e60:	17d2      	asrs	r2, r2, #31
10000e62:	402a      	ands	r2, r5
10000e64:	b212      	sxth	r2, r2
10000e66:	0080      	lsls	r0, r0, #2
10000e68:	4282      	cmp	r2, r0
10000e6a:	db00      	blt.n	10000e6e <drawCircle+0x116>
10000e6c:	4aa3      	ldr	r2, [pc, #652]	@ (100010fc <drawCircle+0x3a4>)
10000e6e:	1851      	adds	r1, r2, r1
10000e70:	1049      	asrs	r1, r1, #1
10000e72:	07d2      	lsls	r2, r2, #31
10000e74:	d400      	bmi.n	10000e78 <drawCircle+0x120>
10000e76:	e15d      	b.n	10001134 <drawCircle+0x3dc>
10000e78:	220f      	movs	r2, #15
10000e7a:	5c60      	ldrb	r0, [r4, r1]
10000e7c:	4002      	ands	r2, r0
10000e7e:	4660      	mov	r0, ip
10000e80:	0100      	lsls	r0, r0, #4
10000e82:	4302      	orrs	r2, r0
10000e84:	5462      	strb	r2, [r4, r1]
10000e86:	9a05      	ldr	r2, [sp, #20]
10000e88:	2a00      	cmp	r2, #0
10000e8a:	dc00      	bgt.n	10000e8e <drawCircle+0x136>
10000e8c:	e119      	b.n	100010c2 <drawCircle+0x36a>
10000e8e:	4662      	mov	r2, ip
10000e90:	0112      	lsls	r2, r2, #4
10000e92:	b2d2      	uxtb	r2, r2
10000e94:	4691      	mov	r9, r2
10000e96:	2200      	movs	r2, #0
10000e98:	9203      	str	r2, [sp, #12]
10000e9a:	4642      	mov	r2, r8
10000e9c:	2701      	movs	r7, #1
10000e9e:	260f      	movs	r6, #15
10000ea0:	4698      	mov	r8, r3
10000ea2:	9202      	str	r2, [sp, #8]
10000ea4:	e0bd      	b.n	10001022 <drawCircle+0x2ca>
10000ea6:	4649      	mov	r1, r9
10000ea8:	105b      	asrs	r3, r3, #1
10000eaa:	469a      	mov	sl, r3
10000eac:	5ce3      	ldrb	r3, [r4, r3]
10000eae:	4033      	ands	r3, r6
10000eb0:	430b      	orrs	r3, r1
10000eb2:	469b      	mov	fp, r3
10000eb4:	4653      	mov	r3, sl
10000eb6:	4659      	mov	r1, fp
10000eb8:	54e1      	strb	r1, [r4, r3]
10000eba:	4643      	mov	r3, r8
10000ebc:	9901      	ldr	r1, [sp, #4]
10000ebe:	1a5b      	subs	r3, r3, r1
10000ec0:	469b      	mov	fp, r3
10000ec2:	b21b      	sxth	r3, r3
10000ec4:	43db      	mvns	r3, r3
10000ec6:	17db      	asrs	r3, r3, #31
10000ec8:	469a      	mov	sl, r3
10000eca:	465b      	mov	r3, fp
10000ecc:	4651      	mov	r1, sl
10000ece:	400b      	ands	r3, r1
10000ed0:	b21b      	sxth	r3, r3
10000ed2:	469a      	mov	sl, r3
10000ed4:	23a0      	movs	r3, #160	@ 0xa0
10000ed6:	009b      	lsls	r3, r3, #2
10000ed8:	459a      	cmp	sl, r3
10000eda:	db01      	blt.n	10000ee0 <drawCircle+0x188>
10000edc:	4b87      	ldr	r3, [pc, #540]	@ (100010fc <drawCircle+0x3a4>)
10000ede:	469a      	mov	sl, r3
10000ee0:	9904      	ldr	r1, [sp, #16]
10000ee2:	4451      	add	r1, sl
10000ee4:	420f      	tst	r7, r1
10000ee6:	d100      	bne.n	10000eea <drawCircle+0x192>
10000ee8:	e0f9      	b.n	100010de <drawCircle+0x386>
10000eea:	4648      	mov	r0, r9
10000eec:	1049      	asrs	r1, r1, #1
10000eee:	5c63      	ldrb	r3, [r4, r1]
10000ef0:	4033      	ands	r3, r6
10000ef2:	4303      	orrs	r3, r0
10000ef4:	5463      	strb	r3, [r4, r1]
10000ef6:	9b02      	ldr	r3, [sp, #8]
10000ef8:	1b5b      	subs	r3, r3, r5
10000efa:	1c19      	adds	r1, r3, #0
10000efc:	b21b      	sxth	r3, r3
10000efe:	469b      	mov	fp, r3
10000f00:	23f0      	movs	r3, #240	@ 0xf0
10000f02:	005b      	lsls	r3, r3, #1
10000f04:	459b      	cmp	fp, r3
10000f06:	db02      	blt.n	10000f0e <drawCircle+0x1b6>
10000f08:	23e0      	movs	r3, #224	@ 0xe0
10000f0a:	33ff      	adds	r3, #255	@ 0xff
10000f0c:	1c19      	adds	r1, r3, #0
10000f0e:	b209      	sxth	r1, r1
10000f10:	43cb      	mvns	r3, r1
10000f12:	17db      	asrs	r3, r3, #31
10000f14:	4019      	ands	r1, r3
10000f16:	008b      	lsls	r3, r1, #2
10000f18:	469b      	mov	fp, r3
10000f1a:	4459      	add	r1, fp
10000f1c:	01c9      	lsls	r1, r1, #7
10000f1e:	188a      	adds	r2, r1, r2
10000f20:	4217      	tst	r7, r2
10000f22:	d100      	bne.n	10000f26 <drawCircle+0x1ce>
10000f24:	e0fb      	b.n	1000111e <drawCircle+0x3c6>
10000f26:	4648      	mov	r0, r9
10000f28:	1052      	asrs	r2, r2, #1
10000f2a:	5ca3      	ldrb	r3, [r4, r2]
10000f2c:	4033      	ands	r3, r6
10000f2e:	4303      	orrs	r3, r0
10000f30:	54a3      	strb	r3, [r4, r2]
10000f32:	4451      	add	r1, sl
10000f34:	420f      	tst	r7, r1
10000f36:	d100      	bne.n	10000f3a <drawCircle+0x1e2>
10000f38:	e0ea      	b.n	10001110 <drawCircle+0x3b8>
10000f3a:	464b      	mov	r3, r9
10000f3c:	1049      	asrs	r1, r1, #1
10000f3e:	5c62      	ldrb	r2, [r4, r1]
10000f40:	4032      	ands	r2, r6
10000f42:	431a      	orrs	r2, r3
10000f44:	5462      	strb	r2, [r4, r1]
10000f46:	9b01      	ldr	r3, [sp, #4]
10000f48:	9902      	ldr	r1, [sp, #8]
10000f4a:	469a      	mov	sl, r3
10000f4c:	23f0      	movs	r3, #240	@ 0xf0
10000f4e:	4451      	add	r1, sl
10000f50:	1c0a      	adds	r2, r1, #0
10000f52:	b209      	sxth	r1, r1
10000f54:	005b      	lsls	r3, r3, #1
10000f56:	4299      	cmp	r1, r3
10000f58:	db02      	blt.n	10000f60 <drawCircle+0x208>
10000f5a:	23e0      	movs	r3, #224	@ 0xe0
10000f5c:	33ff      	adds	r3, #255	@ 0xff
10000f5e:	1c1a      	adds	r2, r3, #0
10000f60:	46aa      	mov	sl, r5
10000f62:	b212      	sxth	r2, r2
10000f64:	43d1      	mvns	r1, r2
10000f66:	44c2      	add	sl, r8
10000f68:	4653      	mov	r3, sl
10000f6a:	17c9      	asrs	r1, r1, #31
10000f6c:	400a      	ands	r2, r1
10000f6e:	0091      	lsls	r1, r2, #2
10000f70:	1889      	adds	r1, r1, r2
10000f72:	b21a      	sxth	r2, r3
10000f74:	43d2      	mvns	r2, r2
10000f76:	17d2      	asrs	r2, r2, #31
10000f78:	401a      	ands	r2, r3
10000f7a:	23a0      	movs	r3, #160	@ 0xa0
10000f7c:	b212      	sxth	r2, r2
10000f7e:	01c9      	lsls	r1, r1, #7
10000f80:	009b      	lsls	r3, r3, #2
10000f82:	429a      	cmp	r2, r3
10000f84:	db00      	blt.n	10000f88 <drawCircle+0x230>
10000f86:	4a5d      	ldr	r2, [pc, #372]	@ (100010fc <drawCircle+0x3a4>)
10000f88:	188b      	adds	r3, r1, r2
10000f8a:	421f      	tst	r7, r3
10000f8c:	d100      	bne.n	10000f90 <drawCircle+0x238>
10000f8e:	e0b9      	b.n	10001104 <drawCircle+0x3ac>
10000f90:	4648      	mov	r0, r9
10000f92:	105b      	asrs	r3, r3, #1
10000f94:	469a      	mov	sl, r3
10000f96:	5ce3      	ldrb	r3, [r4, r3]
10000f98:	4033      	ands	r3, r6
10000f9a:	4303      	orrs	r3, r0
10000f9c:	469b      	mov	fp, r3
10000f9e:	4653      	mov	r3, sl
10000fa0:	4658      	mov	r0, fp
10000fa2:	54e0      	strb	r0, [r4, r3]
10000fa4:	4643      	mov	r3, r8
10000fa6:	1b5b      	subs	r3, r3, r5
10000fa8:	b21d      	sxth	r5, r3
10000faa:	43ed      	mvns	r5, r5
10000fac:	17ed      	asrs	r5, r5, #31
10000fae:	401d      	ands	r5, r3
10000fb0:	23a0      	movs	r3, #160	@ 0xa0
10000fb2:	b22d      	sxth	r5, r5
10000fb4:	009b      	lsls	r3, r3, #2
10000fb6:	429d      	cmp	r5, r3
10000fb8:	db00      	blt.n	10000fbc <drawCircle+0x264>
10000fba:	4d50      	ldr	r5, [pc, #320]	@ (100010fc <drawCircle+0x3a4>)
10000fbc:	1869      	adds	r1, r5, r1
10000fbe:	420f      	tst	r7, r1
10000fc0:	d100      	bne.n	10000fc4 <drawCircle+0x26c>
10000fc2:	e093      	b.n	100010ec <drawCircle+0x394>
10000fc4:	4648      	mov	r0, r9
10000fc6:	1049      	asrs	r1, r1, #1
10000fc8:	5c63      	ldrb	r3, [r4, r1]
10000fca:	4033      	ands	r3, r6
10000fcc:	4303      	orrs	r3, r0
10000fce:	5463      	strb	r3, [r4, r1]
10000fd0:	9b02      	ldr	r3, [sp, #8]
10000fd2:	9901      	ldr	r1, [sp, #4]
10000fd4:	1a58      	subs	r0, r3, r1
10000fd6:	23f0      	movs	r3, #240	@ 0xf0
10000fd8:	1c01      	adds	r1, r0, #0
10000fda:	b200      	sxth	r0, r0
10000fdc:	005b      	lsls	r3, r3, #1
10000fde:	4298      	cmp	r0, r3
10000fe0:	db02      	blt.n	10000fe8 <drawCircle+0x290>
10000fe2:	23e0      	movs	r3, #224	@ 0xe0
10000fe4:	33ff      	adds	r3, #255	@ 0xff
10000fe6:	1c19      	adds	r1, r3, #0
10000fe8:	b209      	sxth	r1, r1
10000fea:	43c8      	mvns	r0, r1
10000fec:	17c0      	asrs	r0, r0, #31
10000fee:	4001      	ands	r1, r0
10000ff0:	0088      	lsls	r0, r1, #2
10000ff2:	1841      	adds	r1, r0, r1
10000ff4:	01c9      	lsls	r1, r1, #7
10000ff6:	188a      	adds	r2, r1, r2
10000ff8:	4217      	tst	r7, r2
10000ffa:	d069      	beq.n	100010d0 <drawCircle+0x378>
10000ffc:	464b      	mov	r3, r9
10000ffe:	1052      	asrs	r2, r2, #1
10001000:	5ca0      	ldrb	r0, [r4, r2]
10001002:	4030      	ands	r0, r6
10001004:	4318      	orrs	r0, r3
10001006:	54a0      	strb	r0, [r4, r2]
10001008:	1949      	adds	r1, r1, r5
1000100a:	420f      	tst	r7, r1
1000100c:	d04f      	beq.n	100010ae <drawCircle+0x356>
1000100e:	464b      	mov	r3, r9
10001010:	1049      	asrs	r1, r1, #1
10001012:	5c62      	ldrb	r2, [r4, r1]
10001014:	4032      	ands	r2, r6
10001016:	431a      	orrs	r2, r3
10001018:	5462      	strb	r2, [r4, r1]
1000101a:	9b05      	ldr	r3, [sp, #20]
1000101c:	9a03      	ldr	r2, [sp, #12]
1000101e:	4293      	cmp	r3, r2
10001020:	dd4f      	ble.n	100010c2 <drawCircle+0x36a>
10001022:	9b06      	ldr	r3, [sp, #24]
10001024:	2b00      	cmp	r3, #0
10001026:	da00      	bge.n	1000102a <drawCircle+0x2d2>
10001028:	e080      	b.n	1000112c <drawCircle+0x3d4>
1000102a:	9a05      	ldr	r2, [sp, #20]
1000102c:	3a01      	subs	r2, #1
1000102e:	b213      	sxth	r3, r2
10001030:	b295      	uxth	r5, r2
10001032:	9a07      	ldr	r2, [sp, #28]
10001034:	9305      	str	r3, [sp, #20]
10001036:	3202      	adds	r2, #2
10001038:	b213      	sxth	r3, r2
1000103a:	9307      	str	r3, [sp, #28]
1000103c:	9b06      	ldr	r3, [sp, #24]
1000103e:	469a      	mov	sl, r3
10001040:	4452      	add	r2, sl
10001042:	b292      	uxth	r2, r2
10001044:	9903      	ldr	r1, [sp, #12]
10001046:	3101      	adds	r1, #1
10001048:	b288      	uxth	r0, r1
1000104a:	b20b      	sxth	r3, r1
1000104c:	0041      	lsls	r1, r0, #1
1000104e:	3101      	adds	r1, #1
10001050:	1852      	adds	r2, r2, r1
10001052:	9303      	str	r3, [sp, #12]
10001054:	b213      	sxth	r3, r2
10001056:	9306      	str	r3, [sp, #24]
10001058:	9b02      	ldr	r3, [sp, #8]
1000105a:	9001      	str	r0, [sp, #4]
1000105c:	1959      	adds	r1, r3, r5
1000105e:	23f0      	movs	r3, #240	@ 0xf0
10001060:	1c0a      	adds	r2, r1, #0
10001062:	b209      	sxth	r1, r1
10001064:	005b      	lsls	r3, r3, #1
10001066:	4299      	cmp	r1, r3
10001068:	db02      	blt.n	10001070 <drawCircle+0x318>
1000106a:	23e0      	movs	r3, #224	@ 0xe0
1000106c:	33ff      	adds	r3, #255	@ 0xff
1000106e:	1c1a      	adds	r2, r3, #0
10001070:	b212      	sxth	r2, r2
10001072:	43d1      	mvns	r1, r2
10001074:	9801      	ldr	r0, [sp, #4]
10001076:	17c9      	asrs	r1, r1, #31
10001078:	400a      	ands	r2, r1
1000107a:	0091      	lsls	r1, r2, #2
1000107c:	4440      	add	r0, r8
1000107e:	1889      	adds	r1, r1, r2
10001080:	b202      	sxth	r2, r0
10001082:	43d2      	mvns	r2, r2
10001084:	01cb      	lsls	r3, r1, #7
10001086:	9304      	str	r3, [sp, #16]
10001088:	23a0      	movs	r3, #160	@ 0xa0
1000108a:	17d2      	asrs	r2, r2, #31
1000108c:	4002      	ands	r2, r0
1000108e:	b212      	sxth	r2, r2
10001090:	009b      	lsls	r3, r3, #2
10001092:	429a      	cmp	r2, r3
10001094:	db00      	blt.n	10001098 <drawCircle+0x340>
10001096:	4a19      	ldr	r2, [pc, #100]	@ (100010fc <drawCircle+0x3a4>)
10001098:	9b04      	ldr	r3, [sp, #16]
1000109a:	189b      	adds	r3, r3, r2
1000109c:	421f      	tst	r7, r3
1000109e:	d000      	beq.n	100010a2 <drawCircle+0x34a>
100010a0:	e701      	b.n	10000ea6 <drawCircle+0x14e>
100010a2:	105b      	asrs	r3, r3, #1
100010a4:	469a      	mov	sl, r3
100010a6:	5ce3      	ldrb	r3, [r4, r3]
100010a8:	4661      	mov	r1, ip
100010aa:	43b3      	bics	r3, r6
100010ac:	e700      	b.n	10000eb0 <drawCircle+0x158>
100010ae:	4663      	mov	r3, ip
100010b0:	1049      	asrs	r1, r1, #1
100010b2:	5c62      	ldrb	r2, [r4, r1]
100010b4:	43b2      	bics	r2, r6
100010b6:	431a      	orrs	r2, r3
100010b8:	5462      	strb	r2, [r4, r1]
100010ba:	9b05      	ldr	r3, [sp, #20]
100010bc:	9a03      	ldr	r2, [sp, #12]
100010be:	4293      	cmp	r3, r2
100010c0:	dcaf      	bgt.n	10001022 <drawCircle+0x2ca>
100010c2:	b009      	add	sp, #36	@ 0x24
100010c4:	bcf0      	pop	{r4, r5, r6, r7}
100010c6:	46bb      	mov	fp, r7
100010c8:	46b2      	mov	sl, r6
100010ca:	46a9      	mov	r9, r5
100010cc:	46a0      	mov	r8, r4
100010ce:	bdf0      	pop	{r4, r5, r6, r7, pc}
100010d0:	4663      	mov	r3, ip
100010d2:	1052      	asrs	r2, r2, #1
100010d4:	5ca0      	ldrb	r0, [r4, r2]
100010d6:	43b0      	bics	r0, r6
100010d8:	4318      	orrs	r0, r3
100010da:	54a0      	strb	r0, [r4, r2]
100010dc:	e794      	b.n	10001008 <drawCircle+0x2b0>
100010de:	4660      	mov	r0, ip
100010e0:	1049      	asrs	r1, r1, #1
100010e2:	5c63      	ldrb	r3, [r4, r1]
100010e4:	43b3      	bics	r3, r6
100010e6:	4303      	orrs	r3, r0
100010e8:	5463      	strb	r3, [r4, r1]
100010ea:	e704      	b.n	10000ef6 <drawCircle+0x19e>
100010ec:	4660      	mov	r0, ip
100010ee:	1049      	asrs	r1, r1, #1
100010f0:	5c63      	ldrb	r3, [r4, r1]
100010f2:	43b3      	bics	r3, r6
100010f4:	4303      	orrs	r3, r0
100010f6:	5463      	strb	r3, [r4, r1]
100010f8:	e76a      	b.n	10000fd0 <drawCircle+0x278>
100010fa:	46c0      	nop			@ (mov r8, r8)
100010fc:	0000027f 	.word	0x0000027f
10001100:	20000aa4 	.word	0x20000aa4
10001104:	105b      	asrs	r3, r3, #1
10001106:	469a      	mov	sl, r3
10001108:	5ce3      	ldrb	r3, [r4, r3]
1000110a:	4660      	mov	r0, ip
1000110c:	43b3      	bics	r3, r6
1000110e:	e744      	b.n	10000f9a <drawCircle+0x242>
10001110:	4663      	mov	r3, ip
10001112:	1049      	asrs	r1, r1, #1
10001114:	5c62      	ldrb	r2, [r4, r1]
10001116:	43b2      	bics	r2, r6
10001118:	431a      	orrs	r2, r3
1000111a:	5462      	strb	r2, [r4, r1]
1000111c:	e713      	b.n	10000f46 <drawCircle+0x1ee>
1000111e:	4660      	mov	r0, ip
10001120:	1052      	asrs	r2, r2, #1
10001122:	5ca3      	ldrb	r3, [r4, r2]
10001124:	43b3      	bics	r3, r6
10001126:	4303      	orrs	r3, r0
10001128:	54a3      	strb	r3, [r4, r2]
1000112a:	e702      	b.n	10000f32 <drawCircle+0x1da>
1000112c:	b29a      	uxth	r2, r3
1000112e:	466b      	mov	r3, sp
10001130:	8a9d      	ldrh	r5, [r3, #20]
10001132:	e787      	b.n	10001044 <drawCircle+0x2ec>
10001134:	200f      	movs	r0, #15
10001136:	5c62      	ldrb	r2, [r4, r1]
10001138:	4382      	bics	r2, r0
1000113a:	4660      	mov	r0, ip
1000113c:	4302      	orrs	r2, r0
1000113e:	5462      	strb	r2, [r4, r1]
10001140:	e6a1      	b.n	10000e86 <drawCircle+0x12e>
10001142:	260f      	movs	r6, #15
10001144:	5c22      	ldrb	r2, [r4, r0]
10001146:	43b2      	bics	r2, r6
10001148:	4666      	mov	r6, ip
1000114a:	4332      	orrs	r2, r6
1000114c:	5422      	strb	r2, [r4, r0]
1000114e:	e683      	b.n	10000e58 <drawCircle+0x100>
10001150:	260f      	movs	r6, #15
10001152:	5ce2      	ldrb	r2, [r4, r3]
10001154:	43b2      	bics	r2, r6
10001156:	4666      	mov	r6, ip
10001158:	4332      	orrs	r2, r6
1000115a:	54e2      	strb	r2, [r4, r3]
1000115c:	e656      	b.n	10000e0c <drawCircle+0xb4>
1000115e:	270f      	movs	r7, #15
10001160:	4c03      	ldr	r4, [pc, #12]	@ (10001170 <drawCircle+0x418>)
10001162:	5ce6      	ldrb	r6, [r4, r3]
10001164:	43be      	bics	r6, r7
10001166:	4667      	mov	r7, ip
10001168:	433e      	orrs	r6, r7
1000116a:	54e6      	strb	r6, [r4, r3]
1000116c:	e630      	b.n	10000dd0 <drawCircle+0x78>
1000116e:	46c0      	nop			@ (mov r8, r8)
10001170:	20000aa4 	.word	0x20000aa4

10001174 <fillCircle>:
10001174:	b5f0      	push	{r4, r5, r6, r7, lr}
10001176:	4657      	mov	r7, sl
10001178:	464e      	mov	r6, r9
1000117a:	46de      	mov	lr, fp
1000117c:	4645      	mov	r5, r8
1000117e:	b5e0      	push	{r5, r6, r7, lr}
10001180:	b08d      	sub	sp, #52	@ 0x34
10001182:	9204      	str	r2, [sp, #16]
10001184:	b292      	uxth	r2, r2
10001186:	4691      	mov	r9, r2
10001188:	9302      	str	r3, [sp, #8]
1000118a:	b28b      	uxth	r3, r1
1000118c:	1a9a      	subs	r2, r3, r2
1000118e:	9307      	str	r3, [sp, #28]
10001190:	464b      	mov	r3, r9
10001192:	005b      	lsls	r3, r3, #1
10001194:	b29b      	uxth	r3, r3
10001196:	1c5c      	adds	r4, r3, #1
10001198:	b212      	sxth	r2, r2
1000119a:	b224      	sxth	r4, r4
1000119c:	18a4      	adds	r4, r4, r2
1000119e:	469a      	mov	sl, r3
100011a0:	42a2      	cmp	r2, r4
100011a2:	da3c      	bge.n	1000121e <fillCircle+0xaa>
100011a4:	9b02      	ldr	r3, [sp, #8]
100011a6:	43c5      	mvns	r5, r0
100011a8:	011b      	lsls	r3, r3, #4
100011aa:	b2db      	uxtb	r3, r3
100011ac:	4698      	mov	r8, r3
100011ae:	23a0      	movs	r3, #160	@ 0xa0
100011b0:	17ed      	asrs	r5, r5, #31
100011b2:	009b      	lsls	r3, r3, #2
100011b4:	4005      	ands	r5, r0
100011b6:	429d      	cmp	r5, r3
100011b8:	db00      	blt.n	100011bc <fillCircle+0x48>
100011ba:	e192      	b.n	100014e2 <fillCircle+0x36e>
100011bc:	230f      	movs	r3, #15
100011be:	27f0      	movs	r7, #240	@ 0xf0
100011c0:	469c      	mov	ip, r3
100011c2:	4643      	mov	r3, r8
100011c4:	49c8      	ldr	r1, [pc, #800]	@ (100014e8 <fillCircle+0x374>)
100011c6:	4680      	mov	r8, r0
100011c8:	007f      	lsls	r7, r7, #1
100011ca:	9301      	str	r3, [sp, #4]
100011cc:	e00a      	b.n	100011e4 <fillCircle+0x70>
100011ce:	4666      	mov	r6, ip
100011d0:	105b      	asrs	r3, r3, #1
100011d2:	5cc8      	ldrb	r0, [r1, r3]
100011d4:	3201      	adds	r2, #1
100011d6:	4030      	ands	r0, r6
100011d8:	9e01      	ldr	r6, [sp, #4]
100011da:	b212      	sxth	r2, r2
100011dc:	4330      	orrs	r0, r6
100011de:	54c8      	strb	r0, [r1, r3]
100011e0:	42a2      	cmp	r2, r4
100011e2:	da1b      	bge.n	1000121c <fillCircle+0xa8>
100011e4:	1c10      	adds	r0, r2, #0
100011e6:	42ba      	cmp	r2, r7
100011e8:	db02      	blt.n	100011f0 <fillCircle+0x7c>
100011ea:	23e0      	movs	r3, #224	@ 0xe0
100011ec:	33ff      	adds	r3, #255	@ 0xff
100011ee:	1c18      	adds	r0, r3, #0
100011f0:	b200      	sxth	r0, r0
100011f2:	43c3      	mvns	r3, r0
100011f4:	17db      	asrs	r3, r3, #31
100011f6:	4018      	ands	r0, r3
100011f8:	0083      	lsls	r3, r0, #2
100011fa:	181b      	adds	r3, r3, r0
100011fc:	2001      	movs	r0, #1
100011fe:	01db      	lsls	r3, r3, #7
10001200:	195b      	adds	r3, r3, r5
10001202:	4218      	tst	r0, r3
10001204:	d1e3      	bne.n	100011ce <fillCircle+0x5a>
10001206:	4666      	mov	r6, ip
10001208:	105b      	asrs	r3, r3, #1
1000120a:	5cc8      	ldrb	r0, [r1, r3]
1000120c:	3201      	adds	r2, #1
1000120e:	43b0      	bics	r0, r6
10001210:	9e02      	ldr	r6, [sp, #8]
10001212:	b212      	sxth	r2, r2
10001214:	4330      	orrs	r0, r6
10001216:	54c8      	strb	r0, [r1, r3]
10001218:	42a2      	cmp	r2, r4
1000121a:	dbe3      	blt.n	100011e4 <fillCircle+0x70>
1000121c:	4640      	mov	r0, r8
1000121e:	2301      	movs	r3, #1
10001220:	464a      	mov	r2, r9
10001222:	1a9b      	subs	r3, r3, r2
10001224:	b21b      	sxth	r3, r3
10001226:	9305      	str	r3, [sp, #20]
10001228:	4653      	mov	r3, sl
1000122a:	425b      	negs	r3, r3
1000122c:	b21b      	sxth	r3, r3
1000122e:	9308      	str	r3, [sp, #32]
10001230:	9b04      	ldr	r3, [sp, #16]
10001232:	2b00      	cmp	r3, #0
10001234:	dc00      	bgt.n	10001238 <fillCircle+0xc4>
10001236:	e13b      	b.n	100014b0 <fillCircle+0x33c>
10001238:	9b02      	ldr	r3, [sp, #8]
1000123a:	011b      	lsls	r3, r3, #4
1000123c:	b2db      	uxtb	r3, r3
1000123e:	9301      	str	r3, [sp, #4]
10001240:	b283      	uxth	r3, r0
10001242:	9306      	str	r3, [sp, #24]
10001244:	2300      	movs	r3, #0
10001246:	9303      	str	r3, [sp, #12]
10001248:	33e1      	adds	r3, #225	@ 0xe1
1000124a:	33ff      	adds	r3, #255	@ 0xff
1000124c:	469c      	mov	ip, r3
1000124e:	3bd2      	subs	r3, #210	@ 0xd2
10001250:	3bff      	subs	r3, #255	@ 0xff
10001252:	469a      	mov	sl, r3
10001254:	4ba4      	ldr	r3, [pc, #656]	@ (100014e8 <fillCircle+0x374>)
10001256:	4699      	mov	r9, r3
10001258:	9b05      	ldr	r3, [sp, #20]
1000125a:	2b00      	cmp	r3, #0
1000125c:	da00      	bge.n	10001260 <fillCircle+0xec>
1000125e:	e12e      	b.n	100014be <fillCircle+0x34a>
10001260:	9b04      	ldr	r3, [sp, #16]
10001262:	3b01      	subs	r3, #1
10001264:	b29a      	uxth	r2, r3
10001266:	4693      	mov	fp, r2
10001268:	9a08      	ldr	r2, [sp, #32]
1000126a:	b21b      	sxth	r3, r3
1000126c:	3202      	adds	r2, #2
1000126e:	9304      	str	r3, [sp, #16]
10001270:	b213      	sxth	r3, r2
10001272:	9308      	str	r3, [sp, #32]
10001274:	9b05      	ldr	r3, [sp, #20]
10001276:	4698      	mov	r8, r3
10001278:	4442      	add	r2, r8
1000127a:	b292      	uxth	r2, r2
1000127c:	4658      	mov	r0, fp
1000127e:	9903      	ldr	r1, [sp, #12]
10001280:	0045      	lsls	r5, r0, #1
10001282:	3101      	adds	r1, #1
10001284:	b28b      	uxth	r3, r1
10001286:	005e      	lsls	r6, r3, #1
10001288:	3601      	adds	r6, #1
1000128a:	b2b6      	uxth	r6, r6
1000128c:	18b2      	adds	r2, r6, r2
1000128e:	b212      	sxth	r2, r2
10001290:	9205      	str	r2, [sp, #20]
10001292:	9a06      	ldr	r2, [sp, #24]
10001294:	b209      	sxth	r1, r1
10001296:	9103      	str	r1, [sp, #12]
10001298:	1899      	adds	r1, r3, r2
1000129a:	9a07      	ldr	r2, [sp, #28]
1000129c:	3501      	adds	r5, #1
1000129e:	1a12      	subs	r2, r2, r0
100012a0:	b212      	sxth	r2, r2
100012a2:	b22d      	sxth	r5, r5
100012a4:	18ad      	adds	r5, r5, r2
100012a6:	b209      	sxth	r1, r1
100012a8:	4295      	cmp	r5, r2
100012aa:	dc00      	bgt.n	100012ae <fillCircle+0x13a>
100012ac:	e110      	b.n	100014d0 <fillCircle+0x35c>
100012ae:	43c8      	mvns	r0, r1
100012b0:	17c0      	asrs	r0, r0, #31
100012b2:	4008      	ands	r0, r1
100012b4:	21a0      	movs	r1, #160	@ 0xa0
100012b6:	4680      	mov	r8, r0
100012b8:	0089      	lsls	r1, r1, #2
100012ba:	4288      	cmp	r0, r1
100012bc:	db01      	blt.n	100012c2 <fillCircle+0x14e>
100012be:	498b      	ldr	r1, [pc, #556]	@ (100014ec <fillCircle+0x378>)
100012c0:	4688      	mov	r8, r1
100012c2:	4659      	mov	r1, fp
100012c4:	464c      	mov	r4, r9
100012c6:	9109      	str	r1, [sp, #36]	@ 0x24
100012c8:	4641      	mov	r1, r8
100012ca:	0010      	movs	r0, r2
100012cc:	4690      	mov	r8, r2
100012ce:	4699      	mov	r9, r3
100012d0:	000a      	movs	r2, r1
100012d2:	0023      	movs	r3, r4
100012d4:	940a      	str	r4, [sp, #40]	@ 0x28
100012d6:	e00a      	b.n	100012ee <fillCircle+0x17a>
100012d8:	4657      	mov	r7, sl
100012da:	1049      	asrs	r1, r1, #1
100012dc:	5c5c      	ldrb	r4, [r3, r1]
100012de:	3001      	adds	r0, #1
100012e0:	403c      	ands	r4, r7
100012e2:	9f01      	ldr	r7, [sp, #4]
100012e4:	b200      	sxth	r0, r0
100012e6:	433c      	orrs	r4, r7
100012e8:	545c      	strb	r4, [r3, r1]
100012ea:	4285      	cmp	r5, r0
100012ec:	dd1b      	ble.n	10001326 <fillCircle+0x1b2>
100012ee:	1c04      	adds	r4, r0, #0
100012f0:	4560      	cmp	r0, ip
100012f2:	db02      	blt.n	100012fa <fillCircle+0x186>
100012f4:	21e0      	movs	r1, #224	@ 0xe0
100012f6:	31ff      	adds	r1, #255	@ 0xff
100012f8:	1c0c      	adds	r4, r1, #0
100012fa:	b224      	sxth	r4, r4
100012fc:	43e1      	mvns	r1, r4
100012fe:	17c9      	asrs	r1, r1, #31
10001300:	400c      	ands	r4, r1
10001302:	00a1      	lsls	r1, r4, #2
10001304:	1909      	adds	r1, r1, r4
10001306:	2401      	movs	r4, #1
10001308:	01c9      	lsls	r1, r1, #7
1000130a:	1889      	adds	r1, r1, r2
1000130c:	420c      	tst	r4, r1
1000130e:	d1e3      	bne.n	100012d8 <fillCircle+0x164>
10001310:	4657      	mov	r7, sl
10001312:	1049      	asrs	r1, r1, #1
10001314:	5c5c      	ldrb	r4, [r3, r1]
10001316:	3001      	adds	r0, #1
10001318:	43bc      	bics	r4, r7
1000131a:	9f02      	ldr	r7, [sp, #8]
1000131c:	b200      	sxth	r0, r0
1000131e:	433c      	orrs	r4, r7
10001320:	545c      	strb	r4, [r3, r1]
10001322:	4285      	cmp	r5, r0
10001324:	dce3      	bgt.n	100012ee <fillCircle+0x17a>
10001326:	0019      	movs	r1, r3
10001328:	464b      	mov	r3, r9
1000132a:	4689      	mov	r9, r1
1000132c:	9907      	ldr	r1, [sp, #28]
1000132e:	9a09      	ldr	r2, [sp, #36]	@ 0x24
10001330:	1ac9      	subs	r1, r1, r3
10001332:	b209      	sxth	r1, r1
10001334:	b236      	sxth	r6, r6
10001336:	1876      	adds	r6, r6, r1
10001338:	4693      	mov	fp, r2
1000133a:	9c0a      	ldr	r4, [sp, #40]	@ 0x28
1000133c:	4642      	mov	r2, r8
1000133e:	428e      	cmp	r6, r1
10001340:	dd45      	ble.n	100013ce <fillCircle+0x25a>
10001342:	9806      	ldr	r0, [sp, #24]
10001344:	4458      	add	r0, fp
10001346:	4680      	mov	r8, r0
10001348:	b200      	sxth	r0, r0
1000134a:	43c0      	mvns	r0, r0
1000134c:	4647      	mov	r7, r8
1000134e:	17c0      	asrs	r0, r0, #31
10001350:	4038      	ands	r0, r7
10001352:	b200      	sxth	r0, r0
10001354:	4680      	mov	r8, r0
10001356:	20a0      	movs	r0, #160	@ 0xa0
10001358:	0080      	lsls	r0, r0, #2
1000135a:	4580      	cmp	r8, r0
1000135c:	db01      	blt.n	10001362 <fillCircle+0x1ee>
1000135e:	4863      	ldr	r0, [pc, #396]	@ (100014ec <fillCircle+0x378>)
10001360:	4680      	mov	r8, r0
10001362:	9509      	str	r5, [sp, #36]	@ 0x24
10001364:	920b      	str	r2, [sp, #44]	@ 0x2c
10001366:	465d      	mov	r5, fp
10001368:	4642      	mov	r2, r8
1000136a:	0008      	movs	r0, r1
1000136c:	4698      	mov	r8, r3
1000136e:	950a      	str	r5, [sp, #40]	@ 0x28
10001370:	0013      	movs	r3, r2
10001372:	e00a      	b.n	1000138a <fillCircle+0x216>
10001374:	4657      	mov	r7, sl
10001376:	106d      	asrs	r5, r5, #1
10001378:	5d62      	ldrb	r2, [r4, r5]
1000137a:	3001      	adds	r0, #1
1000137c:	403a      	ands	r2, r7
1000137e:	9f01      	ldr	r7, [sp, #4]
10001380:	b200      	sxth	r0, r0
10001382:	433a      	orrs	r2, r7
10001384:	5562      	strb	r2, [r4, r5]
10001386:	4286      	cmp	r6, r0
10001388:	dd1a      	ble.n	100013c0 <fillCircle+0x24c>
1000138a:	1c02      	adds	r2, r0, #0
1000138c:	4560      	cmp	r0, ip
1000138e:	db01      	blt.n	10001394 <fillCircle+0x220>
10001390:	22e0      	movs	r2, #224	@ 0xe0
10001392:	32ff      	adds	r2, #255	@ 0xff
10001394:	b212      	sxth	r2, r2
10001396:	43d5      	mvns	r5, r2
10001398:	17ed      	asrs	r5, r5, #31
1000139a:	402a      	ands	r2, r5
1000139c:	0095      	lsls	r5, r2, #2
1000139e:	18ad      	adds	r5, r5, r2
100013a0:	2201      	movs	r2, #1
100013a2:	01ed      	lsls	r5, r5, #7
100013a4:	18ed      	adds	r5, r5, r3
100013a6:	422a      	tst	r2, r5
100013a8:	d1e4      	bne.n	10001374 <fillCircle+0x200>
100013aa:	4657      	mov	r7, sl
100013ac:	106d      	asrs	r5, r5, #1
100013ae:	5d62      	ldrb	r2, [r4, r5]
100013b0:	3001      	adds	r0, #1
100013b2:	43ba      	bics	r2, r7
100013b4:	9f02      	ldr	r7, [sp, #8]
100013b6:	b200      	sxth	r0, r0
100013b8:	433a      	orrs	r2, r7
100013ba:	5562      	strb	r2, [r4, r5]
100013bc:	4286      	cmp	r6, r0
100013be:	dce4      	bgt.n	1000138a <fillCircle+0x216>
100013c0:	9b0a      	ldr	r3, [sp, #40]	@ 0x28
100013c2:	9d09      	ldr	r5, [sp, #36]	@ 0x24
100013c4:	9a0b      	ldr	r2, [sp, #44]	@ 0x2c
100013c6:	469b      	mov	fp, r3
100013c8:	4643      	mov	r3, r8
100013ca:	4295      	cmp	r5, r2
100013cc:	dd36      	ble.n	1000143c <fillCircle+0x2c8>
100013ce:	9806      	ldr	r0, [sp, #24]
100013d0:	1ac3      	subs	r3, r0, r3
100013d2:	b218      	sxth	r0, r3
100013d4:	43c3      	mvns	r3, r0
100013d6:	17db      	asrs	r3, r3, #31
100013d8:	4003      	ands	r3, r0
100013da:	20a0      	movs	r0, #160	@ 0xa0
100013dc:	0080      	lsls	r0, r0, #2
100013de:	4283      	cmp	r3, r0
100013e0:	da00      	bge.n	100013e4 <fillCircle+0x270>
100013e2:	e071      	b.n	100014c8 <fillCircle+0x354>
100013e4:	4b41      	ldr	r3, [pc, #260]	@ (100014ec <fillCircle+0x378>)
100013e6:	9109      	str	r1, [sp, #36]	@ 0x24
100013e8:	e00a      	b.n	10001400 <fillCircle+0x28c>
100013ea:	4657      	mov	r7, sl
100013ec:	1040      	asrs	r0, r0, #1
100013ee:	5c21      	ldrb	r1, [r4, r0]
100013f0:	3201      	adds	r2, #1
100013f2:	4039      	ands	r1, r7
100013f4:	9f01      	ldr	r7, [sp, #4]
100013f6:	b212      	sxth	r2, r2
100013f8:	4339      	orrs	r1, r7
100013fa:	5421      	strb	r1, [r4, r0]
100013fc:	4295      	cmp	r5, r2
100013fe:	dd1a      	ble.n	10001436 <fillCircle+0x2c2>
10001400:	1c11      	adds	r1, r2, #0
10001402:	4562      	cmp	r2, ip
10001404:	db01      	blt.n	1000140a <fillCircle+0x296>
10001406:	21e0      	movs	r1, #224	@ 0xe0
10001408:	31ff      	adds	r1, #255	@ 0xff
1000140a:	b209      	sxth	r1, r1
1000140c:	43c8      	mvns	r0, r1
1000140e:	17c0      	asrs	r0, r0, #31
10001410:	4001      	ands	r1, r0
10001412:	0088      	lsls	r0, r1, #2
10001414:	1840      	adds	r0, r0, r1
10001416:	2101      	movs	r1, #1
10001418:	01c0      	lsls	r0, r0, #7
1000141a:	18c0      	adds	r0, r0, r3
1000141c:	4201      	tst	r1, r0
1000141e:	d1e4      	bne.n	100013ea <fillCircle+0x276>
10001420:	4657      	mov	r7, sl
10001422:	1040      	asrs	r0, r0, #1
10001424:	5c21      	ldrb	r1, [r4, r0]
10001426:	3201      	adds	r2, #1
10001428:	43b9      	bics	r1, r7
1000142a:	9f02      	ldr	r7, [sp, #8]
1000142c:	b212      	sxth	r2, r2
1000142e:	4339      	orrs	r1, r7
10001430:	5421      	strb	r1, [r4, r0]
10001432:	4295      	cmp	r5, r2
10001434:	dce4      	bgt.n	10001400 <fillCircle+0x28c>
10001436:	9909      	ldr	r1, [sp, #36]	@ 0x24
10001438:	428e      	cmp	r6, r1
1000143a:	dd34      	ble.n	100014a6 <fillCircle+0x332>
1000143c:	465a      	mov	r2, fp
1000143e:	9b06      	ldr	r3, [sp, #24]
10001440:	1a9b      	subs	r3, r3, r2
10001442:	b21a      	sxth	r2, r3
10001444:	43d2      	mvns	r2, r2
10001446:	17d2      	asrs	r2, r2, #31
10001448:	401a      	ands	r2, r3
1000144a:	23a0      	movs	r3, #160	@ 0xa0
1000144c:	b212      	sxth	r2, r2
1000144e:	009b      	lsls	r3, r3, #2
10001450:	429a      	cmp	r2, r3
10001452:	db3b      	blt.n	100014cc <fillCircle+0x358>
10001454:	4a25      	ldr	r2, [pc, #148]	@ (100014ec <fillCircle+0x378>)
10001456:	9d02      	ldr	r5, [sp, #8]
10001458:	e00a      	b.n	10001470 <fillCircle+0x2fc>
1000145a:	4657      	mov	r7, sl
1000145c:	105b      	asrs	r3, r3, #1
1000145e:	5ce0      	ldrb	r0, [r4, r3]
10001460:	3101      	adds	r1, #1
10001462:	4038      	ands	r0, r7
10001464:	9f01      	ldr	r7, [sp, #4]
10001466:	b209      	sxth	r1, r1
10001468:	4338      	orrs	r0, r7
1000146a:	54e0      	strb	r0, [r4, r3]
1000146c:	428e      	cmp	r6, r1
1000146e:	dd1a      	ble.n	100014a6 <fillCircle+0x332>
10001470:	1c08      	adds	r0, r1, #0
10001472:	4561      	cmp	r1, ip
10001474:	db02      	blt.n	1000147c <fillCircle+0x308>
10001476:	23e0      	movs	r3, #224	@ 0xe0
10001478:	33ff      	adds	r3, #255	@ 0xff
1000147a:	1c18      	adds	r0, r3, #0
1000147c:	b200      	sxth	r0, r0
1000147e:	43c3      	mvns	r3, r0
10001480:	17db      	asrs	r3, r3, #31
10001482:	4018      	ands	r0, r3
10001484:	0083      	lsls	r3, r0, #2
10001486:	181b      	adds	r3, r3, r0
10001488:	2001      	movs	r0, #1
1000148a:	01db      	lsls	r3, r3, #7
1000148c:	189b      	adds	r3, r3, r2
1000148e:	4218      	tst	r0, r3
10001490:	d1e3      	bne.n	1000145a <fillCircle+0x2e6>
10001492:	4657      	mov	r7, sl
10001494:	105b      	asrs	r3, r3, #1
10001496:	5ce0      	ldrb	r0, [r4, r3]
10001498:	3101      	adds	r1, #1
1000149a:	43b8      	bics	r0, r7
1000149c:	4328      	orrs	r0, r5
1000149e:	b209      	sxth	r1, r1
100014a0:	54e0      	strb	r0, [r4, r3]
100014a2:	428e      	cmp	r6, r1
100014a4:	dce4      	bgt.n	10001470 <fillCircle+0x2fc>
100014a6:	9b03      	ldr	r3, [sp, #12]
100014a8:	9a04      	ldr	r2, [sp, #16]
100014aa:	4293      	cmp	r3, r2
100014ac:	da00      	bge.n	100014b0 <fillCircle+0x33c>
100014ae:	e6d3      	b.n	10001258 <fillCircle+0xe4>
100014b0:	b00d      	add	sp, #52	@ 0x34
100014b2:	bcf0      	pop	{r4, r5, r6, r7}
100014b4:	46bb      	mov	fp, r7
100014b6:	46b2      	mov	sl, r6
100014b8:	46a9      	mov	r9, r5
100014ba:	46a0      	mov	r8, r4
100014bc:	bdf0      	pop	{r4, r5, r6, r7, pc}
100014be:	466a      	mov	r2, sp
100014c0:	8a12      	ldrh	r2, [r2, #16]
100014c2:	4693      	mov	fp, r2
100014c4:	b29a      	uxth	r2, r3
100014c6:	e6d9      	b.n	1000127c <fillCircle+0x108>
100014c8:	9109      	str	r1, [sp, #36]	@ 0x24
100014ca:	e799      	b.n	10001400 <fillCircle+0x28c>
100014cc:	9d02      	ldr	r5, [sp, #8]
100014ce:	e7cf      	b.n	10001470 <fillCircle+0x2fc>
100014d0:	9907      	ldr	r1, [sp, #28]
100014d2:	b236      	sxth	r6, r6
100014d4:	1ac9      	subs	r1, r1, r3
100014d6:	b209      	sxth	r1, r1
100014d8:	1876      	adds	r6, r6, r1
100014da:	42b1      	cmp	r1, r6
100014dc:	dae3      	bge.n	100014a6 <fillCircle+0x332>
100014de:	4c02      	ldr	r4, [pc, #8]	@ (100014e8 <fillCircle+0x374>)
100014e0:	e72f      	b.n	10001342 <fillCircle+0x1ce>
100014e2:	4d02      	ldr	r5, [pc, #8]	@ (100014ec <fillCircle+0x378>)
100014e4:	e66a      	b.n	100011bc <fillCircle+0x48>
100014e6:	46c0      	nop			@ (mov r8, r8)
100014e8:	20000aa4 	.word	0x20000aa4
100014ec:	0000027f 	.word	0x0000027f

100014f0 <fillRect>:
100014f0:	b5f0      	push	{r4, r5, r6, r7, lr}
100014f2:	4657      	mov	r7, sl
100014f4:	4645      	mov	r5, r8
100014f6:	46de      	mov	lr, fp
100014f8:	464e      	mov	r6, r9
100014fa:	4684      	mov	ip, r0
100014fc:	b5e0      	push	{r5, r6, r7, lr}
100014fe:	b083      	sub	sp, #12
10001500:	4688      	mov	r8, r1
10001502:	a90c      	add	r1, sp, #48	@ 0x30
10001504:	7809      	ldrb	r1, [r1, #0]
10001506:	4494      	add	ip, r2
10001508:	468a      	mov	sl, r1
1000150a:	0001      	movs	r1, r0
1000150c:	4560      	cmp	r0, ip
1000150e:	da45      	bge.n	1000159c <fillRect+0xac>
10001510:	4443      	add	r3, r8
10001512:	001c      	movs	r4, r3
10001514:	4653      	mov	r3, sl
10001516:	011b      	lsls	r3, r3, #4
10001518:	b2db      	uxtb	r3, r3
1000151a:	4699      	mov	r9, r3
1000151c:	45a0      	cmp	r8, r4
1000151e:	da3d      	bge.n	1000159c <fillRect+0xac>
10001520:	27f0      	movs	r7, #240	@ 0xf0
10001522:	2601      	movs	r6, #1
10001524:	000b      	movs	r3, r1
10001526:	4821      	ldr	r0, [pc, #132]	@ (100015ac <fillRect+0xbc>)
10001528:	007f      	lsls	r7, r7, #1
1000152a:	b219      	sxth	r1, r3
1000152c:	43c9      	mvns	r1, r1
1000152e:	22a0      	movs	r2, #160	@ 0xa0
10001530:	17c9      	asrs	r1, r1, #31
10001532:	4019      	ands	r1, r3
10001534:	b209      	sxth	r1, r1
10001536:	0092      	lsls	r2, r2, #2
10001538:	4291      	cmp	r1, r2
1000153a:	db00      	blt.n	1000153e <fillRect+0x4e>
1000153c:	491c      	ldr	r1, [pc, #112]	@ (100015b0 <fillRect+0xc0>)
1000153e:	4642      	mov	r2, r8
10001540:	9301      	str	r3, [sp, #4]
10001542:	9100      	str	r1, [sp, #0]
10001544:	e009      	b.n	1000155a <fillRect+0x6a>
10001546:	250f      	movs	r5, #15
10001548:	105b      	asrs	r3, r3, #1
1000154a:	5cc1      	ldrb	r1, [r0, r3]
1000154c:	3201      	adds	r2, #1
1000154e:	4029      	ands	r1, r5
10001550:	464d      	mov	r5, r9
10001552:	4329      	orrs	r1, r5
10001554:	54c1      	strb	r1, [r0, r3]
10001556:	42a2      	cmp	r2, r4
10001558:	d01c      	beq.n	10001594 <fillRect+0xa4>
1000155a:	b213      	sxth	r3, r2
1000155c:	1c11      	adds	r1, r2, #0
1000155e:	42bb      	cmp	r3, r7
10001560:	db02      	blt.n	10001568 <fillRect+0x78>
10001562:	23e0      	movs	r3, #224	@ 0xe0
10001564:	33ff      	adds	r3, #255	@ 0xff
10001566:	1c19      	adds	r1, r3, #0
10001568:	b209      	sxth	r1, r1
1000156a:	43cb      	mvns	r3, r1
1000156c:	17db      	asrs	r3, r3, #31
1000156e:	4019      	ands	r1, r3
10001570:	008b      	lsls	r3, r1, #2
10001572:	185b      	adds	r3, r3, r1
10001574:	9900      	ldr	r1, [sp, #0]
10001576:	01db      	lsls	r3, r3, #7
10001578:	468b      	mov	fp, r1
1000157a:	445b      	add	r3, fp
1000157c:	421e      	tst	r6, r3
1000157e:	d1e2      	bne.n	10001546 <fillRect+0x56>
10001580:	250f      	movs	r5, #15
10001582:	105b      	asrs	r3, r3, #1
10001584:	5cc1      	ldrb	r1, [r0, r3]
10001586:	3201      	adds	r2, #1
10001588:	43a9      	bics	r1, r5
1000158a:	4655      	mov	r5, sl
1000158c:	4329      	orrs	r1, r5
1000158e:	54c1      	strb	r1, [r0, r3]
10001590:	42a2      	cmp	r2, r4
10001592:	d1e2      	bne.n	1000155a <fillRect+0x6a>
10001594:	9b01      	ldr	r3, [sp, #4]
10001596:	3301      	adds	r3, #1
10001598:	4563      	cmp	r3, ip
1000159a:	d1c6      	bne.n	1000152a <fillRect+0x3a>
1000159c:	b003      	add	sp, #12
1000159e:	bcf0      	pop	{r4, r5, r6, r7}
100015a0:	46bb      	mov	fp, r7
100015a2:	46b2      	mov	sl, r6
100015a4:	46a9      	mov	r9, r5
100015a6:	46a0      	mov	r8, r4
100015a8:	bdf0      	pop	{r4, r5, r6, r7, pc}
100015aa:	46c0      	nop			@ (mov r8, r8)
100015ac:	20000aa4 	.word	0x20000aa4
100015b0:	0000027f 	.word	0x0000027f

100015b4 <drawChar>:
100015b4:	b5f0      	push	{r4, r5, r6, r7, lr}
100015b6:	464e      	mov	r6, r9
100015b8:	46de      	mov	lr, fp
100015ba:	4657      	mov	r7, sl
100015bc:	4645      	mov	r5, r8
100015be:	b5e0      	push	{r5, r6, r7, lr}
100015c0:	b093      	sub	sp, #76	@ 0x4c
100015c2:	469c      	mov	ip, r3
100015c4:	ab1c      	add	r3, sp, #112	@ 0x70
100015c6:	781e      	ldrb	r6, [r3, #0]
100015c8:	ab1d      	add	r3, sp, #116	@ 0x74
100015ca:	781c      	ldrb	r4, [r3, #0]
100015cc:	23a0      	movs	r3, #160	@ 0xa0
100015ce:	9602      	str	r6, [sp, #8]
100015d0:	9407      	str	r4, [sp, #28]
100015d2:	009b      	lsls	r3, r3, #2
100015d4:	4298      	cmp	r0, r3
100015d6:	db00      	blt.n	100015da <drawChar+0x26>
100015d8:	e0b9      	b.n	1000174e <drawChar+0x19a>
100015da:	3ba0      	subs	r3, #160	@ 0xa0
100015dc:	4299      	cmp	r1, r3
100015de:	db00      	blt.n	100015e2 <drawChar+0x2e>
100015e0:	e0b5      	b.n	1000174e <drawChar+0x19a>
100015e2:	46a0      	mov	r8, r4
100015e4:	0063      	lsls	r3, r4, #1
100015e6:	4443      	add	r3, r8
100015e8:	005b      	lsls	r3, r3, #1
100015ea:	181b      	adds	r3, r3, r0
100015ec:	2b00      	cmp	r3, #0
100015ee:	dc00      	bgt.n	100015f2 <drawChar+0x3e>
100015f0:	e0ad      	b.n	1000174e <drawChar+0x19a>
100015f2:	00e3      	lsls	r3, r4, #3
100015f4:	185b      	adds	r3, r3, r1
100015f6:	2b00      	cmp	r3, #0
100015f8:	dc00      	bgt.n	100015fc <drawChar+0x48>
100015fa:	e0a8      	b.n	1000174e <drawChar+0x19a>
100015fc:	0093      	lsls	r3, r2, #2
100015fe:	189b      	adds	r3, r3, r2
10001600:	0132      	lsls	r2, r6, #4
10001602:	b2d2      	uxtb	r2, r2
10001604:	9203      	str	r2, [sp, #12]
10001606:	4662      	mov	r2, ip
10001608:	0112      	lsls	r2, r2, #4
1000160a:	b2d2      	uxtb	r2, r2
1000160c:	4691      	mov	r9, r2
1000160e:	b282      	uxth	r2, r0
10001610:	4692      	mov	sl, r2
10001612:	0016      	movs	r6, r2
10001614:	4aaa      	ldr	r2, [pc, #680]	@ (100018c0 <drawChar+0x30c>)
10001616:	2500      	movs	r5, #0
10001618:	189b      	adds	r3, r3, r2
1000161a:	220f      	movs	r2, #15
1000161c:	4693      	mov	fp, r2
1000161e:	4652      	mov	r2, sl
10001620:	920f      	str	r2, [sp, #60]	@ 0x3c
10001622:	4662      	mov	r2, ip
10001624:	960d      	str	r6, [sp, #52]	@ 0x34
10001626:	46ca      	mov	sl, r9
10001628:	002e      	movs	r6, r5
1000162a:	b288      	uxth	r0, r1
1000162c:	9200      	str	r2, [sp, #0]
1000162e:	9010      	str	r0, [sp, #64]	@ 0x40
10001630:	9311      	str	r3, [sp, #68]	@ 0x44
10001632:	2e05      	cmp	r6, #5
10001634:	d100      	bne.n	10001638 <drawChar+0x84>
10001636:	e141      	b.n	100018bc <drawChar+0x308>
10001638:	9b11      	ldr	r3, [sp, #68]	@ 0x44
1000163a:	5d9a      	ldrb	r2, [r3, r6]
1000163c:	466b      	mov	r3, sp
1000163e:	2134      	movs	r1, #52	@ 0x34
10001640:	5e5b      	ldrsh	r3, [r3, r1]
10001642:	9c10      	ldr	r4, [sp, #64]	@ 0x40
10001644:	0019      	movs	r1, r3
10001646:	468c      	mov	ip, r1
10001648:	0021      	movs	r1, r4
1000164a:	3108      	adds	r1, #8
1000164c:	b289      	uxth	r1, r1
1000164e:	9109      	str	r1, [sp, #36]	@ 0x24
10001650:	990f      	ldr	r1, [sp, #60]	@ 0x3c
10001652:	0020      	movs	r0, r4
10001654:	9406      	str	r4, [sp, #24]
10001656:	198c      	adds	r4, r1, r6
10001658:	b221      	sxth	r1, r4
1000165a:	43c9      	mvns	r1, r1
1000165c:	930a      	str	r3, [sp, #40]	@ 0x28
1000165e:	9b07      	ldr	r3, [sp, #28]
10001660:	17c9      	asrs	r1, r1, #31
10001662:	4463      	add	r3, ip
10001664:	4021      	ands	r1, r4
10001666:	910c      	str	r1, [sp, #48]	@ 0x30
10001668:	9205      	str	r2, [sp, #20]
1000166a:	960e      	str	r6, [sp, #56]	@ 0x38
1000166c:	930b      	str	r3, [sp, #44]	@ 0x2c
1000166e:	9b05      	ldr	r3, [sp, #20]
10001670:	07da      	lsls	r2, r3, #31
10001672:	d400      	bmi.n	10001676 <drawChar+0xc2>
10001674:	e072      	b.n	1000175c <drawChar+0x1a8>
10001676:	9b07      	ldr	r3, [sp, #28]
10001678:	2b01      	cmp	r3, #1
1000167a:	d100      	bne.n	1000167e <drawChar+0xca>
1000167c:	e0c4      	b.n	10001808 <drawChar+0x254>
1000167e:	466b      	mov	r3, sp
10001680:	2218      	movs	r2, #24
10001682:	5e9b      	ldrsh	r3, [r3, r2]
10001684:	9f0a      	ldr	r7, [sp, #40]	@ 0x28
10001686:	4698      	mov	r8, r3
10001688:	9b0b      	ldr	r3, [sp, #44]	@ 0x2c
1000168a:	429f      	cmp	r7, r3
1000168c:	da48      	bge.n	10001720 <drawChar+0x16c>
1000168e:	9c07      	ldr	r4, [sp, #28]
10001690:	4444      	add	r4, r8
10001692:	45a0      	cmp	r8, r4
10001694:	da44      	bge.n	10001720 <drawChar+0x16c>
10001696:	22a0      	movs	r2, #160	@ 0xa0
10001698:	0092      	lsls	r2, r2, #2
1000169a:	4694      	mov	ip, r2
1000169c:	4642      	mov	r2, r8
1000169e:	26f0      	movs	r6, #240	@ 0xf0
100016a0:	9208      	str	r2, [sp, #32]
100016a2:	4652      	mov	r2, sl
100016a4:	4698      	mov	r8, r3
100016a6:	0003      	movs	r3, r0
100016a8:	4986      	ldr	r1, [pc, #536]	@ (100018c4 <drawChar+0x310>)
100016aa:	0076      	lsls	r6, r6, #1
100016ac:	9201      	str	r2, [sp, #4]
100016ae:	b238      	sxth	r0, r7
100016b0:	43c0      	mvns	r0, r0
100016b2:	17c0      	asrs	r0, r0, #31
100016b4:	4038      	ands	r0, r7
100016b6:	b200      	sxth	r0, r0
100016b8:	4560      	cmp	r0, ip
100016ba:	db00      	blt.n	100016be <drawChar+0x10a>
100016bc:	4882      	ldr	r0, [pc, #520]	@ (100018c8 <drawChar+0x314>)
100016be:	4699      	mov	r9, r3
100016c0:	9a08      	ldr	r2, [sp, #32]
100016c2:	9704      	str	r7, [sp, #16]
100016c4:	e009      	b.n	100016da <drawChar+0x126>
100016c6:	465d      	mov	r5, fp
100016c8:	107f      	asrs	r7, r7, #1
100016ca:	5dcb      	ldrb	r3, [r1, r7]
100016cc:	3201      	adds	r2, #1
100016ce:	402b      	ands	r3, r5
100016d0:	9d01      	ldr	r5, [sp, #4]
100016d2:	432b      	orrs	r3, r5
100016d4:	55cb      	strb	r3, [r1, r7]
100016d6:	42a2      	cmp	r2, r4
100016d8:	d01a      	beq.n	10001710 <drawChar+0x15c>
100016da:	b217      	sxth	r7, r2
100016dc:	1c13      	adds	r3, r2, #0
100016de:	42b7      	cmp	r7, r6
100016e0:	db01      	blt.n	100016e6 <drawChar+0x132>
100016e2:	23e0      	movs	r3, #224	@ 0xe0
100016e4:	33ff      	adds	r3, #255	@ 0xff
100016e6:	b21b      	sxth	r3, r3
100016e8:	43df      	mvns	r7, r3
100016ea:	17ff      	asrs	r7, r7, #31
100016ec:	403b      	ands	r3, r7
100016ee:	009f      	lsls	r7, r3, #2
100016f0:	18ff      	adds	r7, r7, r3
100016f2:	2301      	movs	r3, #1
100016f4:	01ff      	lsls	r7, r7, #7
100016f6:	183f      	adds	r7, r7, r0
100016f8:	423b      	tst	r3, r7
100016fa:	d1e4      	bne.n	100016c6 <drawChar+0x112>
100016fc:	465d      	mov	r5, fp
100016fe:	107f      	asrs	r7, r7, #1
10001700:	5dcb      	ldrb	r3, [r1, r7]
10001702:	3201      	adds	r2, #1
10001704:	43ab      	bics	r3, r5
10001706:	9d00      	ldr	r5, [sp, #0]
10001708:	432b      	orrs	r3, r5
1000170a:	55cb      	strb	r3, [r1, r7]
1000170c:	42a2      	cmp	r2, r4
1000170e:	d1e4      	bne.n	100016da <drawChar+0x126>
10001710:	9f04      	ldr	r7, [sp, #16]
10001712:	464b      	mov	r3, r9
10001714:	3701      	adds	r7, #1
10001716:	4547      	cmp	r7, r8
10001718:	d1c9      	bne.n	100016ae <drawChar+0xfa>
1000171a:	9a01      	ldr	r2, [sp, #4]
1000171c:	0018      	movs	r0, r3
1000171e:	4692      	mov	sl, r2
10001720:	9b05      	ldr	r3, [sp, #20]
10001722:	9a06      	ldr	r2, [sp, #24]
10001724:	085b      	lsrs	r3, r3, #1
10001726:	9305      	str	r3, [sp, #20]
10001728:	9b07      	ldr	r3, [sp, #28]
1000172a:	3001      	adds	r0, #1
1000172c:	469c      	mov	ip, r3
1000172e:	4462      	add	r2, ip
10001730:	b293      	uxth	r3, r2
10001732:	9306      	str	r3, [sp, #24]
10001734:	9b09      	ldr	r3, [sp, #36]	@ 0x24
10001736:	b280      	uxth	r0, r0
10001738:	4283      	cmp	r3, r0
1000173a:	d198      	bne.n	1000166e <drawChar+0xba>
1000173c:	9b0d      	ldr	r3, [sp, #52]	@ 0x34
1000173e:	9e0e      	ldr	r6, [sp, #56]	@ 0x38
10001740:	4463      	add	r3, ip
10001742:	b29b      	uxth	r3, r3
10001744:	3601      	adds	r6, #1
10001746:	930d      	str	r3, [sp, #52]	@ 0x34
10001748:	2e06      	cmp	r6, #6
1000174a:	d000      	beq.n	1000174e <drawChar+0x19a>
1000174c:	e771      	b.n	10001632 <drawChar+0x7e>
1000174e:	b013      	add	sp, #76	@ 0x4c
10001750:	bcf0      	pop	{r4, r5, r6, r7}
10001752:	46bb      	mov	fp, r7
10001754:	46b2      	mov	sl, r6
10001756:	46a9      	mov	r9, r5
10001758:	46a0      	mov	r8, r4
1000175a:	bdf0      	pop	{r4, r5, r6, r7, pc}
1000175c:	9b02      	ldr	r3, [sp, #8]
1000175e:	9a00      	ldr	r2, [sp, #0]
10001760:	4293      	cmp	r3, r2
10001762:	d0dd      	beq.n	10001720 <drawChar+0x16c>
10001764:	9b07      	ldr	r3, [sp, #28]
10001766:	2b01      	cmp	r3, #1
10001768:	d072      	beq.n	10001850 <drawChar+0x29c>
1000176a:	466b      	mov	r3, sp
1000176c:	9c0b      	ldr	r4, [sp, #44]	@ 0x2c
1000176e:	2218      	movs	r2, #24
10001770:	5e9b      	ldrsh	r3, [r3, r2]
10001772:	9a0a      	ldr	r2, [sp, #40]	@ 0x28
10001774:	42a2      	cmp	r2, r4
10001776:	dad3      	bge.n	10001720 <drawChar+0x16c>
10001778:	9907      	ldr	r1, [sp, #28]
1000177a:	18cd      	adds	r5, r1, r3
1000177c:	42ab      	cmp	r3, r5
1000177e:	dacf      	bge.n	10001720 <drawChar+0x16c>
10001780:	27f0      	movs	r7, #240	@ 0xf0
10001782:	9304      	str	r3, [sp, #16]
10001784:	46a4      	mov	ip, r4
10001786:	0013      	movs	r3, r2
10001788:	4652      	mov	r2, sl
1000178a:	4682      	mov	sl, r0
1000178c:	494d      	ldr	r1, [pc, #308]	@ (100018c4 <drawChar+0x310>)
1000178e:	007f      	lsls	r7, r7, #1
10001790:	b21c      	sxth	r4, r3
10001792:	43e4      	mvns	r4, r4
10001794:	20a0      	movs	r0, #160	@ 0xa0
10001796:	17e4      	asrs	r4, r4, #31
10001798:	401c      	ands	r4, r3
1000179a:	b224      	sxth	r4, r4
1000179c:	0080      	lsls	r0, r0, #2
1000179e:	4284      	cmp	r4, r0
100017a0:	db00      	blt.n	100017a4 <drawChar+0x1f0>
100017a2:	4c49      	ldr	r4, [pc, #292]	@ (100018c8 <drawChar+0x314>)
100017a4:	4690      	mov	r8, r2
100017a6:	9804      	ldr	r0, [sp, #16]
100017a8:	9301      	str	r3, [sp, #4]
100017aa:	e009      	b.n	100017c0 <drawChar+0x20c>
100017ac:	465e      	mov	r6, fp
100017ae:	105b      	asrs	r3, r3, #1
100017b0:	5cca      	ldrb	r2, [r1, r3]
100017b2:	3001      	adds	r0, #1
100017b4:	4032      	ands	r2, r6
100017b6:	9e03      	ldr	r6, [sp, #12]
100017b8:	4332      	orrs	r2, r6
100017ba:	54ca      	strb	r2, [r1, r3]
100017bc:	42a8      	cmp	r0, r5
100017be:	d01b      	beq.n	100017f8 <drawChar+0x244>
100017c0:	b203      	sxth	r3, r0
100017c2:	1c02      	adds	r2, r0, #0
100017c4:	42bb      	cmp	r3, r7
100017c6:	db02      	blt.n	100017ce <drawChar+0x21a>
100017c8:	23e0      	movs	r3, #224	@ 0xe0
100017ca:	33ff      	adds	r3, #255	@ 0xff
100017cc:	1c1a      	adds	r2, r3, #0
100017ce:	b212      	sxth	r2, r2
100017d0:	43d3      	mvns	r3, r2
100017d2:	17db      	asrs	r3, r3, #31
100017d4:	401a      	ands	r2, r3
100017d6:	0093      	lsls	r3, r2, #2
100017d8:	189b      	adds	r3, r3, r2
100017da:	2201      	movs	r2, #1
100017dc:	01db      	lsls	r3, r3, #7
100017de:	191b      	adds	r3, r3, r4
100017e0:	421a      	tst	r2, r3
100017e2:	d1e3      	bne.n	100017ac <drawChar+0x1f8>
100017e4:	465e      	mov	r6, fp
100017e6:	105b      	asrs	r3, r3, #1
100017e8:	5cca      	ldrb	r2, [r1, r3]
100017ea:	3001      	adds	r0, #1
100017ec:	43b2      	bics	r2, r6
100017ee:	9e02      	ldr	r6, [sp, #8]
100017f0:	4332      	orrs	r2, r6
100017f2:	54ca      	strb	r2, [r1, r3]
100017f4:	42a8      	cmp	r0, r5
100017f6:	d1e3      	bne.n	100017c0 <drawChar+0x20c>
100017f8:	9b01      	ldr	r3, [sp, #4]
100017fa:	4642      	mov	r2, r8
100017fc:	3301      	adds	r3, #1
100017fe:	4563      	cmp	r3, ip
10001800:	d1c6      	bne.n	10001790 <drawChar+0x1dc>
10001802:	4650      	mov	r0, sl
10001804:	46c2      	mov	sl, r8
10001806:	e78b      	b.n	10001720 <drawChar+0x16c>
10001808:	21f0      	movs	r1, #240	@ 0xf0
1000180a:	b204      	sxth	r4, r0
1000180c:	1c02      	adds	r2, r0, #0
1000180e:	0049      	lsls	r1, r1, #1
10001810:	428c      	cmp	r4, r1
10001812:	db02      	blt.n	1000181a <drawChar+0x266>
10001814:	23e0      	movs	r3, #224	@ 0xe0
10001816:	33ff      	adds	r3, #255	@ 0xff
10001818:	1c1a      	adds	r2, r3, #0
1000181a:	b212      	sxth	r2, r2
1000181c:	43d1      	mvns	r1, r2
1000181e:	466b      	mov	r3, sp
10001820:	24a0      	movs	r4, #160	@ 0xa0
10001822:	17c9      	asrs	r1, r1, #31
10001824:	400a      	ands	r2, r1
10001826:	0091      	lsls	r1, r2, #2
10001828:	188a      	adds	r2, r1, r2
1000182a:	2130      	movs	r1, #48	@ 0x30
1000182c:	5e59      	ldrsh	r1, [r3, r1]
1000182e:	01d2      	lsls	r2, r2, #7
10001830:	00a4      	lsls	r4, r4, #2
10001832:	42a1      	cmp	r1, r4
10001834:	db00      	blt.n	10001838 <drawChar+0x284>
10001836:	4924      	ldr	r1, [pc, #144]	@ (100018c8 <drawChar+0x314>)
10001838:	1852      	adds	r2, r2, r1
1000183a:	07d1      	lsls	r1, r2, #31
1000183c:	d52c      	bpl.n	10001898 <drawChar+0x2e4>
1000183e:	465b      	mov	r3, fp
10001840:	4920      	ldr	r1, [pc, #128]	@ (100018c4 <drawChar+0x310>)
10001842:	1052      	asrs	r2, r2, #1
10001844:	5c8c      	ldrb	r4, [r1, r2]
10001846:	401c      	ands	r4, r3
10001848:	4653      	mov	r3, sl
1000184a:	431c      	orrs	r4, r3
1000184c:	548c      	strb	r4, [r1, r2]
1000184e:	e767      	b.n	10001720 <drawChar+0x16c>
10001850:	21f0      	movs	r1, #240	@ 0xf0
10001852:	b204      	sxth	r4, r0
10001854:	1c02      	adds	r2, r0, #0
10001856:	0049      	lsls	r1, r1, #1
10001858:	428c      	cmp	r4, r1
1000185a:	db02      	blt.n	10001862 <drawChar+0x2ae>
1000185c:	23e0      	movs	r3, #224	@ 0xe0
1000185e:	33ff      	adds	r3, #255	@ 0xff
10001860:	1c1a      	adds	r2, r3, #0
10001862:	b212      	sxth	r2, r2
10001864:	43d1      	mvns	r1, r2
10001866:	466b      	mov	r3, sp
10001868:	24a0      	movs	r4, #160	@ 0xa0
1000186a:	17c9      	asrs	r1, r1, #31
1000186c:	400a      	ands	r2, r1
1000186e:	0091      	lsls	r1, r2, #2
10001870:	188a      	adds	r2, r1, r2
10001872:	2130      	movs	r1, #48	@ 0x30
10001874:	5e59      	ldrsh	r1, [r3, r1]
10001876:	01d2      	lsls	r2, r2, #7
10001878:	00a4      	lsls	r4, r4, #2
1000187a:	42a1      	cmp	r1, r4
1000187c:	db00      	blt.n	10001880 <drawChar+0x2cc>
1000187e:	4912      	ldr	r1, [pc, #72]	@ (100018c8 <drawChar+0x314>)
10001880:	1852      	adds	r2, r2, r1
10001882:	07d1      	lsls	r1, r2, #31
10001884:	d511      	bpl.n	100018aa <drawChar+0x2f6>
10001886:	465b      	mov	r3, fp
10001888:	490e      	ldr	r1, [pc, #56]	@ (100018c4 <drawChar+0x310>)
1000188a:	1052      	asrs	r2, r2, #1
1000188c:	5c8c      	ldrb	r4, [r1, r2]
1000188e:	401c      	ands	r4, r3
10001890:	9b03      	ldr	r3, [sp, #12]
10001892:	431c      	orrs	r4, r3
10001894:	548c      	strb	r4, [r1, r2]
10001896:	e743      	b.n	10001720 <drawChar+0x16c>
10001898:	465b      	mov	r3, fp
1000189a:	490a      	ldr	r1, [pc, #40]	@ (100018c4 <drawChar+0x310>)
1000189c:	1052      	asrs	r2, r2, #1
1000189e:	5c8c      	ldrb	r4, [r1, r2]
100018a0:	439c      	bics	r4, r3
100018a2:	9b00      	ldr	r3, [sp, #0]
100018a4:	431c      	orrs	r4, r3
100018a6:	548c      	strb	r4, [r1, r2]
100018a8:	e73a      	b.n	10001720 <drawChar+0x16c>
100018aa:	465b      	mov	r3, fp
100018ac:	4905      	ldr	r1, [pc, #20]	@ (100018c4 <drawChar+0x310>)
100018ae:	1052      	asrs	r2, r2, #1
100018b0:	5c8c      	ldrb	r4, [r1, r2]
100018b2:	439c      	bics	r4, r3
100018b4:	9b02      	ldr	r3, [sp, #8]
100018b6:	431c      	orrs	r4, r3
100018b8:	548c      	strb	r4, [r1, r2]
100018ba:	e731      	b.n	10001720 <drawChar+0x16c>
100018bc:	2200      	movs	r2, #0
100018be:	e6bd      	b.n	1000163c <drawChar+0x88>
100018c0:	10005b08 	.word	0x10005b08
100018c4:	20000aa4 	.word	0x20000aa4
100018c8:	0000027f 	.word	0x0000027f

100018cc <setCursor>:
100018cc:	4b02      	ldr	r3, [pc, #8]	@ (100018d8 <setCursor+0xc>)
100018ce:	8018      	strh	r0, [r3, #0]
100018d0:	4b02      	ldr	r3, [pc, #8]	@ (100018dc <setCursor+0x10>)
100018d2:	8019      	strh	r1, [r3, #0]
100018d4:	4770      	bx	lr
100018d6:	46c0      	nop			@ (mov r8, r8)
100018d8:	200262a6 	.word	0x200262a6
100018dc:	200262a8 	.word	0x200262a8

100018e0 <setTextSize>:
100018e0:	4a03      	ldr	r2, [pc, #12]	@ (100018f0 <setTextSize+0x10>)
100018e2:	1c03      	adds	r3, r0, #0
100018e4:	2800      	cmp	r0, #0
100018e6:	d100      	bne.n	100018ea <setTextSize+0xa>
100018e8:	2301      	movs	r3, #1
100018ea:	b2db      	uxtb	r3, r3
100018ec:	8013      	strh	r3, [r2, #0]
100018ee:	4770      	bx	lr
100018f0:	200262aa 	.word	0x200262aa

100018f4 <setTextColor>:
100018f4:	4b02      	ldr	r3, [pc, #8]	@ (10001900 <setTextColor+0xc>)
100018f6:	7018      	strb	r0, [r3, #0]
100018f8:	4b02      	ldr	r3, [pc, #8]	@ (10001904 <setTextColor+0x10>)
100018fa:	7018      	strb	r0, [r3, #0]
100018fc:	4770      	bx	lr
100018fe:	46c0      	nop			@ (mov r8, r8)
10001900:	200262ad 	.word	0x200262ad
10001904:	200262ae 	.word	0x200262ae

10001908 <writeString>:
10001908:	b5f0      	push	{r4, r5, r6, r7, lr}
1000190a:	46ce      	mov	lr, r9
1000190c:	4647      	mov	r7, r8
1000190e:	b580      	push	{r7, lr}
10001910:	7802      	ldrb	r2, [r0, #0]
10001912:	0004      	movs	r4, r0
10001914:	b083      	sub	sp, #12
10001916:	2a00      	cmp	r2, #0
10001918:	d023      	beq.n	10001962 <writeString+0x5a>
1000191a:	4b2a      	ldr	r3, [pc, #168]	@ (100019c4 <writeString+0xbc>)
1000191c:	4e2a      	ldr	r6, [pc, #168]	@ (100019c8 <writeString+0xc0>)
1000191e:	4699      	mov	r9, r3
10001920:	4d2a      	ldr	r5, [pc, #168]	@ (100019cc <writeString+0xc4>)
10001922:	e00e      	b.n	10001942 <writeString+0x3a>
10001924:	2a0d      	cmp	r2, #13
10001926:	d009      	beq.n	1000193c <writeString+0x34>
10001928:	2a09      	cmp	r2, #9
1000192a:	d11f      	bne.n	1000196c <writeString+0x64>
1000192c:	219f      	movs	r1, #159	@ 0x9f
1000192e:	4a27      	ldr	r2, [pc, #156]	@ (100019cc <writeString+0xc4>)
10001930:	0089      	lsls	r1, r1, #2
10001932:	8813      	ldrh	r3, [r2, #0]
10001934:	428b      	cmp	r3, r1
10001936:	d201      	bcs.n	1000193c <writeString+0x34>
10001938:	3304      	adds	r3, #4
1000193a:	8013      	strh	r3, [r2, #0]
1000193c:	7822      	ldrb	r2, [r4, #0]
1000193e:	2a00      	cmp	r2, #0
10001940:	d00f      	beq.n	10001962 <writeString+0x5a>
10001942:	3401      	adds	r4, #1
10001944:	2a0a      	cmp	r2, #10
10001946:	d1ed      	bne.n	10001924 <writeString+0x1c>
10001948:	4b21      	ldr	r3, [pc, #132]	@ (100019d0 <writeString+0xc8>)
1000194a:	4a1f      	ldr	r2, [pc, #124]	@ (100019c8 <writeString+0xc0>)
1000194c:	881b      	ldrh	r3, [r3, #0]
1000194e:	8811      	ldrh	r1, [r2, #0]
10001950:	00db      	lsls	r3, r3, #3
10001952:	185b      	adds	r3, r3, r1
10001954:	8013      	strh	r3, [r2, #0]
10001956:	2200      	movs	r2, #0
10001958:	4b1c      	ldr	r3, [pc, #112]	@ (100019cc <writeString+0xc4>)
1000195a:	801a      	strh	r2, [r3, #0]
1000195c:	7822      	ldrb	r2, [r4, #0]
1000195e:	2a00      	cmp	r2, #0
10001960:	d1ef      	bne.n	10001942 <writeString+0x3a>
10001962:	b003      	add	sp, #12
10001964:	bcc0      	pop	{r6, r7}
10001966:	46b9      	mov	r9, r7
10001968:	46b0      	mov	r8, r6
1000196a:	bdf0      	pop	{r4, r5, r6, r7, pc}
1000196c:	464b      	mov	r3, r9
1000196e:	2000      	movs	r0, #0
10001970:	5e31      	ldrsh	r1, [r6, r0]
10001972:	2700      	movs	r7, #0
10001974:	5fe8      	ldrsh	r0, [r5, r7]
10001976:	4f16      	ldr	r7, [pc, #88]	@ (100019d0 <writeString+0xc8>)
10001978:	781b      	ldrb	r3, [r3, #0]
1000197a:	46b8      	mov	r8, r7
1000197c:	783f      	ldrb	r7, [r7, #0]
1000197e:	9701      	str	r7, [sp, #4]
10001980:	4f14      	ldr	r7, [pc, #80]	@ (100019d4 <writeString+0xcc>)
10001982:	783f      	ldrb	r7, [r7, #0]
10001984:	9700      	str	r7, [sp, #0]
10001986:	f7ff fe15 	bl	100015b4 <drawChar>
1000198a:	4643      	mov	r3, r8
1000198c:	881a      	ldrh	r2, [r3, #0]
1000198e:	8829      	ldrh	r1, [r5, #0]
10001990:	0053      	lsls	r3, r2, #1
10001992:	18d3      	adds	r3, r2, r3
10001994:	005b      	lsls	r3, r3, #1
10001996:	185b      	adds	r3, r3, r1
10001998:	490f      	ldr	r1, [pc, #60]	@ (100019d8 <writeString+0xd0>)
1000199a:	b29b      	uxth	r3, r3
1000199c:	7809      	ldrb	r1, [r1, #0]
1000199e:	802b      	strh	r3, [r5, #0]
100019a0:	2900      	cmp	r1, #0
100019a2:	d0cb      	beq.n	1000193c <writeString+0x34>
100019a4:	20a0      	movs	r0, #160	@ 0xa0
100019a6:	0080      	lsls	r0, r0, #2
100019a8:	4684      	mov	ip, r0
100019aa:	0091      	lsls	r1, r2, #2
100019ac:	1a51      	subs	r1, r2, r1
100019ae:	0049      	lsls	r1, r1, #1
100019b0:	4461      	add	r1, ip
100019b2:	428b      	cmp	r3, r1
100019b4:	ddc2      	ble.n	1000193c <writeString+0x34>
100019b6:	8833      	ldrh	r3, [r6, #0]
100019b8:	00d2      	lsls	r2, r2, #3
100019ba:	18d2      	adds	r2, r2, r3
100019bc:	2300      	movs	r3, #0
100019be:	8032      	strh	r2, [r6, #0]
100019c0:	802b      	strh	r3, [r5, #0]
100019c2:	e7bb      	b.n	1000193c <writeString+0x34>
100019c4:	200262ae 	.word	0x200262ae
100019c8:	200262a8 	.word	0x200262a8
100019cc:	200262a6 	.word	0x200262a6
100019d0:	200262aa 	.word	0x200262aa
100019d4:	200262ad 	.word	0x200262ad
100019d8:	200262af 	.word	0x200262af

100019dc <gpio_set_function>:
100019dc:	4a09      	ldr	r2, [pc, #36]	@ (10001a04 <gpio_set_function+0x28>)
100019de:	0083      	lsls	r3, r0, #2
100019e0:	189a      	adds	r2, r3, r2
100019e2:	b510      	push	{r4, lr}
100019e4:	6814      	ldr	r4, [r2, #0]
100019e6:	2240      	movs	r2, #64	@ 0x40
100019e8:	4054      	eors	r4, r2
100019ea:	3280      	adds	r2, #128	@ 0x80
100019ec:	4022      	ands	r2, r4
100019ee:	4c06      	ldr	r4, [pc, #24]	@ (10001a08 <gpio_set_function+0x2c>)
100019f0:	00c0      	lsls	r0, r0, #3
100019f2:	46a4      	mov	ip, r4
100019f4:	4463      	add	r3, ip
100019f6:	601a      	str	r2, [r3, #0]
100019f8:	4b04      	ldr	r3, [pc, #16]	@ (10001a0c <gpio_set_function+0x30>)
100019fa:	469c      	mov	ip, r3
100019fc:	4460      	add	r0, ip
100019fe:	6041      	str	r1, [r0, #4]
10001a00:	bd10      	pop	{r4, pc}
10001a02:	46c0      	nop			@ (mov r8, r8)
10001a04:	4001c004 	.word	0x4001c004
10001a08:	4001d004 	.word	0x4001d004
10001a0c:	40014000 	.word	0x40014000

10001a10 <panic>:
10001a10:	b40f      	push	{r0, r1, r2, r3}
10001a12:	b500      	push	{lr}
10001a14:	4808      	ldr	r0, [pc, #32]	@ (10001a38 <panic+0x28>)
10001a16:	b083      	sub	sp, #12
10001a18:	f003 fd4a 	bl	100054b0 <__wrap_puts>
10001a1c:	9b04      	ldr	r3, [sp, #16]
10001a1e:	2b00      	cmp	r3, #0
10001a20:	d007      	beq.n	10001a32 <panic+0x22>
10001a22:	a905      	add	r1, sp, #20
10001a24:	0018      	movs	r0, r3
10001a26:	9101      	str	r1, [sp, #4]
10001a28:	f003 fbbe 	bl	100051a8 <weak_raw_vprintf>
10001a2c:	4803      	ldr	r0, [pc, #12]	@ (10001a3c <panic+0x2c>)
10001a2e:	f003 fd3f 	bl	100054b0 <__wrap_puts>
10001a32:	2001      	movs	r0, #1
10001a34:	f003 fbd0 	bl	100051d8 <_exit>
10001a38:	10006060 	.word	0x10006060
10001a3c:	10006070 	.word	0x10006070

10001a40 <hw_claim_lock>:
10001a40:	f3ef 8010 	mrs	r0, PRIMASK
10001a44:	b672      	cpsid	i
10001a46:	4a03      	ldr	r2, [pc, #12]	@ (10001a54 <hw_claim_lock+0x14>)
10001a48:	6813      	ldr	r3, [r2, #0]
10001a4a:	2b00      	cmp	r3, #0
10001a4c:	d0fc      	beq.n	10001a48 <hw_claim_lock+0x8>
10001a4e:	f3bf 8f5f 	dmb	sy
10001a52:	4770      	bx	lr
10001a54:	d000012c 	.word	0xd000012c

10001a58 <hw_claim_unlock>:
10001a58:	f3bf 8f5f 	dmb	sy
10001a5c:	2200      	movs	r2, #0
10001a5e:	4b02      	ldr	r3, [pc, #8]	@ (10001a68 <hw_claim_unlock+0x10>)
10001a60:	601a      	str	r2, [r3, #0]
10001a62:	f380 8810 	msr	PRIMASK, r0
10001a66:	4770      	bx	lr
10001a68:	d000012c 	.word	0xd000012c

10001a6c <hw_claim_or_assert>:
10001a6c:	b570      	push	{r4, r5, r6, lr}
10001a6e:	f3ef 8c10 	mrs	ip, PRIMASK
10001a72:	b672      	cpsid	i
10001a74:	4d0d      	ldr	r5, [pc, #52]	@ (10001aac <hw_claim_or_assert+0x40>)
10001a76:	682b      	ldr	r3, [r5, #0]
10001a78:	2b00      	cmp	r3, #0
10001a7a:	d0fc      	beq.n	10001a76 <hw_claim_or_assert+0xa>
10001a7c:	f3bf 8f5f 	dmb	sy
10001a80:	2407      	movs	r4, #7
10001a82:	08cb      	lsrs	r3, r1, #3
10001a84:	18c6      	adds	r6, r0, r3
10001a86:	5cc0      	ldrb	r0, [r0, r3]
10001a88:	2301      	movs	r3, #1
10001a8a:	400c      	ands	r4, r1
10001a8c:	40a3      	lsls	r3, r4
10001a8e:	001c      	movs	r4, r3
10001a90:	4004      	ands	r4, r0
10001a92:	4203      	tst	r3, r0
10001a94:	d107      	bne.n	10001aa6 <hw_claim_or_assert+0x3a>
10001a96:	4318      	orrs	r0, r3
10001a98:	7030      	strb	r0, [r6, #0]
10001a9a:	f3bf 8f5f 	dmb	sy
10001a9e:	602c      	str	r4, [r5, #0]
10001aa0:	f38c 8810 	msr	PRIMASK, ip
10001aa4:	bd70      	pop	{r4, r5, r6, pc}
10001aa6:	0010      	movs	r0, r2
10001aa8:	f7ff ffb2 	bl	10001a10 <panic>
10001aac:	d000012c 	.word	0xd000012c

10001ab0 <hw_claim_unused_from_range>:
10001ab0:	b5f8      	push	{r3, r4, r5, r6, r7, lr}
10001ab2:	4647      	mov	r7, r8
10001ab4:	46ce      	mov	lr, r9
10001ab6:	4688      	mov	r8, r1
10001ab8:	b580      	push	{r7, lr}
10001aba:	f3ef 8c10 	mrs	ip, PRIMASK
10001abe:	b672      	cpsid	i
10001ac0:	4d21      	ldr	r5, [pc, #132]	@ (10001b48 <hw_claim_unused_from_range+0x98>)
10001ac2:	682c      	ldr	r4, [r5, #0]
10001ac4:	2c00      	cmp	r4, #0
10001ac6:	d0fc      	beq.n	10001ac2 <hw_claim_unused_from_range+0x12>
10001ac8:	f3bf 8f5f 	dmb	sy
10001acc:	429a      	cmp	r2, r3
10001ace:	d82c      	bhi.n	10001b2a <hw_claim_unused_from_range+0x7a>
10001ad0:	08d4      	lsrs	r4, r2, #3
10001ad2:	2707      	movs	r7, #7
10001ad4:	5d05      	ldrb	r5, [r0, r4]
10001ad6:	1906      	adds	r6, r0, r4
10001ad8:	2401      	movs	r4, #1
10001ada:	4017      	ands	r7, r2
10001adc:	40bc      	lsls	r4, r7
10001ade:	422c      	tst	r4, r5
10001ae0:	d01f      	beq.n	10001b22 <hw_claim_unused_from_range+0x72>
10001ae2:	2107      	movs	r1, #7
10001ae4:	2701      	movs	r7, #1
10001ae6:	4689      	mov	r9, r1
10001ae8:	e009      	b.n	10001afe <hw_claim_unused_from_range+0x4e>
10001aea:	08d4      	lsrs	r4, r2, #3
10001aec:	5d05      	ldrb	r5, [r0, r4]
10001aee:	1906      	adds	r6, r0, r4
10001af0:	464c      	mov	r4, r9
10001af2:	0039      	movs	r1, r7
10001af4:	4014      	ands	r4, r2
10001af6:	40a1      	lsls	r1, r4
10001af8:	000c      	movs	r4, r1
10001afa:	4229      	tst	r1, r5
10001afc:	d011      	beq.n	10001b22 <hw_claim_unused_from_range+0x72>
10001afe:	3201      	adds	r2, #1
10001b00:	4293      	cmp	r3, r2
10001b02:	d2f2      	bcs.n	10001aea <hw_claim_unused_from_range+0x3a>
10001b04:	2001      	movs	r0, #1
10001b06:	4240      	negs	r0, r0
10001b08:	f3bf 8f5f 	dmb	sy
10001b0c:	2200      	movs	r2, #0
10001b0e:	4b0e      	ldr	r3, [pc, #56]	@ (10001b48 <hw_claim_unused_from_range+0x98>)
10001b10:	601a      	str	r2, [r3, #0]
10001b12:	f38c 8810 	msr	PRIMASK, ip
10001b16:	2800      	cmp	r0, #0
10001b18:	db0f      	blt.n	10001b3a <hw_claim_unused_from_range+0x8a>
10001b1a:	bcc0      	pop	{r6, r7}
10001b1c:	46b9      	mov	r9, r7
10001b1e:	46b0      	mov	r8, r6
10001b20:	bdf8      	pop	{r3, r4, r5, r6, r7, pc}
10001b22:	4325      	orrs	r5, r4
10001b24:	0010      	movs	r0, r2
10001b26:	7035      	strb	r5, [r6, #0]
10001b28:	e7ee      	b.n	10001b08 <hw_claim_unused_from_range+0x58>
10001b2a:	f3bf 8f5f 	dmb	sy
10001b2e:	2300      	movs	r3, #0
10001b30:	602b      	str	r3, [r5, #0]
10001b32:	f38c 8810 	msr	PRIMASK, ip
10001b36:	2001      	movs	r0, #1
10001b38:	4240      	negs	r0, r0
10001b3a:	4643      	mov	r3, r8
10001b3c:	2b00      	cmp	r3, #0
10001b3e:	d0ec      	beq.n	10001b1a <hw_claim_unused_from_range+0x6a>
10001b40:	9808      	ldr	r0, [sp, #32]
10001b42:	f7ff ff65 	bl	10001a10 <panic>
10001b46:	46c0      	nop			@ (mov r8, r8)
10001b48:	d000012c 	.word	0xd000012c

10001b4c <next_striped_spin_lock_num>:
10001b4c:	4a04      	ldr	r2, [pc, #16]	@ (10001b60 <next_striped_spin_lock_num+0x14>)
10001b4e:	7810      	ldrb	r0, [r2, #0]
10001b50:	1c43      	adds	r3, r0, #1
10001b52:	b2db      	uxtb	r3, r3
10001b54:	2b17      	cmp	r3, #23
10001b56:	d900      	bls.n	10001b5a <next_striped_spin_lock_num+0xe>
10001b58:	2310      	movs	r3, #16
10001b5a:	7013      	strb	r3, [r2, #0]
10001b5c:	4770      	bx	lr
10001b5e:	46c0      	nop			@ (mov r8, r8)
10001b60:	2000019c 	.word	0x2000019c

10001b64 <spin_locks_reset>:
10001b64:	2100      	movs	r1, #0
10001b66:	4b04      	ldr	r3, [pc, #16]	@ (10001b78 <spin_locks_reset+0x14>)
10001b68:	4a04      	ldr	r2, [pc, #16]	@ (10001b7c <spin_locks_reset+0x18>)
10001b6a:	f3bf 8f5f 	dmb	sy
10001b6e:	c302      	stmia	r3!, {r1}
10001b70:	4293      	cmp	r3, r2
10001b72:	d1fa      	bne.n	10001b6a <spin_locks_reset+0x6>
10001b74:	4770      	bx	lr
10001b76:	46c0      	nop			@ (mov r8, r8)
10001b78:	d0000100 	.word	0xd0000100
10001b7c:	d0000180 	.word	0xd0000180

10001b80 <runtime_init_per_core_irq_priorities>:
10001b80:	4b05      	ldr	r3, [pc, #20]	@ (10001b98 <runtime_init_per_core_irq_priorities+0x18>)
10001b82:	4a06      	ldr	r2, [pc, #24]	@ (10001b9c <runtime_init_per_core_irq_priorities+0x1c>)
10001b84:	6013      	str	r3, [r2, #0]
10001b86:	4a06      	ldr	r2, [pc, #24]	@ (10001ba0 <runtime_init_per_core_irq_priorities+0x20>)
10001b88:	6013      	str	r3, [r2, #0]
10001b8a:	6053      	str	r3, [r2, #4]
10001b8c:	6093      	str	r3, [r2, #8]
10001b8e:	60d3      	str	r3, [r2, #12]
10001b90:	6113      	str	r3, [r2, #16]
10001b92:	6153      	str	r3, [r2, #20]
10001b94:	6193      	str	r3, [r2, #24]
10001b96:	4770      	bx	lr
10001b98:	80808080 	.word	0x80808080
10001b9c:	e000e400 	.word	0xe000e400
10001ba0:	e000e404 	.word	0xe000e404

10001ba4 <irq_set_enabled>:
10001ba4:	231f      	movs	r3, #31
10001ba6:	4018      	ands	r0, r3
10001ba8:	3b1e      	subs	r3, #30
10001baa:	4083      	lsls	r3, r0
10001bac:	2900      	cmp	r1, #0
10001bae:	d005      	beq.n	10001bbc <irq_set_enabled+0x18>
10001bb0:	21c0      	movs	r1, #192	@ 0xc0
10001bb2:	4a04      	ldr	r2, [pc, #16]	@ (10001bc4 <irq_set_enabled+0x20>)
10001bb4:	0049      	lsls	r1, r1, #1
10001bb6:	5053      	str	r3, [r2, r1]
10001bb8:	6013      	str	r3, [r2, #0]
10001bba:	4770      	bx	lr
10001bbc:	2280      	movs	r2, #128	@ 0x80
10001bbe:	4901      	ldr	r1, [pc, #4]	@ (10001bc4 <irq_set_enabled+0x20>)
10001bc0:	508b      	str	r3, [r1, r2]
10001bc2:	e7fa      	b.n	10001bba <irq_set_enabled+0x16>
10001bc4:	e000e100 	.word	0xe000e100

10001bc8 <irq_set_exclusive_handler>:
10001bc8:	b570      	push	{r4, r5, r6, lr}
10001bca:	000d      	movs	r5, r1
10001bcc:	f3ef 8610 	mrs	r6, PRIMASK
10001bd0:	b672      	cpsid	i
10001bd2:	4a0f      	ldr	r2, [pc, #60]	@ (10001c10 <irq_set_exclusive_handler+0x48>)
10001bd4:	6813      	ldr	r3, [r2, #0]
10001bd6:	2b00      	cmp	r3, #0
10001bd8:	d0fc      	beq.n	10001bd4 <irq_set_exclusive_handler+0xc>
10001bda:	f3bf 8f5f 	dmb	sy
10001bde:	4b0d      	ldr	r3, [pc, #52]	@ (10001c14 <irq_set_exclusive_handler+0x4c>)
10001be0:	3010      	adds	r0, #16
10001be2:	689b      	ldr	r3, [r3, #8]
10001be4:	0084      	lsls	r4, r0, #2
10001be6:	591b      	ldr	r3, [r3, r4]
10001be8:	4a0b      	ldr	r2, [pc, #44]	@ (10001c18 <irq_set_exclusive_handler+0x50>)
10001bea:	4293      	cmp	r3, r2
10001bec:	d003      	beq.n	10001bf6 <irq_set_exclusive_handler+0x2e>
10001bee:	429d      	cmp	r5, r3
10001bf0:	d001      	beq.n	10001bf6 <irq_set_exclusive_handler+0x2e>
10001bf2:	f001 f843 	bl	10002c7c <hard_assertion_failure>
10001bf6:	4b07      	ldr	r3, [pc, #28]	@ (10001c14 <irq_set_exclusive_handler+0x4c>)
10001bf8:	689b      	ldr	r3, [r3, #8]
10001bfa:	511d      	str	r5, [r3, r4]
10001bfc:	f3bf 8f5f 	dmb	sy
10001c00:	f3bf 8f5f 	dmb	sy
10001c04:	2200      	movs	r2, #0
10001c06:	4b02      	ldr	r3, [pc, #8]	@ (10001c10 <irq_set_exclusive_handler+0x48>)
10001c08:	601a      	str	r2, [r3, #0]
10001c0a:	f386 8810 	msr	PRIMASK, r6
10001c0e:	bd70      	pop	{r4, r5, r6, pc}
10001c10:	d0000124 	.word	0xd0000124
10001c14:	e000ed00 	.word	0xe000ed00
10001c18:	100001cd 	.word	0x100001cd

10001c1c <irq_remove_handler>:
10001c1c:	b5f0      	push	{r4, r5, r6, r7, lr}
10001c1e:	46de      	mov	lr, fp
10001c20:	4657      	mov	r7, sl
10001c22:	464e      	mov	r6, r9
10001c24:	4645      	mov	r5, r8
10001c26:	b5e0      	push	{r5, r6, r7, lr}
10001c28:	000c      	movs	r4, r1
10001c2a:	b083      	sub	sp, #12
10001c2c:	f3ef 8810 	mrs	r8, PRIMASK
10001c30:	b672      	cpsid	i
10001c32:	4a63      	ldr	r2, [pc, #396]	@ (10001dc0 <irq_remove_handler+0x1a4>)
10001c34:	6813      	ldr	r3, [r2, #0]
10001c36:	2b00      	cmp	r3, #0
10001c38:	d0fc      	beq.n	10001c34 <irq_remove_handler+0x18>
10001c3a:	f3bf 8f5f 	dmb	sy
10001c3e:	4b61      	ldr	r3, [pc, #388]	@ (10001dc4 <irq_remove_handler+0x1a8>)
10001c40:	4961      	ldr	r1, [pc, #388]	@ (10001dc8 <irq_remove_handler+0x1ac>)
10001c42:	689a      	ldr	r2, [r3, #8]
10001c44:	0003      	movs	r3, r0
10001c46:	3310      	adds	r3, #16
10001c48:	009f      	lsls	r7, r3, #2
10001c4a:	59d5      	ldr	r5, [r2, r7]
10001c4c:	9300      	str	r3, [sp, #0]
10001c4e:	428d      	cmp	r5, r1
10001c50:	d043      	beq.n	10001cda <irq_remove_handler+0xbe>
10001c52:	42a5      	cmp	r5, r4
10001c54:	d054      	beq.n	10001d00 <irq_remove_handler+0xe4>
10001c56:	4e5d      	ldr	r6, [pc, #372]	@ (10001dcc <irq_remove_handler+0x1b0>)
10001c58:	1baa      	subs	r2, r5, r6
10001c5a:	2a2f      	cmp	r2, #47	@ 0x2f
10001c5c:	d83d      	bhi.n	10001cda <irq_remove_handler+0xbe>
10001c5e:	4b5c      	ldr	r3, [pc, #368]	@ (10001dd0 <irq_remove_handler+0x1b4>)
10001c60:	469c      	mov	ip, r3
10001c62:	681b      	ldr	r3, [r3, #0]
10001c64:	469a      	mov	sl, r3
10001c66:	2301      	movs	r3, #1
10001c68:	001a      	movs	r2, r3
10001c6a:	4699      	mov	r9, r3
10001c6c:	4082      	lsls	r2, r0
10001c6e:	4653      	mov	r3, sl
10001c70:	4013      	ands	r3, r2
10001c72:	221f      	movs	r2, #31
10001c74:	9301      	str	r3, [sp, #4]
10001c76:	464b      	mov	r3, r9
10001c78:	4002      	ands	r2, r0
10001c7a:	4093      	lsls	r3, r2
10001c7c:	469a      	mov	sl, r3
10001c7e:	2280      	movs	r2, #128	@ 0x80
10001c80:	4663      	mov	r3, ip
10001c82:	4650      	mov	r0, sl
10001c84:	5098      	str	r0, [r3, r2]
10001c86:	f3bf 8f5f 	dmb	sy
10001c8a:	f3ef 8305 	mrs	r3, IPSR
10001c8e:	469b      	mov	fp, r3
10001c90:	2b00      	cmp	r3, #0
10001c92:	d037      	beq.n	10001d04 <irq_remove_handler+0xe8>
10001c94:	9b00      	ldr	r3, [sp, #0]
10001c96:	455b      	cmp	r3, fp
10001c98:	d001      	beq.n	10001c9e <irq_remove_handler+0x82>
10001c9a:	f000 ffef 	bl	10002c7c <hard_assertion_failure>
10001c9e:	002a      	movs	r2, r5
10001ca0:	464b      	mov	r3, r9
10001ca2:	439a      	bics	r2, r3
10001ca4:	6890      	ldr	r0, [r2, #8]
10001ca6:	4284      	cmp	r4, r0
10001ca8:	d108      	bne.n	10001cbc <irq_remove_handler+0xa0>
10001caa:	e077      	b.n	10001d9c <irq_remove_handler+0x180>
10001cac:	004b      	lsls	r3, r1, #1
10001cae:	185b      	adds	r3, r3, r1
10001cb0:	009b      	lsls	r3, r3, #2
10001cb2:	18f3      	adds	r3, r6, r3
10001cb4:	6898      	ldr	r0, [r3, #8]
10001cb6:	4284      	cmp	r4, r0
10001cb8:	d036      	beq.n	10001d28 <irq_remove_handler+0x10c>
10001cba:	001a      	movs	r2, r3
10001cbc:	2106      	movs	r1, #6
10001cbe:	5651      	ldrsb	r1, [r2, r1]
10001cc0:	2900      	cmp	r1, #0
10001cc2:	daf3      	bge.n	10001cac <irq_remove_handler+0x90>
10001cc4:	4284      	cmp	r4, r0
10001cc6:	d055      	beq.n	10001d74 <irq_remove_handler+0x158>
10001cc8:	9b01      	ldr	r3, [sp, #4]
10001cca:	2b00      	cmp	r3, #0
10001ccc:	d027      	beq.n	10001d1e <irq_remove_handler+0x102>
10001cce:	22c0      	movs	r2, #192	@ 0xc0
10001cd0:	4651      	mov	r1, sl
10001cd2:	4b3f      	ldr	r3, [pc, #252]	@ (10001dd0 <irq_remove_handler+0x1b4>)
10001cd4:	0052      	lsls	r2, r2, #1
10001cd6:	5099      	str	r1, [r3, r2]
10001cd8:	6019      	str	r1, [r3, #0]
10001cda:	4b3a      	ldr	r3, [pc, #232]	@ (10001dc4 <irq_remove_handler+0x1a8>)
10001cdc:	689b      	ldr	r3, [r3, #8]
10001cde:	51dd      	str	r5, [r3, r7]
10001ce0:	f3bf 8f5f 	dmb	sy
10001ce4:	f3bf 8f5f 	dmb	sy
10001ce8:	2200      	movs	r2, #0
10001cea:	4b35      	ldr	r3, [pc, #212]	@ (10001dc0 <irq_remove_handler+0x1a4>)
10001cec:	601a      	str	r2, [r3, #0]
10001cee:	f388 8810 	msr	PRIMASK, r8
10001cf2:	b003      	add	sp, #12
10001cf4:	bcf0      	pop	{r4, r5, r6, r7}
10001cf6:	46bb      	mov	fp, r7
10001cf8:	46b2      	mov	sl, r6
10001cfa:	46a9      	mov	r9, r5
10001cfc:	46a0      	mov	r8, r4
10001cfe:	bdf0      	pop	{r4, r5, r6, r7, pc}
10001d00:	000d      	movs	r5, r1
10001d02:	e7ea      	b.n	10001cda <irq_remove_handler+0xbe>
10001d04:	002a      	movs	r2, r5
10001d06:	464b      	mov	r3, r9
10001d08:	439a      	bics	r2, r3
10001d0a:	6890      	ldr	r0, [r2, #8]
10001d0c:	4284      	cmp	r4, r0
10001d0e:	d1d5      	bne.n	10001cbc <irq_remove_handler+0xa0>
10001d10:	2006      	movs	r0, #6
10001d12:	5610      	ldrsb	r0, [r2, r0]
10001d14:	0013      	movs	r3, r2
10001d16:	2800      	cmp	r0, #0
10001d18:	da0a      	bge.n	10001d30 <irq_remove_handler+0x114>
10001d1a:	000d      	movs	r5, r1
10001d1c:	e032      	b.n	10001d84 <irq_remove_handler+0x168>
10001d1e:	2380      	movs	r3, #128	@ 0x80
10001d20:	4651      	mov	r1, sl
10001d22:	4a2b      	ldr	r2, [pc, #172]	@ (10001dd0 <irq_remove_handler+0x1b4>)
10001d24:	50d1      	str	r1, [r2, r3]
10001d26:	e7d8      	b.n	10001cda <irq_remove_handler+0xbe>
10001d28:	2006      	movs	r0, #6
10001d2a:	5618      	ldrsb	r0, [r3, r0]
10001d2c:	2800      	cmp	r0, #0
10001d2e:	db22      	blt.n	10001d76 <irq_remove_handler+0x15a>
10001d30:	0042      	lsls	r2, r0, #1
10001d32:	1811      	adds	r1, r2, r0
10001d34:	0089      	lsls	r1, r1, #2
10001d36:	1874      	adds	r4, r6, r1
10001d38:	4689      	mov	r9, r1
10001d3a:	68a1      	ldr	r1, [r4, #8]
10001d3c:	6099      	str	r1, [r3, #8]
10001d3e:	79e1      	ldrb	r1, [r4, #7]
10001d40:	71d9      	strb	r1, [r3, #7]
10001d42:	2106      	movs	r1, #6
10001d44:	5661      	ldrsb	r1, [r4, r1]
10001d46:	7199      	strb	r1, [r3, #6]
10001d48:	2900      	cmp	r1, #0
10001d4a:	db25      	blt.n	10001d98 <irq_remove_handler+0x17c>
10001d4c:	88a4      	ldrh	r4, [r4, #4]
10001d4e:	1af1      	subs	r1, r6, r3
10001d50:	0564      	lsls	r4, r4, #21
10001d52:	1524      	asrs	r4, r4, #20
10001d54:	444c      	add	r4, r9
10001d56:	1909      	adds	r1, r1, r4
10001d58:	24e0      	movs	r4, #224	@ 0xe0
10001d5a:	0509      	lsls	r1, r1, #20
10001d5c:	0d49      	lsrs	r1, r1, #21
10001d5e:	0224      	lsls	r4, r4, #8
10001d60:	4321      	orrs	r1, r4
10001d62:	8099      	strh	r1, [r3, #4]
10001d64:	1813      	adds	r3, r2, r0
10001d66:	4a1b      	ldr	r2, [pc, #108]	@ (10001dd4 <irq_remove_handler+0x1b8>)
10001d68:	009b      	lsls	r3, r3, #2
10001d6a:	7811      	ldrb	r1, [r2, #0]
10001d6c:	18f3      	adds	r3, r6, r3
10001d6e:	7199      	strb	r1, [r3, #6]
10001d70:	7010      	strb	r0, [r2, #0]
10001d72:	e7a9      	b.n	10001cc8 <irq_remove_handler+0xac>
10001d74:	0013      	movs	r3, r2
10001d76:	4659      	mov	r1, fp
10001d78:	2900      	cmp	r1, #0
10001d7a:	d114      	bne.n	10001da6 <irq_remove_handler+0x18a>
10001d7c:	31ff      	adds	r1, #255	@ 0xff
10001d7e:	7191      	strb	r1, [r2, #6]
10001d80:	4915      	ldr	r1, [pc, #84]	@ (10001dd8 <irq_remove_handler+0x1bc>)
10001d82:	8091      	strh	r1, [r2, #4]
10001d84:	4913      	ldr	r1, [pc, #76]	@ (10001dd4 <irq_remove_handler+0x1b8>)
10001d86:	780a      	ldrb	r2, [r1, #0]
10001d88:	719a      	strb	r2, [r3, #6]
10001d8a:	4a14      	ldr	r2, [pc, #80]	@ (10001ddc <irq_remove_handler+0x1c0>)
10001d8c:	1b9b      	subs	r3, r3, r6
10001d8e:	415b      	adcs	r3, r3
10001d90:	435a      	muls	r2, r3
10001d92:	0d12      	lsrs	r2, r2, #20
10001d94:	700a      	strb	r2, [r1, #0]
10001d96:	e797      	b.n	10001cc8 <irq_remove_handler+0xac>
10001d98:	4911      	ldr	r1, [pc, #68]	@ (10001de0 <irq_remove_handler+0x1c4>)
10001d9a:	e7e2      	b.n	10001d62 <irq_remove_handler+0x146>
10001d9c:	2006      	movs	r0, #6
10001d9e:	5610      	ldrsb	r0, [r2, r0]
10001da0:	0013      	movs	r3, r2
10001da2:	2800      	cmp	r0, #0
10001da4:	dac4      	bge.n	10001d30 <irq_remove_handler+0x114>
10001da6:	4a0f      	ldr	r2, [pc, #60]	@ (10001de4 <irq_remove_handler+0x1c8>)
10001da8:	490f      	ldr	r1, [pc, #60]	@ (10001de8 <irq_remove_handler+0x1cc>)
10001daa:	1ad2      	subs	r2, r2, r3
10001dac:	3a08      	subs	r2, #8
10001dae:	0250      	lsls	r0, r2, #9
10001db0:	0d40      	lsrs	r0, r0, #21
10001db2:	4301      	orrs	r1, r0
10001db4:	8099      	strh	r1, [r3, #4]
10001db6:	490d      	ldr	r1, [pc, #52]	@ (10001dec <irq_remove_handler+0x1d0>)
10001db8:	0852      	lsrs	r2, r2, #1
10001dba:	430a      	orrs	r2, r1
10001dbc:	80da      	strh	r2, [r3, #6]
10001dbe:	e783      	b.n	10001cc8 <irq_remove_handler+0xac>
10001dc0:	d0000124 	.word	0xd0000124
10001dc4:	e000ed00 	.word	0xe000ed00
10001dc8:	100001cd 	.word	0x100001cd
10001dcc:	200001a0 	.word	0x200001a0
10001dd0:	e000e100 	.word	0xe000e100
10001dd4:	200262ac 	.word	0x200262ac
10001dd8:	ffffbd01 	.word	0xffffbd01
10001ddc:	0000aaaa 	.word	0x0000aaaa
10001de0:	0000bd01 	.word	0x0000bd01
10001de4:	200001da 	.word	0x200001da
10001de8:	fffff000 	.word	0xfffff000
10001dec:	fffff800 	.word	0xfffff800

10001df0 <irq_add_tail_to_free_list>:
10001df0:	b570      	push	{r4, r5, r6, lr}
10001df2:	2401      	movs	r4, #1
10001df4:	4304      	orrs	r4, r0
10001df6:	f3ef 8105 	mrs	r1, IPSR
10001dfa:	f3ef 8c10 	mrs	ip, PRIMASK
10001dfe:	b672      	cpsid	i
10001e00:	4a21      	ldr	r2, [pc, #132]	@ (10001e88 <irq_add_tail_to_free_list+0x98>)
10001e02:	6813      	ldr	r3, [r2, #0]
10001e04:	2b00      	cmp	r3, #0
10001e06:	d0fc      	beq.n	10001e02 <irq_add_tail_to_free_list+0x12>
10001e08:	f3bf 8f5f 	dmb	sy
10001e0c:	4b1f      	ldr	r3, [pc, #124]	@ (10001e8c <irq_add_tail_to_free_list+0x9c>)
10001e0e:	0005      	movs	r5, r0
10001e10:	4a1f      	ldr	r2, [pc, #124]	@ (10001e90 <irq_add_tail_to_free_list+0xa0>)
10001e12:	1aed      	subs	r5, r5, r3
10001e14:	416d      	adcs	r5, r5
10001e16:	436a      	muls	r2, r5
10001e18:	0d12      	lsrs	r2, r2, #20
10001e1a:	4d1e      	ldr	r5, [pc, #120]	@ (10001e94 <irq_add_tail_to_free_list+0xa4>)
10001e1c:	0089      	lsls	r1, r1, #2
10001e1e:	68ae      	ldr	r6, [r5, #8]
10001e20:	b252      	sxtb	r2, r2
10001e22:	5876      	ldr	r6, [r6, r1]
10001e24:	42a6      	cmp	r6, r4
10001e26:	d01c      	beq.n	10001e62 <irq_add_tail_to_free_list+0x72>
10001e28:	2106      	movs	r1, #6
10001e2a:	5659      	ldrsb	r1, [r3, r1]
10001e2c:	4291      	cmp	r1, r2
10001e2e:	d01c      	beq.n	10001e6a <irq_add_tail_to_free_list+0x7a>
10001e30:	2112      	movs	r1, #18
10001e32:	5659      	ldrsb	r1, [r3, r1]
10001e34:	4291      	cmp	r1, r2
10001e36:	d022      	beq.n	10001e7e <irq_add_tail_to_free_list+0x8e>
10001e38:	211e      	movs	r1, #30
10001e3a:	5659      	ldrsb	r1, [r3, r1]
10001e3c:	4291      	cmp	r1, r2
10001e3e:	d020      	beq.n	10001e82 <irq_add_tail_to_free_list+0x92>
10001e40:	212a      	movs	r1, #42	@ 0x2a
10001e42:	5659      	ldrsb	r1, [r3, r1]
10001e44:	2403      	movs	r4, #3
10001e46:	4291      	cmp	r1, r2
10001e48:	d010      	beq.n	10001e6c <irq_add_tail_to_free_list+0x7c>
10001e4a:	4b13      	ldr	r3, [pc, #76]	@ (10001e98 <irq_add_tail_to_free_list+0xa8>)
10001e4c:	7819      	ldrb	r1, [r3, #0]
10001e4e:	701a      	strb	r2, [r3, #0]
10001e50:	7181      	strb	r1, [r0, #6]
10001e52:	f3bf 8f5f 	dmb	sy
10001e56:	2200      	movs	r2, #0
10001e58:	4b0b      	ldr	r3, [pc, #44]	@ (10001e88 <irq_add_tail_to_free_list+0x98>)
10001e5a:	601a      	str	r2, [r3, #0]
10001e5c:	f38c 8810 	msr	PRIMASK, ip
10001e60:	bd70      	pop	{r4, r5, r6, pc}
10001e62:	68ab      	ldr	r3, [r5, #8]
10001e64:	4c0d      	ldr	r4, [pc, #52]	@ (10001e9c <irq_add_tail_to_free_list+0xac>)
10001e66:	505c      	str	r4, [r3, r1]
10001e68:	e7ef      	b.n	10001e4a <irq_add_tail_to_free_list+0x5a>
10001e6a:	2400      	movs	r4, #0
10001e6c:	0061      	lsls	r1, r4, #1
10001e6e:	1909      	adds	r1, r1, r4
10001e70:	0089      	lsls	r1, r1, #2
10001e72:	185b      	adds	r3, r3, r1
10001e74:	21ff      	movs	r1, #255	@ 0xff
10001e76:	7199      	strb	r1, [r3, #6]
10001e78:	4909      	ldr	r1, [pc, #36]	@ (10001ea0 <irq_add_tail_to_free_list+0xb0>)
10001e7a:	8099      	strh	r1, [r3, #4]
10001e7c:	e7e5      	b.n	10001e4a <irq_add_tail_to_free_list+0x5a>
10001e7e:	2401      	movs	r4, #1
10001e80:	e7f4      	b.n	10001e6c <irq_add_tail_to_free_list+0x7c>
10001e82:	2402      	movs	r4, #2
10001e84:	e7f2      	b.n	10001e6c <irq_add_tail_to_free_list+0x7c>
10001e86:	46c0      	nop			@ (mov r8, r8)
10001e88:	d0000124 	.word	0xd0000124
10001e8c:	200001a0 	.word	0x200001a0
10001e90:	0000aaaa 	.word	0x0000aaaa
10001e94:	e000ed00 	.word	0xe000ed00
10001e98:	200262ac 	.word	0x200262ac
10001e9c:	100001cd 	.word	0x100001cd
10001ea0:	ffffbd01 	.word	0xffffbd01

10001ea4 <lock_init>:
10001ea4:	4b02      	ldr	r3, [pc, #8]	@ (10001eb0 <lock_init+0xc>)
10001ea6:	469c      	mov	ip, r3
10001ea8:	4461      	add	r1, ip
10001eaa:	0089      	lsls	r1, r1, #2
10001eac:	6001      	str	r1, [r0, #0]
10001eae:	4770      	bx	lr
10001eb0:	34000040 	.word	0x34000040

10001eb4 <runtime_init_mutex>:
10001eb4:	b5f8      	push	{r3, r4, r5, r6, r7, lr}
10001eb6:	4d13      	ldr	r5, [pc, #76]	@ (10001f04 <runtime_init_mutex+0x50>)
10001eb8:	4e13      	ldr	r6, [pc, #76]	@ (10001f08 <runtime_init_mutex+0x54>)
10001eba:	002c      	movs	r4, r5
10001ebc:	27ff      	movs	r7, #255	@ 0xff
10001ebe:	42b5      	cmp	r5, r6
10001ec0:	d21e      	bcs.n	10001f00 <runtime_init_mutex+0x4c>
10001ec2:	6823      	ldr	r3, [r4, #0]
10001ec4:	2b00      	cmp	r3, #0
10001ec6:	d00f      	beq.n	10001ee8 <runtime_init_mutex+0x34>
10001ec8:	f7ff fe40 	bl	10001b4c <next_striped_spin_lock_num>
10001ecc:	0001      	movs	r1, r0
10001ece:	0028      	movs	r0, r5
10001ed0:	f7ff ffe8 	bl	10001ea4 <lock_init>
10001ed4:	80a7      	strh	r7, [r4, #4]
10001ed6:	f3bf 8f5f 	dmb	sy
10001eda:	3408      	adds	r4, #8
10001edc:	42b4      	cmp	r4, r6
10001ede:	d20f      	bcs.n	10001f00 <runtime_init_mutex+0x4c>
10001ee0:	6823      	ldr	r3, [r4, #0]
10001ee2:	0025      	movs	r5, r4
10001ee4:	2b00      	cmp	r3, #0
10001ee6:	d1ef      	bne.n	10001ec8 <runtime_init_mutex+0x14>
10001ee8:	f7ff fe30 	bl	10001b4c <next_striped_spin_lock_num>
10001eec:	0001      	movs	r1, r0
10001eee:	0028      	movs	r0, r5
10001ef0:	f7ff ffd8 	bl	10001ea4 <lock_init>
10001ef4:	7127      	strb	r7, [r4, #4]
10001ef6:	f3bf 8f5f 	dmb	sy
10001efa:	3408      	adds	r4, #8
10001efc:	42b4      	cmp	r4, r6
10001efe:	d3ef      	bcc.n	10001ee0 <runtime_init_mutex+0x2c>
10001f00:	bdf8      	pop	{r3, r4, r5, r6, r7, pc}
10001f02:	46c0      	nop			@ (mov r8, r8)
10001f04:	20000668 	.word	0x20000668
10001f08:	20000670 	.word	0x20000670

10001f0c <sleep_until_callback>:
10001f0c:	4b0a      	ldr	r3, [pc, #40]	@ (10001f38 <sleep_until_callback+0x2c>)
10001f0e:	6819      	ldr	r1, [r3, #0]
10001f10:	f3ef 8010 	mrs	r0, PRIMASK
10001f14:	b672      	cpsid	i
10001f16:	680a      	ldr	r2, [r1, #0]
10001f18:	2a00      	cmp	r2, #0
10001f1a:	d0fc      	beq.n	10001f16 <sleep_until_callback+0xa>
10001f1c:	f3bf 8f5f 	dmb	sy
10001f20:	681b      	ldr	r3, [r3, #0]
10001f22:	f3bf 8f5f 	dmb	sy
10001f26:	2200      	movs	r2, #0
10001f28:	601a      	str	r2, [r3, #0]
10001f2a:	f380 8810 	msr	PRIMASK, r0
10001f2e:	bf40      	sev
10001f30:	2000      	movs	r0, #0
10001f32:	2100      	movs	r1, #0
10001f34:	4770      	bx	lr
10001f36:	46c0      	nop			@ (mov r8, r8)
10001f38:	20000a68 	.word	0x20000a68

10001f3c <alarm_pool_irq_handler>:
10001f3c:	b5f0      	push	{r4, r5, r6, r7, lr}
10001f3e:	46de      	mov	lr, fp
10001f40:	4657      	mov	r7, sl
10001f42:	464e      	mov	r6, r9
10001f44:	4645      	mov	r5, r8
10001f46:	b5e0      	push	{r5, r6, r7, lr}
10001f48:	b085      	sub	sp, #20
10001f4a:	f3ef 8205 	mrs	r2, IPSR
10001f4e:	2303      	movs	r3, #3
10001f50:	4013      	ands	r3, r2
10001f52:	4ab6      	ldr	r2, [pc, #728]	@ (1000222c <alarm_pool_irq_handler+0x2f0>)
10001f54:	0099      	lsls	r1, r3, #2
10001f56:	5857      	ldr	r7, [r2, r1]
10001f58:	2201      	movs	r2, #1
10001f5a:	409a      	lsls	r2, r3
10001f5c:	4688      	mov	r8, r1
10001f5e:	4693      	mov	fp, r2
10001f60:	4bb3      	ldr	r3, [pc, #716]	@ (10002230 <alarm_pool_irq_handler+0x2f4>)
10001f62:	601a      	str	r2, [r3, #0]
10001f64:	4bb3      	ldr	r3, [pc, #716]	@ (10002234 <alarm_pool_irq_handler+0x2f8>)
10001f66:	9302      	str	r3, [sp, #8]
10001f68:	465b      	mov	r3, fp
10001f6a:	48b3      	ldr	r0, [pc, #716]	@ (10002238 <alarm_pool_irq_handler+0x2fc>)
10001f6c:	6343      	str	r3, [r0, #52]	@ 0x34
10001f6e:	2308      	movs	r3, #8
10001f70:	5efe      	ldrsh	r6, [r7, r3]
10001f72:	2e00      	cmp	r6, #0
10001f74:	da35      	bge.n	10001fe2 <alarm_pool_irq_handler+0xa6>
10001f76:	88bb      	ldrh	r3, [r7, #4]
10001f78:	b21b      	sxth	r3, r3
10001f7a:	2b00      	cmp	r3, #0
10001f7c:	db00      	blt.n	10001f80 <alarm_pool_irq_handler+0x44>
10001f7e:	e0a8      	b.n	100020d2 <alarm_pool_irq_handler+0x196>
10001f80:	79bb      	ldrb	r3, [r7, #6]
10001f82:	2b00      	cmp	r3, #0
10001f84:	d000      	beq.n	10001f88 <alarm_pool_irq_handler+0x4c>
10001f86:	e0e9      	b.n	1000215c <alarm_pool_irq_handler+0x220>
10001f88:	2308      	movs	r3, #8
10001f8a:	5ef8      	ldrsh	r0, [r7, r3]
10001f8c:	2800      	cmp	r0, #0
10001f8e:	db1e      	blt.n	10001fce <alarm_pool_irq_handler+0x92>
10001f90:	0043      	lsls	r3, r0, #1
10001f92:	697a      	ldr	r2, [r7, #20]
10001f94:	181b      	adds	r3, r3, r0
10001f96:	00db      	lsls	r3, r3, #3
10001f98:	18d3      	adds	r3, r2, r3
10001f9a:	689d      	ldr	r5, [r3, #8]
10001f9c:	68dc      	ldr	r4, [r3, #12]
10001f9e:	1c6b      	adds	r3, r5, #1
10001fa0:	d100      	bne.n	10001fa4 <alarm_pool_irq_handler+0x68>
10001fa2:	e108      	b.n	100021b6 <alarm_pool_irq_handler+0x27a>
10001fa4:	48a4      	ldr	r0, [pc, #656]	@ (10002238 <alarm_pool_irq_handler+0x2fc>)
10001fa6:	0001      	movs	r1, r0
10001fa8:	4441      	add	r1, r8
10001faa:	6a82      	ldr	r2, [r0, #40]	@ 0x28
10001fac:	690b      	ldr	r3, [r1, #16]
10001fae:	1aae      	subs	r6, r5, r2
10001fb0:	1a9b      	subs	r3, r3, r2
10001fb2:	429e      	cmp	r6, r3
10001fb4:	d313      	bcc.n	10001fde <alarm_pool_irq_handler+0xa2>
10001fb6:	465a      	mov	r2, fp
10001fb8:	6a03      	ldr	r3, [r0, #32]
10001fba:	421a      	tst	r2, r3
10001fbc:	d00f      	beq.n	10001fde <alarm_pool_irq_handler+0xa2>
10001fbe:	489e      	ldr	r0, [pc, #632]	@ (10002238 <alarm_pool_irq_handler+0x2fc>)
10001fc0:	f000 fbe4 	bl	1000278c <timer_time_us_64>
10001fc4:	428c      	cmp	r4, r1
10001fc6:	dc02      	bgt.n	10001fce <alarm_pool_irq_handler+0x92>
10001fc8:	d1ce      	bne.n	10001f68 <alarm_pool_irq_handler+0x2c>
10001fca:	4285      	cmp	r5, r0
10001fcc:	d9cc      	bls.n	10001f68 <alarm_pool_irq_handler+0x2c>
10001fce:	bf40      	sev
10001fd0:	b005      	add	sp, #20
10001fd2:	bcf0      	pop	{r4, r5, r6, r7}
10001fd4:	46bb      	mov	fp, r7
10001fd6:	46b2      	mov	sl, r6
10001fd8:	46a9      	mov	r9, r5
10001fda:	46a0      	mov	r8, r4
10001fdc:	bdf0      	pop	{r4, r5, r6, r7, pc}
10001fde:	610d      	str	r5, [r1, #16]
10001fe0:	e7ed      	b.n	10001fbe <alarm_pool_irq_handler+0x82>
10001fe2:	697a      	ldr	r2, [r7, #20]
10001fe4:	0073      	lsls	r3, r6, #1
10001fe6:	4691      	mov	r9, r2
10001fe8:	199b      	adds	r3, r3, r6
10001fea:	00db      	lsls	r3, r3, #3
10001fec:	4499      	add	r9, r3
10001fee:	464b      	mov	r3, r9
10001ff0:	689c      	ldr	r4, [r3, #8]
10001ff2:	68dd      	ldr	r5, [r3, #12]
10001ff4:	f000 fbca 	bl	1000278c <timer_time_us_64>
10001ff8:	428d      	cmp	r5, r1
10001ffa:	dcbc      	bgt.n	10001f76 <alarm_pool_irq_handler+0x3a>
10001ffc:	d100      	bne.n	10002000 <alarm_pool_irq_handler+0xc4>
10001ffe:	e0fe      	b.n	100021fe <alarm_pool_irq_handler+0x2c2>
10002000:	2d00      	cmp	r5, #0
10002002:	da00      	bge.n	10002006 <alarm_pool_irq_handler+0xca>
10002004:	e0e3      	b.n	100021ce <alarm_pool_irq_handler+0x292>
10002006:	464b      	mov	r3, r9
10002008:	9a02      	ldr	r2, [sp, #8]
1000200a:	691b      	ldr	r3, [r3, #16]
1000200c:	4293      	cmp	r3, r2
1000200e:	d100      	bne.n	10002012 <alarm_pool_irq_handler+0xd6>
10002010:	e0d5      	b.n	100021be <alarm_pool_irq_handler+0x282>
10002012:	464a      	mov	r2, r9
10002014:	8852      	ldrh	r2, [r2, #2]
10002016:	4649      	mov	r1, r9
10002018:	4694      	mov	ip, r2
1000201a:	2208      	movs	r2, #8
1000201c:	5eb8      	ldrsh	r0, [r7, r2]
1000201e:	4662      	mov	r2, ip
10002020:	0400      	lsls	r0, r0, #16
10002022:	6949      	ldr	r1, [r1, #20]
10002024:	4310      	orrs	r0, r2
10002026:	4798      	blx	r3
10002028:	9000      	str	r0, [sp, #0]
1000202a:	9101      	str	r1, [sp, #4]
1000202c:	9900      	ldr	r1, [sp, #0]
1000202e:	9a01      	ldr	r2, [sp, #4]
10002030:	000b      	movs	r3, r1
10002032:	0010      	movs	r0, r2
10002034:	4313      	orrs	r3, r2
10002036:	d100      	bne.n	1000203a <alarm_pool_irq_handler+0xfe>
10002038:	e0c9      	b.n	100021ce <alarm_pool_irq_handler+0x292>
1000203a:	0013      	movs	r3, r2
1000203c:	000a      	movs	r2, r1
1000203e:	2800      	cmp	r0, #0
10002040:	db00      	blt.n	10002044 <alarm_pool_irq_handler+0x108>
10002042:	e0e0      	b.n	10002206 <alarm_pool_irq_handler+0x2ca>
10002044:	0020      	movs	r0, r4
10002046:	0029      	movs	r1, r5
10002048:	1a80      	subs	r0, r0, r2
1000204a:	4199      	sbcs	r1, r3
1000204c:	464b      	mov	r3, r9
1000204e:	6098      	str	r0, [r3, #8]
10002050:	60d9      	str	r1, [r3, #12]
10002052:	2200      	movs	r2, #0
10002054:	5e9a      	ldrsh	r2, [r3, r2]
10002056:	2a00      	cmp	r2, #0
10002058:	da00      	bge.n	1000205c <alarm_pool_irq_handler+0x120>
1000205a:	e78c      	b.n	10001f76 <alarm_pool_irq_handler+0x3a>
1000205c:	0053      	lsls	r3, r2, #1
1000205e:	189c      	adds	r4, r3, r2
10002060:	697d      	ldr	r5, [r7, #20]
10002062:	00e4      	lsls	r4, r4, #3
10002064:	192c      	adds	r4, r5, r4
10002066:	9300      	str	r3, [sp, #0]
10002068:	68a3      	ldr	r3, [r4, #8]
1000206a:	68e4      	ldr	r4, [r4, #12]
1000206c:	469a      	mov	sl, r3
1000206e:	428c      	cmp	r4, r1
10002070:	dd00      	ble.n	10002074 <alarm_pool_irq_handler+0x138>
10002072:	e780      	b.n	10001f76 <alarm_pool_irq_handler+0x3a>
10002074:	d102      	bne.n	1000207c <alarm_pool_irq_handler+0x140>
10002076:	4283      	cmp	r3, r0
10002078:	d900      	bls.n	1000207c <alarm_pool_irq_handler+0x140>
1000207a:	e77c      	b.n	10001f76 <alarm_pool_irq_handler+0x3a>
1000207c:	2308      	movs	r3, #8
1000207e:	469c      	mov	ip, r3
10002080:	44bc      	add	ip, r7
10002082:	813a      	strh	r2, [r7, #8]
10002084:	9703      	str	r7, [sp, #12]
10002086:	4667      	mov	r7, ip
10002088:	9b00      	ldr	r3, [sp, #0]
1000208a:	46b4      	mov	ip, r6
1000208c:	003e      	movs	r6, r7
1000208e:	e00e      	b.n	100020ae <alarm_pool_irq_handler+0x172>
10002090:	428c      	cmp	r4, r1
10002092:	d100      	bne.n	10002096 <alarm_pool_irq_handler+0x15a>
10002094:	e0c5      	b.n	10002222 <alarm_pool_irq_handler+0x2e6>
10002096:	001e      	movs	r6, r3
10002098:	2300      	movs	r3, #0
1000209a:	5ef2      	ldrsh	r2, [r6, r3]
1000209c:	2a00      	cmp	r2, #0
1000209e:	db0b      	blt.n	100020b8 <alarm_pool_irq_handler+0x17c>
100020a0:	0053      	lsls	r3, r2, #1
100020a2:	189c      	adds	r4, r3, r2
100020a4:	00e4      	lsls	r4, r4, #3
100020a6:	192c      	adds	r4, r5, r4
100020a8:	68a7      	ldr	r7, [r4, #8]
100020aa:	68e4      	ldr	r4, [r4, #12]
100020ac:	46ba      	mov	sl, r7
100020ae:	189b      	adds	r3, r3, r2
100020b0:	00db      	lsls	r3, r3, #3
100020b2:	18eb      	adds	r3, r5, r3
100020b4:	428c      	cmp	r4, r1
100020b6:	ddeb      	ble.n	10002090 <alarm_pool_irq_handler+0x154>
100020b8:	0033      	movs	r3, r6
100020ba:	4666      	mov	r6, ip
100020bc:	469c      	mov	ip, r3
100020be:	464b      	mov	r3, r9
100020c0:	801a      	strh	r2, [r3, #0]
100020c2:	4663      	mov	r3, ip
100020c4:	9f03      	ldr	r7, [sp, #12]
100020c6:	801e      	strh	r6, [r3, #0]
100020c8:	88bb      	ldrh	r3, [r7, #4]
100020ca:	b21b      	sxth	r3, r3
100020cc:	2b00      	cmp	r3, #0
100020ce:	da00      	bge.n	100020d2 <alarm_pool_irq_handler+0x196>
100020d0:	e756      	b.n	10001f80 <alarm_pool_irq_handler+0x44>
100020d2:	693a      	ldr	r2, [r7, #16]
100020d4:	f3ef 8110 	mrs	r1, PRIMASK
100020d8:	b672      	cpsid	i
100020da:	6813      	ldr	r3, [r2, #0]
100020dc:	2b00      	cmp	r3, #0
100020de:	d0fc      	beq.n	100020da <alarm_pool_irq_handler+0x19e>
100020e0:	f3bf 8f5f 	dmb	sy
100020e4:	2301      	movs	r3, #1
100020e6:	88be      	ldrh	r6, [r7, #4]
100020e8:	425b      	negs	r3, r3
100020ea:	80bb      	strh	r3, [r7, #4]
100020ec:	b236      	sxth	r6, r6
100020ee:	693b      	ldr	r3, [r7, #16]
100020f0:	f3bf 8f5f 	dmb	sy
100020f4:	2200      	movs	r2, #0
100020f6:	601a      	str	r2, [r3, #0]
100020f8:	f381 8810 	msr	PRIMASK, r1
100020fc:	2e00      	cmp	r6, #0
100020fe:	da00      	bge.n	10002102 <alarm_pool_irq_handler+0x1c6>
10002100:	e73e      	b.n	10001f80 <alarm_pool_irq_handler+0x44>
10002102:	003b      	movs	r3, r7
10002104:	3308      	adds	r3, #8
10002106:	003a      	movs	r2, r7
10002108:	4699      	mov	r9, r3
1000210a:	697d      	ldr	r5, [r7, #20]
1000210c:	0073      	lsls	r3, r6, #1
1000210e:	199b      	adds	r3, r3, r6
10002110:	00db      	lsls	r3, r3, #3
10002112:	18eb      	adds	r3, r5, r3
10002114:	6899      	ldr	r1, [r3, #8]
10002116:	68dc      	ldr	r4, [r3, #12]
10002118:	468c      	mov	ip, r1
1000211a:	2008      	movs	r0, #8
1000211c:	5e11      	ldrsh	r1, [r2, r0]
1000211e:	4648      	mov	r0, r9
10002120:	2900      	cmp	r1, #0
10002122:	db10      	blt.n	10002146 <alarm_pool_irq_handler+0x20a>
10002124:	9300      	str	r3, [sp, #0]
10002126:	e006      	b.n	10002136 <alarm_pool_irq_handler+0x1fa>
10002128:	42a3      	cmp	r3, r4
1000212a:	d040      	beq.n	100021ae <alarm_pool_irq_handler+0x272>
1000212c:	2300      	movs	r3, #0
1000212e:	5ef9      	ldrsh	r1, [r7, r3]
10002130:	0038      	movs	r0, r7
10002132:	2900      	cmp	r1, #0
10002134:	db06      	blt.n	10002144 <alarm_pool_irq_handler+0x208>
10002136:	004f      	lsls	r7, r1, #1
10002138:	187f      	adds	r7, r7, r1
1000213a:	00ff      	lsls	r7, r7, #3
1000213c:	19ef      	adds	r7, r5, r7
1000213e:	68fb      	ldr	r3, [r7, #12]
10002140:	42a3      	cmp	r3, r4
10002142:	ddf1      	ble.n	10002128 <alarm_pool_irq_handler+0x1ec>
10002144:	9b00      	ldr	r3, [sp, #0]
10002146:	8006      	strh	r6, [r0, #0]
10002148:	2000      	movs	r0, #0
1000214a:	5e1e      	ldrsh	r6, [r3, r0]
1000214c:	8019      	strh	r1, [r3, #0]
1000214e:	2e00      	cmp	r6, #0
10002150:	dadc      	bge.n	1000210c <alarm_pool_irq_handler+0x1d0>
10002152:	0017      	movs	r7, r2
10002154:	79bb      	ldrb	r3, [r7, #6]
10002156:	2b00      	cmp	r3, #0
10002158:	d100      	bne.n	1000215c <alarm_pool_irq_handler+0x220>
1000215a:	e715      	b.n	10001f88 <alarm_pool_irq_handler+0x4c>
1000215c:	2300      	movs	r3, #0
1000215e:	71bb      	strb	r3, [r7, #6]
10002160:	003d      	movs	r5, r7
10002162:	2308      	movs	r3, #8
10002164:	5ef9      	ldrsh	r1, [r7, r3]
10002166:	3508      	adds	r5, #8
10002168:	1c4b      	adds	r3, r1, #1
1000216a:	d100      	bne.n	1000216e <alarm_pool_irq_handler+0x232>
1000216c:	e72f      	b.n	10001fce <alarm_pool_irq_handler+0x92>
1000216e:	697c      	ldr	r4, [r7, #20]
10002170:	0008      	movs	r0, r1
10002172:	46a4      	mov	ip, r4
10002174:	e003      	b.n	1000217e <alarm_pool_irq_handler+0x242>
10002176:	0035      	movs	r5, r6
10002178:	1c4b      	adds	r3, r1, #1
1000217a:	d100      	bne.n	1000217e <alarm_pool_irq_handler+0x242>
1000217c:	e706      	b.n	10001f8c <alarm_pool_irq_handler+0x50>
1000217e:	004b      	lsls	r3, r1, #1
10002180:	185b      	adds	r3, r3, r1
10002182:	000a      	movs	r2, r1
10002184:	4661      	mov	r1, ip
10002186:	00db      	lsls	r3, r3, #3
10002188:	18ce      	adds	r6, r1, r3
1000218a:	5ec9      	ldrsh	r1, [r1, r3]
1000218c:	8873      	ldrh	r3, [r6, #2]
1000218e:	b21b      	sxth	r3, r3
10002190:	2b00      	cmp	r3, #0
10002192:	daf0      	bge.n	10002176 <alarm_pool_irq_handler+0x23a>
10002194:	2301      	movs	r3, #1
10002196:	425b      	negs	r3, r3
10002198:	17dc      	asrs	r4, r3, #31
1000219a:	60b3      	str	r3, [r6, #8]
1000219c:	60f4      	str	r4, [r6, #12]
1000219e:	4282      	cmp	r2, r0
100021a0:	d0ea      	beq.n	10002178 <alarm_pool_irq_handler+0x23c>
100021a2:	8029      	strh	r1, [r5, #0]
100021a4:	893b      	ldrh	r3, [r7, #8]
100021a6:	0010      	movs	r0, r2
100021a8:	8033      	strh	r3, [r6, #0]
100021aa:	813a      	strh	r2, [r7, #8]
100021ac:	e7e4      	b.n	10002178 <alarm_pool_irq_handler+0x23c>
100021ae:	68bb      	ldr	r3, [r7, #8]
100021b0:	4563      	cmp	r3, ip
100021b2:	d9bb      	bls.n	1000212c <alarm_pool_irq_handler+0x1f0>
100021b4:	e7c6      	b.n	10002144 <alarm_pool_irq_handler+0x208>
100021b6:	1c63      	adds	r3, r4, #1
100021b8:	d000      	beq.n	100021bc <alarm_pool_irq_handler+0x280>
100021ba:	e6f3      	b.n	10001fa4 <alarm_pool_irq_handler+0x68>
100021bc:	e6ff      	b.n	10001fbe <alarm_pool_irq_handler+0x82>
100021be:	464b      	mov	r3, r9
100021c0:	695b      	ldr	r3, [r3, #20]
100021c2:	469a      	mov	sl, r3
100021c4:	691b      	ldr	r3, [r3, #16]
100021c6:	4650      	mov	r0, sl
100021c8:	4798      	blx	r3
100021ca:	2800      	cmp	r0, #0
100021cc:	d123      	bne.n	10002216 <alarm_pool_irq_handler+0x2da>
100021ce:	464b      	mov	r3, r9
100021d0:	881b      	ldrh	r3, [r3, #0]
100021d2:	693a      	ldr	r2, [r7, #16]
100021d4:	813b      	strh	r3, [r7, #8]
100021d6:	f3ef 8310 	mrs	r3, PRIMASK
100021da:	b672      	cpsid	i
100021dc:	6811      	ldr	r1, [r2, #0]
100021de:	2900      	cmp	r1, #0
100021e0:	d0fc      	beq.n	100021dc <alarm_pool_irq_handler+0x2a0>
100021e2:	f3bf 8f5f 	dmb	sy
100021e6:	4649      	mov	r1, r9
100021e8:	887a      	ldrh	r2, [r7, #2]
100021ea:	800a      	strh	r2, [r1, #0]
100021ec:	693a      	ldr	r2, [r7, #16]
100021ee:	807e      	strh	r6, [r7, #2]
100021f0:	f3bf 8f5f 	dmb	sy
100021f4:	2100      	movs	r1, #0
100021f6:	6011      	str	r1, [r2, #0]
100021f8:	f383 8810 	msr	PRIMASK, r3
100021fc:	e6bb      	b.n	10001f76 <alarm_pool_irq_handler+0x3a>
100021fe:	4284      	cmp	r4, r0
10002200:	d800      	bhi.n	10002204 <alarm_pool_irq_handler+0x2c8>
10002202:	e6fd      	b.n	10002000 <alarm_pool_irq_handler+0xc4>
10002204:	e6b7      	b.n	10001f76 <alarm_pool_irq_handler+0x3a>
10002206:	480c      	ldr	r0, [pc, #48]	@ (10002238 <alarm_pool_irq_handler+0x2fc>)
10002208:	f000 fac0 	bl	1000278c <timer_time_us_64>
1000220c:	9b00      	ldr	r3, [sp, #0]
1000220e:	9c01      	ldr	r4, [sp, #4]
10002210:	18c0      	adds	r0, r0, r3
10002212:	4161      	adcs	r1, r4
10002214:	e71a      	b.n	1000204c <alarm_pool_irq_handler+0x110>
10002216:	4653      	mov	r3, sl
10002218:	681a      	ldr	r2, [r3, #0]
1000221a:	685b      	ldr	r3, [r3, #4]
1000221c:	9200      	str	r2, [sp, #0]
1000221e:	9301      	str	r3, [sp, #4]
10002220:	e704      	b.n	1000202c <alarm_pool_irq_handler+0xf0>
10002222:	4582      	cmp	sl, r0
10002224:	d800      	bhi.n	10002228 <alarm_pool_irq_handler+0x2ec>
10002226:	e736      	b.n	10002096 <alarm_pool_irq_handler+0x15a>
10002228:	e746      	b.n	100020b8 <alarm_pool_irq_handler+0x17c>
1000222a:	46c0      	nop			@ (mov r8, r8)
1000222c:	20000a54 	.word	0x20000a54
10002230:	4005703c 	.word	0x4005703c
10002234:	10001f3d 	.word	0x10001f3d
10002238:	40054000 	.word	0x40054000

1000223c <runtime_init_default_alarm_pool>:
1000223c:	b570      	push	{r4, r5, r6, lr}
1000223e:	4c2e      	ldr	r4, [pc, #184]	@ (100022f8 <runtime_init_default_alarm_pool+0xbc>)
10002240:	6925      	ldr	r5, [r4, #16]
10002242:	2d00      	cmp	r5, #0
10002244:	d004      	beq.n	10002250 <runtime_init_default_alarm_pool+0x14>
10002246:	210a      	movs	r1, #10
10002248:	482c      	ldr	r0, [pc, #176]	@ (100022fc <runtime_init_default_alarm_pool+0xc0>)
1000224a:	f7ff fe2b 	bl	10001ea4 <lock_init>
1000224e:	bd70      	pop	{r4, r5, r6, pc}
10002250:	4e2b      	ldr	r6, [pc, #172]	@ (10002300 <runtime_init_default_alarm_pool+0xc4>)
10002252:	2103      	movs	r1, #3
10002254:	0030      	movs	r0, r6
10002256:	f000 fa8f 	bl	10002778 <timer_hardware_alarm_claim>
1000225a:	60e6      	str	r6, [r4, #12]
1000225c:	f7ff fc76 	bl	10001b4c <next_striped_spin_lock_num>
10002260:	4b28      	ldr	r3, [pc, #160]	@ (10002304 <runtime_init_default_alarm_pool+0xc8>)
10002262:	2203      	movs	r2, #3
10002264:	469c      	mov	ip, r3
10002266:	23d0      	movs	r3, #208	@ 0xd0
10002268:	7022      	strb	r2, [r4, #0]
1000226a:	061b      	lsls	r3, r3, #24
1000226c:	681b      	ldr	r3, [r3, #0]
1000226e:	2101      	movs	r1, #1
10002270:	7063      	strb	r3, [r4, #1]
10002272:	4b25      	ldr	r3, [pc, #148]	@ (10002308 <runtime_init_default_alarm_pool+0xcc>)
10002274:	4460      	add	r0, ip
10002276:	60a3      	str	r3, [r4, #8]
10002278:	230f      	movs	r3, #15
1000227a:	0080      	lsls	r0, r0, #2
1000227c:	6120      	str	r0, [r4, #16]
1000227e:	2002      	movs	r0, #2
10002280:	8063      	strh	r3, [r4, #2]
10002282:	6963      	ldr	r3, [r4, #20]
10002284:	4249      	negs	r1, r1
10002286:	80a1      	strh	r1, [r4, #4]
10002288:	8019      	strh	r1, [r3, #0]
1000228a:	3102      	adds	r1, #2
1000228c:	8619      	strh	r1, [r3, #48]	@ 0x30
1000228e:	3147      	adds	r1, #71	@ 0x47
10002290:	831d      	strh	r5, [r3, #24]
10002292:	5258      	strh	r0, [r3, r1]
10002294:	3118      	adds	r1, #24
10002296:	525a      	strh	r2, [r3, r1]
10002298:	3275      	adds	r2, #117	@ 0x75
1000229a:	395c      	subs	r1, #92	@ 0x5c
1000229c:	5299      	strh	r1, [r3, r2]
1000229e:	3218      	adds	r2, #24
100022a0:	3101      	adds	r1, #1
100022a2:	5299      	strh	r1, [r3, r2]
100022a4:	3218      	adds	r2, #24
100022a6:	3101      	adds	r1, #1
100022a8:	5299      	strh	r1, [r3, r2]
100022aa:	3218      	adds	r2, #24
100022ac:	3101      	adds	r1, #1
100022ae:	5299      	strh	r1, [r3, r2]
100022b0:	3508      	adds	r5, #8
100022b2:	3218      	adds	r2, #24
100022b4:	529d      	strh	r5, [r3, r2]
100022b6:	3102      	adds	r1, #2
100022b8:	3218      	adds	r2, #24
100022ba:	5299      	strh	r1, [r3, r2]
100022bc:	3218      	adds	r2, #24
100022be:	3101      	adds	r1, #1
100022c0:	5299      	strh	r1, [r3, r2]
100022c2:	3218      	adds	r2, #24
100022c4:	3101      	adds	r1, #1
100022c6:	5299      	strh	r1, [r3, r2]
100022c8:	3218      	adds	r2, #24
100022ca:	3101      	adds	r1, #1
100022cc:	5299      	strh	r1, [r3, r2]
100022ce:	3218      	adds	r2, #24
100022d0:	3101      	adds	r1, #1
100022d2:	5299      	strh	r1, [r3, r2]
100022d4:	3218      	adds	r2, #24
100022d6:	3101      	adds	r1, #1
100022d8:	5299      	strh	r1, [r3, r2]
100022da:	4b0c      	ldr	r3, [pc, #48]	@ (1000230c <runtime_init_default_alarm_pool+0xd0>)
100022dc:	490c      	ldr	r1, [pc, #48]	@ (10002310 <runtime_init_default_alarm_pool+0xd4>)
100022de:	60dc      	str	r4, [r3, #12]
100022e0:	3001      	adds	r0, #1
100022e2:	6235      	str	r5, [r6, #32]
100022e4:	f7ff fc70 	bl	10001bc8 <irq_set_exclusive_handler>
100022e8:	2101      	movs	r1, #1
100022ea:	2003      	movs	r0, #3
100022ec:	f7ff fc5a 	bl	10001ba4 <irq_set_enabled>
100022f0:	4b08      	ldr	r3, [pc, #32]	@ (10002314 <runtime_init_default_alarm_pool+0xd8>)
100022f2:	601d      	str	r5, [r3, #0]
100022f4:	e7a7      	b.n	10002246 <runtime_init_default_alarm_pool+0xa>
100022f6:	46c0      	nop			@ (mov r8, r8)
100022f8:	200001e8 	.word	0x200001e8
100022fc:	20000a68 	.word	0x20000a68
10002300:	40054000 	.word	0x40054000
10002304:	34000040 	.word	0x34000040
10002308:	0010ffff 	.word	0x0010ffff
1000230c:	20000a54 	.word	0x20000a54
10002310:	10001f3d 	.word	0x10001f3d
10002314:	40056038 	.word	0x40056038

10002318 <alarm_pool_get_default>:
10002318:	4800      	ldr	r0, [pc, #0]	@ (1000231c <alarm_pool_get_default+0x4>)
1000231a:	4770      	bx	lr
1000231c:	200001e8 	.word	0x200001e8

10002320 <alarm_pool_add_alarm_at_force_in_context>:
10002320:	b570      	push	{r4, r5, r6, lr}
10002322:	0001      	movs	r1, r0
10002324:	6904      	ldr	r4, [r0, #16]
10002326:	f3ef 8c10 	mrs	ip, PRIMASK
1000232a:	b672      	cpsid	i
1000232c:	6820      	ldr	r0, [r4, #0]
1000232e:	2800      	cmp	r0, #0
10002330:	d0fc      	beq.n	1000232c <alarm_pool_add_alarm_at_force_in_context+0xc>
10002332:	f3bf 8f5f 	dmb	sy
10002336:	2002      	movs	r0, #2
10002338:	5e0d      	ldrsh	r5, [r1, r0]
1000233a:	694c      	ldr	r4, [r1, #20]
1000233c:	0068      	lsls	r0, r5, #1
1000233e:	1940      	adds	r0, r0, r5
10002340:	00c0      	lsls	r0, r0, #3
10002342:	1824      	adds	r4, r4, r0
10002344:	2d00      	cmp	r5, #0
10002346:	db37      	blt.n	100023b8 <alarm_pool_add_alarm_at_force_in_context+0x98>
10002348:	8820      	ldrh	r0, [r4, #0]
1000234a:	8048      	strh	r0, [r1, #2]
1000234c:	6908      	ldr	r0, [r1, #16]
1000234e:	f3bf 8f5f 	dmb	sy
10002352:	2600      	movs	r6, #0
10002354:	6006      	str	r6, [r0, #0]
10002356:	f38c 8810 	msr	PRIMASK, ip
1000235a:	60e3      	str	r3, [r4, #12]
1000235c:	8863      	ldrh	r3, [r4, #2]
1000235e:	9804      	ldr	r0, [sp, #16]
10002360:	3301      	adds	r3, #1
10002362:	6120      	str	r0, [r4, #16]
10002364:	045b      	lsls	r3, r3, #17
10002366:	9805      	ldr	r0, [sp, #20]
10002368:	0c5b      	lsrs	r3, r3, #17
1000236a:	60a2      	str	r2, [r4, #8]
1000236c:	6160      	str	r0, [r4, #20]
1000236e:	1c1a      	adds	r2, r3, #0
10002370:	2b00      	cmp	r3, #0
10002372:	d01f      	beq.n	100023b4 <alarm_pool_add_alarm_at_force_in_context+0x94>
10002374:	b293      	uxth	r3, r2
10002376:	0428      	lsls	r0, r5, #16
10002378:	8062      	strh	r2, [r4, #2]
1000237a:	4318      	orrs	r0, r3
1000237c:	690a      	ldr	r2, [r1, #16]
1000237e:	f3ef 8c10 	mrs	ip, PRIMASK
10002382:	b672      	cpsid	i
10002384:	6813      	ldr	r3, [r2, #0]
10002386:	2b00      	cmp	r3, #0
10002388:	d0fc      	beq.n	10002384 <alarm_pool_add_alarm_at_force_in_context+0x64>
1000238a:	f3bf 8f5f 	dmb	sy
1000238e:	888b      	ldrh	r3, [r1, #4]
10002390:	8023      	strh	r3, [r4, #0]
10002392:	808d      	strh	r5, [r1, #4]
10002394:	690b      	ldr	r3, [r1, #16]
10002396:	f3bf 8f5f 	dmb	sy
1000239a:	2200      	movs	r2, #0
1000239c:	601a      	str	r2, [r3, #0]
1000239e:	f38c 8810 	msr	PRIMASK, ip
100023a2:	780b      	ldrb	r3, [r1, #0]
100023a4:	3201      	adds	r2, #1
100023a6:	409a      	lsls	r2, r3
100023a8:	68cb      	ldr	r3, [r1, #12]
100023aa:	4908      	ldr	r1, [pc, #32]	@ (100023cc <alarm_pool_add_alarm_at_force_in_context+0xac>)
100023ac:	468c      	mov	ip, r1
100023ae:	4463      	add	r3, ip
100023b0:	601a      	str	r2, [r3, #0]
100023b2:	bd70      	pop	{r4, r5, r6, pc}
100023b4:	2201      	movs	r2, #1
100023b6:	e7dd      	b.n	10002374 <alarm_pool_add_alarm_at_force_in_context+0x54>
100023b8:	690b      	ldr	r3, [r1, #16]
100023ba:	f3bf 8f5f 	dmb	sy
100023be:	2200      	movs	r2, #0
100023c0:	601a      	str	r2, [r3, #0]
100023c2:	f38c 8810 	msr	PRIMASK, ip
100023c6:	2001      	movs	r0, #1
100023c8:	4240      	negs	r0, r0
100023ca:	e7f2      	b.n	100023b2 <alarm_pool_add_alarm_at_force_in_context+0x92>
100023cc:	0000203c 	.word	0x0000203c

100023d0 <alarm_pool_cancel_alarm>:
100023d0:	b510      	push	{r4, lr}
100023d2:	8943      	ldrh	r3, [r0, #10]
100023d4:	140a      	asrs	r2, r1, #16
100023d6:	4293      	cmp	r3, r2
100023d8:	dd1a      	ble.n	10002410 <alarm_pool_cancel_alarm+0x40>
100023da:	0053      	lsls	r3, r2, #1
100023dc:	189b      	adds	r3, r3, r2
100023de:	6942      	ldr	r2, [r0, #20]
100023e0:	00db      	lsls	r3, r3, #3
100023e2:	18d3      	adds	r3, r2, r3
100023e4:	6904      	ldr	r4, [r0, #16]
100023e6:	f3ef 8c10 	mrs	ip, PRIMASK
100023ea:	b672      	cpsid	i
100023ec:	6822      	ldr	r2, [r4, #0]
100023ee:	2a00      	cmp	r2, #0
100023f0:	d0fc      	beq.n	100023ec <alarm_pool_cancel_alarm+0x1c>
100023f2:	f3bf 8f5f 	dmb	sy
100023f6:	885a      	ldrh	r2, [r3, #2]
100023f8:	0409      	lsls	r1, r1, #16
100023fa:	b294      	uxth	r4, r2
100023fc:	0c09      	lsrs	r1, r1, #16
100023fe:	428a      	cmp	r2, r1
10002400:	d008      	beq.n	10002414 <alarm_pool_cancel_alarm+0x44>
10002402:	6903      	ldr	r3, [r0, #16]
10002404:	f3bf 8f5f 	dmb	sy
10002408:	2200      	movs	r2, #0
1000240a:	601a      	str	r2, [r3, #0]
1000240c:	f38c 8810 	msr	PRIMASK, ip
10002410:	2000      	movs	r0, #0
10002412:	bd10      	pop	{r4, pc}
10002414:	2280      	movs	r2, #128	@ 0x80
10002416:	0212      	lsls	r2, r2, #8
10002418:	4314      	orrs	r4, r2
1000241a:	805c      	strh	r4, [r3, #2]
1000241c:	2301      	movs	r3, #1
1000241e:	6902      	ldr	r2, [r0, #16]
10002420:	7183      	strb	r3, [r0, #6]
10002422:	f3bf 8f5f 	dmb	sy
10002426:	2100      	movs	r1, #0
10002428:	6011      	str	r1, [r2, #0]
1000242a:	f38c 8810 	msr	PRIMASK, ip
1000242e:	4904      	ldr	r1, [pc, #16]	@ (10002440 <alarm_pool_cancel_alarm+0x70>)
10002430:	7802      	ldrb	r2, [r0, #0]
10002432:	468c      	mov	ip, r1
10002434:	4093      	lsls	r3, r2
10002436:	68c2      	ldr	r2, [r0, #12]
10002438:	2001      	movs	r0, #1
1000243a:	4462      	add	r2, ip
1000243c:	6013      	str	r3, [r2, #0]
1000243e:	e7e8      	b.n	10002412 <alarm_pool_cancel_alarm+0x42>
10002440:	0000203c 	.word	0x0000203c

10002444 <sleep_until>:
10002444:	b5f0      	push	{r4, r5, r6, r7, lr}
10002446:	0004      	movs	r4, r0
10002448:	000d      	movs	r5, r1
1000244a:	2606      	movs	r6, #6
1000244c:	4276      	negs	r6, r6
1000244e:	17f7      	asrs	r7, r6, #31
10002450:	46c6      	mov	lr, r8
10002452:	1936      	adds	r6, r6, r4
10002454:	416f      	adcs	r7, r5
10002456:	b500      	push	{lr}
10002458:	b082      	sub	sp, #8
1000245a:	428f      	cmp	r7, r1
1000245c:	d814      	bhi.n	10002488 <sleep_until+0x44>
1000245e:	d011      	beq.n	10002484 <sleep_until+0x40>
10002460:	f000 f99c 	bl	1000279c <time_us_64>
10002464:	0032      	movs	r2, r6
10002466:	003b      	movs	r3, r7
10002468:	1a12      	subs	r2, r2, r0
1000246a:	418b      	sbcs	r3, r1
1000246c:	2b00      	cmp	r3, #0
1000246e:	dc17      	bgt.n	100024a0 <sleep_until+0x5c>
10002470:	2b00      	cmp	r3, #0
10002472:	d047      	beq.n	10002504 <sleep_until+0xc0>
10002474:	0020      	movs	r0, r4
10002476:	0029      	movs	r1, r5
10002478:	f000 f9ce 	bl	10002818 <busy_wait_until>
1000247c:	b002      	add	sp, #8
1000247e:	bc80      	pop	{r7}
10002480:	46b8      	mov	r8, r7
10002482:	bdf0      	pop	{r4, r5, r6, r7, pc}
10002484:	4286      	cmp	r6, r0
10002486:	d9eb      	bls.n	10002460 <sleep_until+0x1c>
10002488:	2200      	movs	r2, #0
1000248a:	2300      	movs	r3, #0
1000248c:	0016      	movs	r6, r2
1000248e:	001f      	movs	r7, r3
10002490:	f000 f984 	bl	1000279c <time_us_64>
10002494:	0032      	movs	r2, r6
10002496:	003b      	movs	r3, r7
10002498:	1a12      	subs	r2, r2, r0
1000249a:	418b      	sbcs	r3, r1
1000249c:	2b00      	cmp	r3, #0
1000249e:	dde7      	ble.n	10002470 <sleep_until+0x2c>
100024a0:	f000 f97c 	bl	1000279c <time_us_64>
100024a4:	0032      	movs	r2, r6
100024a6:	003b      	movs	r3, r7
100024a8:	1a12      	subs	r2, r2, r0
100024aa:	418b      	sbcs	r3, r1
100024ac:	2b00      	cmp	r3, #0
100024ae:	db0a      	blt.n	100024c6 <sleep_until+0x82>
100024b0:	2300      	movs	r3, #0
100024b2:	9301      	str	r3, [sp, #4]
100024b4:	4b15      	ldr	r3, [pc, #84]	@ (1000250c <sleep_until+0xc8>)
100024b6:	0032      	movs	r2, r6
100024b8:	9300      	str	r3, [sp, #0]
100024ba:	4815      	ldr	r0, [pc, #84]	@ (10002510 <sleep_until+0xcc>)
100024bc:	003b      	movs	r3, r7
100024be:	f7ff ff2f 	bl	10002320 <alarm_pool_add_alarm_at_force_in_context>
100024c2:	2800      	cmp	r0, #0
100024c4:	dbd6      	blt.n	10002474 <sleep_until+0x30>
100024c6:	2300      	movs	r3, #0
100024c8:	469c      	mov	ip, r3
100024ca:	46b0      	mov	r8, r6
100024cc:	4a11      	ldr	r2, [pc, #68]	@ (10002514 <sleep_until+0xd0>)
100024ce:	4e12      	ldr	r6, [pc, #72]	@ (10002518 <sleep_until+0xd4>)
100024d0:	6a73      	ldr	r3, [r6, #36]	@ 0x24
100024d2:	429f      	cmp	r7, r3
100024d4:	d804      	bhi.n	100024e0 <sleep_until+0x9c>
100024d6:	6ab1      	ldr	r1, [r6, #40]	@ 0x28
100024d8:	4541      	cmp	r1, r8
100024da:	d2cb      	bcs.n	10002474 <sleep_until+0x30>
100024dc:	429f      	cmp	r7, r3
100024de:	d1c9      	bne.n	10002474 <sleep_until+0x30>
100024e0:	6811      	ldr	r1, [r2, #0]
100024e2:	f3ef 8010 	mrs	r0, PRIMASK
100024e6:	b672      	cpsid	i
100024e8:	680b      	ldr	r3, [r1, #0]
100024ea:	2b00      	cmp	r3, #0
100024ec:	d0fc      	beq.n	100024e8 <sleep_until+0xa4>
100024ee:	f3bf 8f5f 	dmb	sy
100024f2:	6813      	ldr	r3, [r2, #0]
100024f4:	f3bf 8f5f 	dmb	sy
100024f8:	4661      	mov	r1, ip
100024fa:	6019      	str	r1, [r3, #0]
100024fc:	f380 8810 	msr	PRIMASK, r0
10002500:	bf20      	wfe
10002502:	e7e5      	b.n	100024d0 <sleep_until+0x8c>
10002504:	2a00      	cmp	r2, #0
10002506:	d0b5      	beq.n	10002474 <sleep_until+0x30>
10002508:	e7ca      	b.n	100024a0 <sleep_until+0x5c>
1000250a:	46c0      	nop			@ (mov r8, r8)
1000250c:	10001f0d 	.word	0x10001f0d
10002510:	200001e8 	.word	0x200001e8
10002514:	20000a68 	.word	0x20000a68
10002518:	40054000 	.word	0x40054000

1000251c <sleep_ms>:
1000251c:	b570      	push	{r4, r5, r6, lr}
1000251e:	0006      	movs	r6, r0
10002520:	f000 f93c 	bl	1000279c <time_us_64>
10002524:	22fa      	movs	r2, #250	@ 0xfa
10002526:	0004      	movs	r4, r0
10002528:	000d      	movs	r5, r1
1000252a:	2300      	movs	r3, #0
1000252c:	0030      	movs	r0, r6
1000252e:	2100      	movs	r1, #0
10002530:	0092      	lsls	r2, r2, #2
10002532:	f001 fac5 	bl	10003ac0 <__wrap___aeabi_lmul>
10002536:	2380      	movs	r3, #128	@ 0x80
10002538:	1900      	adds	r0, r0, r4
1000253a:	4169      	adcs	r1, r5
1000253c:	061b      	lsls	r3, r3, #24
1000253e:	4299      	cmp	r1, r3
10002540:	d302      	bcc.n	10002548 <sleep_ms+0x2c>
10002542:	2001      	movs	r0, #1
10002544:	4902      	ldr	r1, [pc, #8]	@ (10002550 <sleep_ms+0x34>)
10002546:	4240      	negs	r0, r0
10002548:	f7ff ff7c 	bl	10002444 <sleep_until>
1000254c:	bd70      	pop	{r4, r5, r6, pc}
1000254e:	46c0      	nop			@ (mov r8, r8)
10002550:	7fffffff 	.word	0x7fffffff

10002554 <best_effort_wfe_or_timeout>:
10002554:	b5f0      	push	{r4, r5, r6, r7, lr}
10002556:	46ce      	mov	lr, r9
10002558:	4647      	mov	r7, r8
1000255a:	b580      	push	{r7, lr}
1000255c:	0004      	movs	r4, r0
1000255e:	000d      	movs	r5, r1
10002560:	b083      	sub	sp, #12
10002562:	f3ef 8705 	mrs	r7, IPSR
10002566:	2f00      	cmp	r7, #0
10002568:	d00d      	beq.n	10002586 <best_effort_wfe_or_timeout+0x32>
1000256a:	4a36      	ldr	r2, [pc, #216]	@ (10002644 <best_effort_wfe_or_timeout+0xf0>)
1000256c:	2000      	movs	r0, #0
1000256e:	6a53      	ldr	r3, [r2, #36]	@ 0x24
10002570:	428b      	cmp	r3, r1
10002572:	d303      	bcc.n	1000257c <best_effort_wfe_or_timeout+0x28>
10002574:	6a92      	ldr	r2, [r2, #40]	@ 0x28
10002576:	3001      	adds	r0, #1
10002578:	42a2      	cmp	r2, r4
1000257a:	d350      	bcc.n	1000261e <best_effort_wfe_or_timeout+0xca>
1000257c:	b003      	add	sp, #12
1000257e:	bcc0      	pop	{r6, r7}
10002580:	46b9      	mov	r9, r7
10002582:	46b0      	mov	r8, r6
10002584:	bdf0      	pop	{r4, r5, r6, r7, pc}
10002586:	4b30      	ldr	r3, [pc, #192]	@ (10002648 <best_effort_wfe_or_timeout+0xf4>)
10002588:	4698      	mov	r8, r3
1000258a:	68db      	ldr	r3, [r3, #12]
1000258c:	4699      	mov	r9, r3
1000258e:	4643      	mov	r3, r8
10002590:	4648      	mov	r0, r9
10002592:	781e      	ldrb	r6, [r3, #0]
10002594:	f000 f8fa 	bl	1000278c <timer_time_us_64>
10002598:	000b      	movs	r3, r1
1000259a:	4649      	mov	r1, r9
1000259c:	0002      	movs	r2, r0
1000259e:	3604      	adds	r6, #4
100025a0:	00b6      	lsls	r6, r6, #2
100025a2:	5871      	ldr	r1, [r6, r1]
100025a4:	0020      	movs	r0, r4
100025a6:	1a8e      	subs	r6, r1, r2
100025a8:	0029      	movs	r1, r5
100025aa:	1a80      	subs	r0, r0, r2
100025ac:	4199      	sbcs	r1, r3
100025ae:	428f      	cmp	r7, r1
100025b0:	dc11      	bgt.n	100025d6 <best_effort_wfe_or_timeout+0x82>
100025b2:	d00e      	beq.n	100025d2 <best_effort_wfe_or_timeout+0x7e>
100025b4:	bf20      	wfe
100025b6:	4a23      	ldr	r2, [pc, #140]	@ (10002644 <best_effort_wfe_or_timeout+0xf0>)
100025b8:	2000      	movs	r0, #0
100025ba:	6a53      	ldr	r3, [r2, #36]	@ 0x24
100025bc:	42ab      	cmp	r3, r5
100025be:	d3dd      	bcc.n	1000257c <best_effort_wfe_or_timeout+0x28>
100025c0:	6a92      	ldr	r2, [r2, #40]	@ 0x28
100025c2:	3001      	adds	r0, #1
100025c4:	42a2      	cmp	r2, r4
100025c6:	d2d9      	bcs.n	1000257c <best_effort_wfe_or_timeout+0x28>
100025c8:	1aeb      	subs	r3, r5, r3
100025ca:	1e5a      	subs	r2, r3, #1
100025cc:	4193      	sbcs	r3, r2
100025ce:	b2d8      	uxtb	r0, r3
100025d0:	e7d4      	b.n	1000257c <best_effort_wfe_or_timeout+0x28>
100025d2:	4286      	cmp	r6, r0
100025d4:	d9ee      	bls.n	100025b4 <best_effort_wfe_or_timeout+0x60>
100025d6:	f000 f8e1 	bl	1000279c <time_us_64>
100025da:	0022      	movs	r2, r4
100025dc:	002b      	movs	r3, r5
100025de:	1a12      	subs	r2, r2, r0
100025e0:	418b      	sbcs	r3, r1
100025e2:	2b00      	cmp	r3, #0
100025e4:	db20      	blt.n	10002628 <best_effort_wfe_or_timeout+0xd4>
100025e6:	2300      	movs	r3, #0
100025e8:	9301      	str	r3, [sp, #4]
100025ea:	4b18      	ldr	r3, [pc, #96]	@ (1000264c <best_effort_wfe_or_timeout+0xf8>)
100025ec:	0022      	movs	r2, r4
100025ee:	9300      	str	r3, [sp, #0]
100025f0:	4640      	mov	r0, r8
100025f2:	002b      	movs	r3, r5
100025f4:	f7ff fe94 	bl	10002320 <alarm_pool_add_alarm_at_force_in_context>
100025f8:	1e01      	subs	r1, r0, #0
100025fa:	dd15      	ble.n	10002628 <best_effort_wfe_or_timeout+0xd4>
100025fc:	4b11      	ldr	r3, [pc, #68]	@ (10002644 <best_effort_wfe_or_timeout+0xf0>)
100025fe:	002e      	movs	r6, r5
10002600:	6a5a      	ldr	r2, [r3, #36]	@ 0x24
10002602:	4295      	cmp	r5, r2
10002604:	d81c      	bhi.n	10002640 <best_effort_wfe_or_timeout+0xec>
10002606:	6a9b      	ldr	r3, [r3, #40]	@ 0x28
10002608:	42a3      	cmp	r3, r4
1000260a:	d317      	bcc.n	1000263c <best_effort_wfe_or_timeout+0xe8>
1000260c:	4640      	mov	r0, r8
1000260e:	f7ff fedf 	bl	100023d0 <alarm_pool_cancel_alarm>
10002612:	4a0c      	ldr	r2, [pc, #48]	@ (10002644 <best_effort_wfe_or_timeout+0xf0>)
10002614:	2000      	movs	r0, #0
10002616:	6a53      	ldr	r3, [r2, #36]	@ 0x24
10002618:	429e      	cmp	r6, r3
1000261a:	d8af      	bhi.n	1000257c <best_effort_wfe_or_timeout+0x28>
1000261c:	e7d0      	b.n	100025c0 <best_effort_wfe_or_timeout+0x6c>
1000261e:	1a5b      	subs	r3, r3, r1
10002620:	1e5a      	subs	r2, r3, #1
10002622:	4193      	sbcs	r3, r2
10002624:	b2d8      	uxtb	r0, r3
10002626:	e7a9      	b.n	1000257c <best_effort_wfe_or_timeout+0x28>
10002628:	4a06      	ldr	r2, [pc, #24]	@ (10002644 <best_effort_wfe_or_timeout+0xf0>)
1000262a:	2000      	movs	r0, #0
1000262c:	6a53      	ldr	r3, [r2, #36]	@ 0x24
1000262e:	42ab      	cmp	r3, r5
10002630:	d3a4      	bcc.n	1000257c <best_effort_wfe_or_timeout+0x28>
10002632:	6a92      	ldr	r2, [r2, #40]	@ 0x28
10002634:	2001      	movs	r0, #1
10002636:	42a2      	cmp	r2, r4
10002638:	d2a0      	bcs.n	1000257c <best_effort_wfe_or_timeout+0x28>
1000263a:	e7c5      	b.n	100025c8 <best_effort_wfe_or_timeout+0x74>
1000263c:	4295      	cmp	r5, r2
1000263e:	d1e5      	bne.n	1000260c <best_effort_wfe_or_timeout+0xb8>
10002640:	bf20      	wfe
10002642:	e7e3      	b.n	1000260c <best_effort_wfe_or_timeout+0xb8>
10002644:	40054000 	.word	0x40054000
10002648:	200001e8 	.word	0x200001e8
1000264c:	10001f0d 	.word	0x10001f0d

10002650 <alarm_pool_add_repeating_timer_us>:
10002650:	b5f0      	push	{r4, r5, r6, r7, lr}
10002652:	46ce      	mov	lr, r9
10002654:	4647      	mov	r7, r8
10002656:	0011      	movs	r1, r2
10002658:	b580      	push	{r7, lr}
1000265a:	b083      	sub	sp, #12
1000265c:	0004      	movs	r4, r0
1000265e:	469c      	mov	ip, r3
10002660:	9d0c      	ldr	r5, [sp, #48]	@ 0x30
10002662:	4319      	orrs	r1, r3
10002664:	d100      	bne.n	10002668 <alarm_pool_add_repeating_timer_us+0x18>
10002666:	e06e      	b.n	10002746 <alarm_pool_add_repeating_timer_us+0xf6>
10002668:	4661      	mov	r1, ip
1000266a:	17db      	asrs	r3, r3, #31
1000266c:	9301      	str	r3, [sp, #4]
1000266e:	9300      	str	r3, [sp, #0]
10002670:	4053      	eors	r3, r2
10002672:	001e      	movs	r6, r3
10002674:	9b01      	ldr	r3, [sp, #4]
10002676:	404b      	eors	r3, r1
10002678:	001f      	movs	r7, r3
1000267a:	9800      	ldr	r0, [sp, #0]
1000267c:	9901      	ldr	r1, [sp, #4]
1000267e:	1a36      	subs	r6, r6, r0
10002680:	418f      	sbcs	r7, r1
10002682:	4663      	mov	r3, ip
10002684:	990a      	ldr	r1, [sp, #40]	@ 0x28
10002686:	606b      	str	r3, [r5, #4]
10002688:	9b0b      	ldr	r3, [sp, #44]	@ 0x2c
1000268a:	60ac      	str	r4, [r5, #8]
1000268c:	616b      	str	r3, [r5, #20]
1000268e:	6129      	str	r1, [r5, #16]
10002690:	602a      	str	r2, [r5, #0]
10002692:	f000 f883 	bl	1000279c <time_us_64>
10002696:	2380      	movs	r3, #128	@ 0x80
10002698:	1980      	adds	r0, r0, r6
1000269a:	4179      	adcs	r1, r7
1000269c:	061b      	lsls	r3, r3, #24
1000269e:	4299      	cmp	r1, r3
100026a0:	d302      	bcc.n	100026a8 <alarm_pool_add_repeating_timer_us+0x58>
100026a2:	2001      	movs	r0, #1
100026a4:	4931      	ldr	r1, [pc, #196]	@ (1000276c <alarm_pool_add_repeating_timer_us+0x11c>)
100026a6:	4240      	negs	r0, r0
100026a8:	6922      	ldr	r2, [r4, #16]
100026aa:	f3ef 8910 	mrs	r9, PRIMASK
100026ae:	b672      	cpsid	i
100026b0:	6813      	ldr	r3, [r2, #0]
100026b2:	2b00      	cmp	r3, #0
100026b4:	d0fc      	beq.n	100026b0 <alarm_pool_add_repeating_timer_us+0x60>
100026b6:	f3bf 8f5f 	dmb	sy
100026ba:	2302      	movs	r3, #2
100026bc:	5ee6      	ldrsh	r6, [r4, r3]
100026be:	6963      	ldr	r3, [r4, #20]
100026c0:	0072      	lsls	r2, r6, #1
100026c2:	1992      	adds	r2, r2, r6
100026c4:	00d2      	lsls	r2, r2, #3
100026c6:	189b      	adds	r3, r3, r2
100026c8:	2e00      	cmp	r6, #0
100026ca:	db44      	blt.n	10002756 <alarm_pool_add_repeating_timer_us+0x106>
100026cc:	881a      	ldrh	r2, [r3, #0]
100026ce:	8062      	strh	r2, [r4, #2]
100026d0:	6922      	ldr	r2, [r4, #16]
100026d2:	4690      	mov	r8, r2
100026d4:	f3bf 8f5f 	dmb	sy
100026d8:	2200      	movs	r2, #0
100026da:	4647      	mov	r7, r8
100026dc:	603a      	str	r2, [r7, #0]
100026de:	f389 8810 	msr	PRIMASK, r9
100026e2:	4a23      	ldr	r2, [pc, #140]	@ (10002770 <alarm_pool_add_repeating_timer_us+0x120>)
100026e4:	6098      	str	r0, [r3, #8]
100026e6:	60d9      	str	r1, [r3, #12]
100026e8:	611a      	str	r2, [r3, #16]
100026ea:	885a      	ldrh	r2, [r3, #2]
100026ec:	615d      	str	r5, [r3, #20]
100026ee:	3201      	adds	r2, #1
100026f0:	0452      	lsls	r2, r2, #17
100026f2:	0c52      	lsrs	r2, r2, #17
100026f4:	1c11      	adds	r1, r2, #0
100026f6:	2a00      	cmp	r2, #0
100026f8:	d02b      	beq.n	10002752 <alarm_pool_add_repeating_timer_us+0x102>
100026fa:	b288      	uxth	r0, r1
100026fc:	0432      	lsls	r2, r6, #16
100026fe:	4302      	orrs	r2, r0
10002700:	8059      	strh	r1, [r3, #2]
10002702:	6920      	ldr	r0, [r4, #16]
10002704:	f3ef 8710 	mrs	r7, PRIMASK
10002708:	b672      	cpsid	i
1000270a:	6801      	ldr	r1, [r0, #0]
1000270c:	2900      	cmp	r1, #0
1000270e:	d0fc      	beq.n	1000270a <alarm_pool_add_repeating_timer_us+0xba>
10002710:	f3bf 8f5f 	dmb	sy
10002714:	88a1      	ldrh	r1, [r4, #4]
10002716:	8019      	strh	r1, [r3, #0]
10002718:	80a6      	strh	r6, [r4, #4]
1000271a:	6923      	ldr	r3, [r4, #16]
1000271c:	f3bf 8f5f 	dmb	sy
10002720:	2100      	movs	r1, #0
10002722:	6019      	str	r1, [r3, #0]
10002724:	f387 8810 	msr	PRIMASK, r7
10002728:	4812      	ldr	r0, [pc, #72]	@ (10002774 <alarm_pool_add_repeating_timer_us+0x124>)
1000272a:	7823      	ldrb	r3, [r4, #0]
1000272c:	4684      	mov	ip, r0
1000272e:	3101      	adds	r1, #1
10002730:	4099      	lsls	r1, r3
10002732:	2001      	movs	r0, #1
10002734:	68e3      	ldr	r3, [r4, #12]
10002736:	4463      	add	r3, ip
10002738:	6019      	str	r1, [r3, #0]
1000273a:	60ea      	str	r2, [r5, #12]
1000273c:	b003      	add	sp, #12
1000273e:	bcc0      	pop	{r6, r7}
10002740:	46b9      	mov	r9, r7
10002742:	46b0      	mov	r8, r6
10002744:	bdf0      	pop	{r4, r5, r6, r7, pc}
10002746:	2300      	movs	r3, #0
10002748:	2601      	movs	r6, #1
1000274a:	2700      	movs	r7, #0
1000274c:	2201      	movs	r2, #1
1000274e:	469c      	mov	ip, r3
10002750:	e797      	b.n	10002682 <alarm_pool_add_repeating_timer_us+0x32>
10002752:	2101      	movs	r1, #1
10002754:	e7d1      	b.n	100026fa <alarm_pool_add_repeating_timer_us+0xaa>
10002756:	6923      	ldr	r3, [r4, #16]
10002758:	f3bf 8f5f 	dmb	sy
1000275c:	2200      	movs	r2, #0
1000275e:	601a      	str	r2, [r3, #0]
10002760:	f389 8810 	msr	PRIMASK, r9
10002764:	2000      	movs	r0, #0
10002766:	3a01      	subs	r2, #1
10002768:	e7e7      	b.n	1000273a <alarm_pool_add_repeating_timer_us+0xea>
1000276a:	46c0      	nop			@ (mov r8, r8)
1000276c:	7fffffff 	.word	0x7fffffff
10002770:	10001f3d 	.word	0x10001f3d
10002774:	0000203c 	.word	0x0000203c

10002778 <timer_hardware_alarm_claim>:
10002778:	b510      	push	{r4, lr}
1000277a:	4a02      	ldr	r2, [pc, #8]	@ (10002784 <timer_hardware_alarm_claim+0xc>)
1000277c:	4802      	ldr	r0, [pc, #8]	@ (10002788 <timer_hardware_alarm_claim+0x10>)
1000277e:	f7ff f975 	bl	10001a6c <hw_claim_or_assert>
10002782:	bd10      	pop	{r4, pc}
10002784:	10006074 	.word	0x10006074
10002788:	20000a1c 	.word	0x20000a1c

1000278c <timer_time_us_64>:
1000278c:	0003      	movs	r3, r0
1000278e:	6a41      	ldr	r1, [r0, #36]	@ 0x24
10002790:	000a      	movs	r2, r1
10002792:	6a98      	ldr	r0, [r3, #40]	@ 0x28
10002794:	6a59      	ldr	r1, [r3, #36]	@ 0x24
10002796:	428a      	cmp	r2, r1
10002798:	d1fa      	bne.n	10002790 <timer_time_us_64+0x4>
1000279a:	4770      	bx	lr

1000279c <time_us_64>:
1000279c:	4b03      	ldr	r3, [pc, #12]	@ (100027ac <time_us_64+0x10>)
1000279e:	6a59      	ldr	r1, [r3, #36]	@ 0x24
100027a0:	000a      	movs	r2, r1
100027a2:	6a98      	ldr	r0, [r3, #40]	@ 0x28
100027a4:	6a59      	ldr	r1, [r3, #36]	@ 0x24
100027a6:	4291      	cmp	r1, r2
100027a8:	d1fa      	bne.n	100027a0 <time_us_64+0x4>
100027aa:	4770      	bx	lr
100027ac:	40054000 	.word	0x40054000

100027b0 <busy_wait_us>:
100027b0:	b570      	push	{r4, r5, r6, lr}
100027b2:	0004      	movs	r4, r0
100027b4:	000d      	movs	r5, r1
100027b6:	4a17      	ldr	r2, [pc, #92]	@ (10002814 <busy_wait_us+0x64>)
100027b8:	6a53      	ldr	r3, [r2, #36]	@ 0x24
100027ba:	0019      	movs	r1, r3
100027bc:	6a96      	ldr	r6, [r2, #40]	@ 0x28
100027be:	6a53      	ldr	r3, [r2, #36]	@ 0x24
100027c0:	428b      	cmp	r3, r1
100027c2:	d1fa      	bne.n	100027ba <busy_wait_us+0xa>
100027c4:	0030      	movs	r0, r6
100027c6:	0019      	movs	r1, r3
100027c8:	1824      	adds	r4, r4, r0
100027ca:	414d      	adcs	r5, r1
100027cc:	42ab      	cmp	r3, r5
100027ce:	d816      	bhi.n	100027fe <busy_wait_us+0x4e>
100027d0:	d013      	beq.n	100027fa <busy_wait_us+0x4a>
100027d2:	4b10      	ldr	r3, [pc, #64]	@ (10002814 <busy_wait_us+0x64>)
100027d4:	002a      	movs	r2, r5
100027d6:	6a5b      	ldr	r3, [r3, #36]	@ 0x24
100027d8:	429d      	cmp	r5, r3
100027da:	d903      	bls.n	100027e4 <busy_wait_us+0x34>
100027dc:	490d      	ldr	r1, [pc, #52]	@ (10002814 <busy_wait_us+0x64>)
100027de:	6a4b      	ldr	r3, [r1, #36]	@ 0x24
100027e0:	4293      	cmp	r3, r2
100027e2:	d3fc      	bcc.n	100027de <busy_wait_us+0x2e>
100027e4:	4293      	cmp	r3, r2
100027e6:	d107      	bne.n	100027f8 <busy_wait_us+0x48>
100027e8:	4a0a      	ldr	r2, [pc, #40]	@ (10002814 <busy_wait_us+0x64>)
100027ea:	e002      	b.n	100027f2 <busy_wait_us+0x42>
100027ec:	6a51      	ldr	r1, [r2, #36]	@ 0x24
100027ee:	4299      	cmp	r1, r3
100027f0:	d102      	bne.n	100027f8 <busy_wait_us+0x48>
100027f2:	6a91      	ldr	r1, [r2, #40]	@ 0x28
100027f4:	42a1      	cmp	r1, r4
100027f6:	d3f9      	bcc.n	100027ec <busy_wait_us+0x3c>
100027f8:	bd70      	pop	{r4, r5, r6, pc}
100027fa:	42a6      	cmp	r6, r4
100027fc:	d9e9      	bls.n	100027d2 <busy_wait_us+0x22>
100027fe:	4b05      	ldr	r3, [pc, #20]	@ (10002814 <busy_wait_us+0x64>)
10002800:	6a5b      	ldr	r3, [r3, #36]	@ 0x24
10002802:	001c      	movs	r4, r3
10002804:	1c5a      	adds	r2, r3, #1
10002806:	d0ef      	beq.n	100027e8 <busy_wait_us+0x38>
10002808:	2201      	movs	r2, #1
1000280a:	2401      	movs	r4, #1
1000280c:	4264      	negs	r4, r4
1000280e:	17e5      	asrs	r5, r4, #31
10002810:	4252      	negs	r2, r2
10002812:	e7e3      	b.n	100027dc <busy_wait_us+0x2c>
10002814:	40054000 	.word	0x40054000

10002818 <busy_wait_until>:
10002818:	4a06      	ldr	r2, [pc, #24]	@ (10002834 <busy_wait_until+0x1c>)
1000281a:	6a53      	ldr	r3, [r2, #36]	@ 0x24
1000281c:	4299      	cmp	r1, r3
1000281e:	d8fc      	bhi.n	1000281a <busy_wait_until+0x2>
10002820:	d107      	bne.n	10002832 <busy_wait_until+0x1a>
10002822:	4b04      	ldr	r3, [pc, #16]	@ (10002834 <busy_wait_until+0x1c>)
10002824:	e002      	b.n	1000282c <busy_wait_until+0x14>
10002826:	6a5a      	ldr	r2, [r3, #36]	@ 0x24
10002828:	4291      	cmp	r1, r2
1000282a:	d102      	bne.n	10002832 <busy_wait_until+0x1a>
1000282c:	6a9a      	ldr	r2, [r3, #40]	@ 0x28
1000282e:	4282      	cmp	r2, r0
10002830:	d3f9      	bcc.n	10002826 <busy_wait_until+0xe>
10002832:	4770      	bx	lr
10002834:	40054000 	.word	0x40054000

10002838 <uart_init>:
10002838:	b5f8      	push	{r3, r4, r5, r6, r7, lr}
1000283a:	0004      	movs	r4, r0
1000283c:	2006      	movs	r0, #6
1000283e:	000d      	movs	r5, r1
10002840:	f000 f976 	bl	10002b30 <clock_get_hz>
10002844:	2800      	cmp	r0, #0
10002846:	d042      	beq.n	100028ce <uart_init+0x96>
10002848:	4b36      	ldr	r3, [pc, #216]	@ (10002924 <uart_init+0xec>)
1000284a:	4937      	ldr	r1, [pc, #220]	@ (10002928 <uart_init+0xf0>)
1000284c:	18e2      	adds	r2, r4, r3
1000284e:	4253      	negs	r3, r2
10002850:	415a      	adcs	r2, r3
10002852:	2380      	movs	r3, #128	@ 0x80
10002854:	03db      	lsls	r3, r3, #15
10002856:	469c      	mov	ip, r3
10002858:	0592      	lsls	r2, r2, #22
1000285a:	4b34      	ldr	r3, [pc, #208]	@ (1000292c <uart_init+0xf4>)
1000285c:	4462      	add	r2, ip
1000285e:	601a      	str	r2, [r3, #0]
10002860:	4b33      	ldr	r3, [pc, #204]	@ (10002930 <uart_init+0xf8>)
10002862:	601a      	str	r2, [r3, #0]
10002864:	0010      	movs	r0, r2
10002866:	680b      	ldr	r3, [r1, #0]
10002868:	4398      	bics	r0, r3
1000286a:	d1fb      	bne.n	10002864 <uart_init+0x2c>
1000286c:	4b2d      	ldr	r3, [pc, #180]	@ (10002924 <uart_init+0xec>)
1000286e:	4a31      	ldr	r2, [pc, #196]	@ (10002934 <uart_init+0xfc>)
10002870:	18e3      	adds	r3, r4, r3
10002872:	4259      	negs	r1, r3
10002874:	414b      	adcs	r3, r1
10002876:	2180      	movs	r1, #128	@ 0x80
10002878:	005b      	lsls	r3, r3, #1
1000287a:	0049      	lsls	r1, r1, #1
1000287c:	2006      	movs	r0, #6
1000287e:	5299      	strh	r1, [r3, r2]
10002880:	f000 f956 	bl	10002b30 <clock_get_hz>
10002884:	0029      	movs	r1, r5
10002886:	00c0      	lsls	r0, r0, #3
10002888:	f000 fafe 	bl	10002e88 <__wrap___aeabi_uidiv>
1000288c:	3001      	adds	r0, #1
1000288e:	09c3      	lsrs	r3, r0, #7
10002890:	d11e      	bne.n	100028d0 <uart_init+0x98>
10002892:	2740      	movs	r7, #64	@ 0x40
10002894:	2201      	movs	r2, #1
10002896:	6262      	str	r2, [r4, #36]	@ 0x24
10002898:	62a3      	str	r3, [r4, #40]	@ 0x28
1000289a:	6b26      	ldr	r6, [r4, #48]	@ 0x30
1000289c:	07f3      	lsls	r3, r6, #31
1000289e:	d422      	bmi.n	100028e6 <uart_init+0xae>
100028a0:	6ae3      	ldr	r3, [r4, #44]	@ 0x2c
100028a2:	4b25      	ldr	r3, [pc, #148]	@ (10002938 <uart_init+0x100>)
100028a4:	2006      	movs	r0, #6
100028a6:	18e5      	adds	r5, r4, r3
100028a8:	2300      	movs	r3, #0
100028aa:	602b      	str	r3, [r5, #0]
100028ac:	6326      	str	r6, [r4, #48]	@ 0x30
100028ae:	f000 f93f 	bl	10002b30 <clock_get_hz>
100028b2:	0039      	movs	r1, r7
100028b4:	0080      	lsls	r0, r0, #2
100028b6:	f000 fae7 	bl	10002e88 <__wrap___aeabi_uidiv>
100028ba:	2370      	movs	r3, #112	@ 0x70
100028bc:	6ae2      	ldr	r2, [r4, #44]	@ 0x2c
100028be:	405a      	eors	r2, r3
100028c0:	330e      	adds	r3, #14
100028c2:	4013      	ands	r3, r2
100028c4:	602b      	str	r3, [r5, #0]
100028c6:	4b1d      	ldr	r3, [pc, #116]	@ (1000293c <uart_init+0x104>)
100028c8:	6323      	str	r3, [r4, #48]	@ 0x30
100028ca:	2303      	movs	r3, #3
100028cc:	64a3      	str	r3, [r4, #72]	@ 0x48
100028ce:	bdf8      	pop	{r3, r4, r5, r6, r7, pc}
100028d0:	4a1b      	ldr	r2, [pc, #108]	@ (10002940 <uart_init+0x108>)
100028d2:	4293      	cmp	r3, r2
100028d4:	d91e      	bls.n	10002914 <uart_init+0xdc>
100028d6:	2300      	movs	r3, #0
100028d8:	4a1a      	ldr	r2, [pc, #104]	@ (10002944 <uart_init+0x10c>)
100028da:	4f1b      	ldr	r7, [pc, #108]	@ (10002948 <uart_init+0x110>)
100028dc:	6262      	str	r2, [r4, #36]	@ 0x24
100028de:	62a3      	str	r3, [r4, #40]	@ 0x28
100028e0:	6b26      	ldr	r6, [r4, #48]	@ 0x30
100028e2:	07f3      	lsls	r3, r6, #31
100028e4:	d5dc      	bpl.n	100028a0 <uart_init+0x68>
100028e6:	4b19      	ldr	r3, [pc, #100]	@ (1000294c <uart_init+0x114>)
100028e8:	4a14      	ldr	r2, [pc, #80]	@ (1000293c <uart_init+0x104>)
100028ea:	18e3      	adds	r3, r4, r3
100028ec:	601a      	str	r2, [r3, #0]
100028ee:	6a65      	ldr	r5, [r4, #36]	@ 0x24
100028f0:	6aa3      	ldr	r3, [r4, #40]	@ 0x28
100028f2:	2006      	movs	r0, #6
100028f4:	01ad      	lsls	r5, r5, #6
100028f6:	18ed      	adds	r5, r5, r3
100028f8:	f000 f91a 	bl	10002b30 <clock_get_hz>
100028fc:	4914      	ldr	r1, [pc, #80]	@ (10002950 <uart_init+0x118>)
100028fe:	f000 fac3 	bl	10002e88 <__wrap___aeabi_uidiv>
10002902:	02ad      	lsls	r5, r5, #10
10002904:	0001      	movs	r1, r0
10002906:	0028      	movs	r0, r5
10002908:	f000 fabe 	bl	10002e88 <__wrap___aeabi_uidiv>
1000290c:	2100      	movs	r1, #0
1000290e:	f7ff ff4f 	bl	100027b0 <busy_wait_us>
10002912:	e7c5      	b.n	100028a0 <uart_init+0x68>
10002914:	0640      	lsls	r0, r0, #25
10002916:	0e80      	lsrs	r0, r0, #26
10002918:	019f      	lsls	r7, r3, #6
1000291a:	001a      	movs	r2, r3
1000291c:	183f      	adds	r7, r7, r0
1000291e:	0003      	movs	r3, r0
10002920:	e7b9      	b.n	10002896 <uart_init+0x5e>
10002922:	46c0      	nop			@ (mov r8, r8)
10002924:	bffc8000 	.word	0xbffc8000
10002928:	4000c008 	.word	0x4000c008
1000292c:	4000e000 	.word	0x4000e000
10002930:	4000f000 	.word	0x4000f000
10002934:	20000a9c 	.word	0x20000a9c
10002938:	0000102c 	.word	0x0000102c
1000293c:	00000301 	.word	0x00000301
10002940:	0000fffe 	.word	0x0000fffe
10002944:	0000ffff 	.word	0x0000ffff
10002948:	003fffc0 	.word	0x003fffc0
1000294c:	00003030 	.word	0x00003030
10002950:	00000e4e 	.word	0x00000e4e

10002954 <clock_configure_int_divider>:
10002954:	b5f8      	push	{r3, r4, r5, r6, r7, lr}
10002956:	46de      	mov	lr, fp
10002958:	464e      	mov	r6, r9
1000295a:	4657      	mov	r7, sl
1000295c:	4645      	mov	r5, r8
1000295e:	b5e0      	push	{r5, r6, r7, lr}
10002960:	468b      	mov	fp, r1
10002962:	0005      	movs	r5, r0
10002964:	990a      	ldr	r1, [sp, #40]	@ 0x28
10002966:	0018      	movs	r0, r3
10002968:	0016      	movs	r6, r2
1000296a:	f000 fa8d 	bl	10002e88 <__wrap___aeabi_uidiv>
1000296e:	9b0a      	ldr	r3, [sp, #40]	@ 0x28
10002970:	006c      	lsls	r4, r5, #1
10002972:	021f      	lsls	r7, r3, #8
10002974:	4b32      	ldr	r3, [pc, #200]	@ (10002a40 <clock_configure_int_divider+0xec>)
10002976:	1964      	adds	r4, r4, r5
10002978:	469c      	mov	ip, r3
1000297a:	00a4      	lsls	r4, r4, #2
1000297c:	4464      	add	r4, ip
1000297e:	6863      	ldr	r3, [r4, #4]
10002980:	4681      	mov	r9, r0
10002982:	429f      	cmp	r7, r3
10002984:	d900      	bls.n	10002988 <clock_configure_int_divider+0x34>
10002986:	6067      	str	r7, [r4, #4]
10002988:	1f2b      	subs	r3, r5, #4
1000298a:	b2db      	uxtb	r3, r3
1000298c:	4698      	mov	r8, r3
1000298e:	2b01      	cmp	r3, #1
10002990:	d930      	bls.n	100029f4 <clock_configure_int_divider+0xa0>
10002992:	23c0      	movs	r3, #192	@ 0xc0
10002994:	2280      	movs	r2, #128	@ 0x80
10002996:	019b      	lsls	r3, r3, #6
10002998:	18e3      	adds	r3, r4, r3
1000299a:	0112      	lsls	r2, r2, #4
1000299c:	601a      	str	r2, [r3, #0]
1000299e:	4b29      	ldr	r3, [pc, #164]	@ (10002a44 <clock_configure_int_divider+0xf0>)
100029a0:	00ad      	lsls	r5, r5, #2
100029a2:	5959      	ldr	r1, [r3, r5]
100029a4:	469a      	mov	sl, r3
100029a6:	2900      	cmp	r1, #0
100029a8:	d11b      	bne.n	100029e2 <clock_configure_int_divider+0x8e>
100029aa:	0173      	lsls	r3, r6, #5
100029ac:	26e0      	movs	r6, #224	@ 0xe0
100029ae:	6822      	ldr	r2, [r4, #0]
100029b0:	4053      	eors	r3, r2
100029b2:	401e      	ands	r6, r3
100029b4:	2380      	movs	r3, #128	@ 0x80
100029b6:	4642      	mov	r2, r8
100029b8:	015b      	lsls	r3, r3, #5
100029ba:	18e3      	adds	r3, r4, r3
100029bc:	601e      	str	r6, [r3, #0]
100029be:	2a01      	cmp	r2, #1
100029c0:	d930      	bls.n	10002a24 <clock_configure_int_divider+0xd0>
100029c2:	2380      	movs	r3, #128	@ 0x80
100029c4:	2280      	movs	r2, #128	@ 0x80
100029c6:	019b      	lsls	r3, r3, #6
100029c8:	18e3      	adds	r3, r4, r3
100029ca:	0112      	lsls	r2, r2, #4
100029cc:	601a      	str	r2, [r3, #0]
100029ce:	4653      	mov	r3, sl
100029d0:	464a      	mov	r2, r9
100029d2:	6067      	str	r7, [r4, #4]
100029d4:	515a      	str	r2, [r3, r5]
100029d6:	bcf0      	pop	{r4, r5, r6, r7}
100029d8:	46bb      	mov	fp, r7
100029da:	46b2      	mov	sl, r6
100029dc:	46a9      	mov	r9, r5
100029de:	46a0      	mov	r8, r4
100029e0:	bdf8      	pop	{r3, r4, r5, r6, r7, pc}
100029e2:	6958      	ldr	r0, [r3, #20]
100029e4:	f000 fa50 	bl	10002e88 <__wrap___aeabi_uidiv>
100029e8:	3001      	adds	r0, #1
100029ea:	0043      	lsls	r3, r0, #1
100029ec:	181b      	adds	r3, r3, r0
100029ee:	3b03      	subs	r3, #3
100029f0:	d2fd      	bcs.n	100029ee <clock_configure_int_divider+0x9a>
100029f2:	e7da      	b.n	100029aa <clock_configure_int_divider+0x56>
100029f4:	465b      	mov	r3, fp
100029f6:	2b01      	cmp	r3, #1
100029f8:	d1cb      	bne.n	10002992 <clock_configure_int_divider+0x3e>
100029fa:	23c0      	movs	r3, #192	@ 0xc0
100029fc:	2203      	movs	r2, #3
100029fe:	019b      	lsls	r3, r3, #6
10002a00:	18e3      	adds	r3, r4, r3
10002a02:	601a      	str	r2, [r3, #0]
10002a04:	3a02      	subs	r2, #2
10002a06:	68a3      	ldr	r3, [r4, #8]
10002a08:	421a      	tst	r2, r3
10002a0a:	d0fc      	beq.n	10002a06 <clock_configure_int_divider+0xb2>
10002a0c:	0173      	lsls	r3, r6, #5
10002a0e:	26e0      	movs	r6, #224	@ 0xe0
10002a10:	6822      	ldr	r2, [r4, #0]
10002a12:	00ad      	lsls	r5, r5, #2
10002a14:	4053      	eors	r3, r2
10002a16:	401e      	ands	r6, r3
10002a18:	2380      	movs	r3, #128	@ 0x80
10002a1a:	4a0a      	ldr	r2, [pc, #40]	@ (10002a44 <clock_configure_int_divider+0xf0>)
10002a1c:	015b      	lsls	r3, r3, #5
10002a1e:	4692      	mov	sl, r2
10002a20:	18e3      	adds	r3, r4, r3
10002a22:	601e      	str	r6, [r3, #0]
10002a24:	465a      	mov	r2, fp
10002a26:	6821      	ldr	r1, [r4, #0]
10002a28:	4051      	eors	r1, r2
10002a2a:	2203      	movs	r2, #3
10002a2c:	400a      	ands	r2, r1
10002a2e:	601a      	str	r2, [r3, #0]
10002a30:	2201      	movs	r2, #1
10002a32:	465b      	mov	r3, fp
10002a34:	409a      	lsls	r2, r3
10002a36:	68a3      	ldr	r3, [r4, #8]
10002a38:	421a      	tst	r2, r3
10002a3a:	d0fc      	beq.n	10002a36 <clock_configure_int_divider+0xe2>
10002a3c:	e7c1      	b.n	100029c2 <clock_configure_int_divider+0x6e>
10002a3e:	46c0      	nop			@ (mov r8, r8)
10002a40:	40008000 	.word	0x40008000
10002a44:	20000a20 	.word	0x20000a20

10002a48 <clock_configure_undivided>:
10002a48:	b5f0      	push	{r4, r5, r6, r7, lr}
10002a4a:	4646      	mov	r6, r8
10002a4c:	464f      	mov	r7, r9
10002a4e:	46d6      	mov	lr, sl
10002a50:	b5c0      	push	{r6, r7, lr}
10002a52:	001f      	movs	r7, r3
10002a54:	4b34      	ldr	r3, [pc, #208]	@ (10002b28 <clock_configure_undivided+0xe0>)
10002a56:	0044      	lsls	r4, r0, #1
10002a58:	469c      	mov	ip, r3
10002a5a:	1824      	adds	r4, r4, r0
10002a5c:	00a4      	lsls	r4, r4, #2
10002a5e:	4464      	add	r4, ip
10002a60:	6863      	ldr	r3, [r4, #4]
10002a62:	4688      	mov	r8, r1
10002a64:	0016      	movs	r6, r2
10002a66:	2bff      	cmp	r3, #255	@ 0xff
10002a68:	d802      	bhi.n	10002a70 <clock_configure_undivided+0x28>
10002a6a:	2380      	movs	r3, #128	@ 0x80
10002a6c:	005b      	lsls	r3, r3, #1
10002a6e:	6063      	str	r3, [r4, #4]
10002a70:	1f03      	subs	r3, r0, #4
10002a72:	b2db      	uxtb	r3, r3
10002a74:	469a      	mov	sl, r3
10002a76:	2b01      	cmp	r3, #1
10002a78:	d930      	bls.n	10002adc <clock_configure_undivided+0x94>
10002a7a:	23c0      	movs	r3, #192	@ 0xc0
10002a7c:	2280      	movs	r2, #128	@ 0x80
10002a7e:	019b      	lsls	r3, r3, #6
10002a80:	18e3      	adds	r3, r4, r3
10002a82:	0112      	lsls	r2, r2, #4
10002a84:	601a      	str	r2, [r3, #0]
10002a86:	4b29      	ldr	r3, [pc, #164]	@ (10002b2c <clock_configure_undivided+0xe4>)
10002a88:	0085      	lsls	r5, r0, #2
10002a8a:	5959      	ldr	r1, [r3, r5]
10002a8c:	4699      	mov	r9, r3
10002a8e:	2900      	cmp	r1, #0
10002a90:	d11b      	bne.n	10002aca <clock_configure_undivided+0x82>
10002a92:	0173      	lsls	r3, r6, #5
10002a94:	26e0      	movs	r6, #224	@ 0xe0
10002a96:	6822      	ldr	r2, [r4, #0]
10002a98:	4053      	eors	r3, r2
10002a9a:	401e      	ands	r6, r3
10002a9c:	2380      	movs	r3, #128	@ 0x80
10002a9e:	4652      	mov	r2, sl
10002aa0:	015b      	lsls	r3, r3, #5
10002aa2:	18e3      	adds	r3, r4, r3
10002aa4:	601e      	str	r6, [r3, #0]
10002aa6:	2a01      	cmp	r2, #1
10002aa8:	d930      	bls.n	10002b0c <clock_configure_undivided+0xc4>
10002aaa:	2380      	movs	r3, #128	@ 0x80
10002aac:	2280      	movs	r2, #128	@ 0x80
10002aae:	019b      	lsls	r3, r3, #6
10002ab0:	18e3      	adds	r3, r4, r3
10002ab2:	0112      	lsls	r2, r2, #4
10002ab4:	601a      	str	r2, [r3, #0]
10002ab6:	2380      	movs	r3, #128	@ 0x80
10002ab8:	005b      	lsls	r3, r3, #1
10002aba:	6063      	str	r3, [r4, #4]
10002abc:	464b      	mov	r3, r9
10002abe:	515f      	str	r7, [r3, r5]
10002ac0:	bce0      	pop	{r5, r6, r7}
10002ac2:	46ba      	mov	sl, r7
10002ac4:	46b1      	mov	r9, r6
10002ac6:	46a8      	mov	r8, r5
10002ac8:	bdf0      	pop	{r4, r5, r6, r7, pc}
10002aca:	6958      	ldr	r0, [r3, #20]
10002acc:	f000 f9dc 	bl	10002e88 <__wrap___aeabi_uidiv>
10002ad0:	3001      	adds	r0, #1
10002ad2:	0043      	lsls	r3, r0, #1
10002ad4:	181b      	adds	r3, r3, r0
10002ad6:	3b03      	subs	r3, #3
10002ad8:	d2fd      	bcs.n	10002ad6 <clock_configure_undivided+0x8e>
10002ada:	e7da      	b.n	10002a92 <clock_configure_undivided+0x4a>
10002adc:	4643      	mov	r3, r8
10002ade:	2b01      	cmp	r3, #1
10002ae0:	d1cb      	bne.n	10002a7a <clock_configure_undivided+0x32>
10002ae2:	23c0      	movs	r3, #192	@ 0xc0
10002ae4:	2203      	movs	r2, #3
10002ae6:	019b      	lsls	r3, r3, #6
10002ae8:	18e3      	adds	r3, r4, r3
10002aea:	601a      	str	r2, [r3, #0]
10002aec:	3a02      	subs	r2, #2
10002aee:	68a3      	ldr	r3, [r4, #8]
10002af0:	421a      	tst	r2, r3
10002af2:	d0fc      	beq.n	10002aee <clock_configure_undivided+0xa6>
10002af4:	0173      	lsls	r3, r6, #5
10002af6:	26e0      	movs	r6, #224	@ 0xe0
10002af8:	6822      	ldr	r2, [r4, #0]
10002afa:	0085      	lsls	r5, r0, #2
10002afc:	4053      	eors	r3, r2
10002afe:	401e      	ands	r6, r3
10002b00:	2380      	movs	r3, #128	@ 0x80
10002b02:	4a0a      	ldr	r2, [pc, #40]	@ (10002b2c <clock_configure_undivided+0xe4>)
10002b04:	015b      	lsls	r3, r3, #5
10002b06:	4691      	mov	r9, r2
10002b08:	18e3      	adds	r3, r4, r3
10002b0a:	601e      	str	r6, [r3, #0]
10002b0c:	4642      	mov	r2, r8
10002b0e:	6821      	ldr	r1, [r4, #0]
10002b10:	4051      	eors	r1, r2
10002b12:	2203      	movs	r2, #3
10002b14:	400a      	ands	r2, r1
10002b16:	601a      	str	r2, [r3, #0]
10002b18:	2301      	movs	r3, #1
10002b1a:	4642      	mov	r2, r8
10002b1c:	4093      	lsls	r3, r2
10002b1e:	68a2      	ldr	r2, [r4, #8]
10002b20:	4213      	tst	r3, r2
10002b22:	d0fc      	beq.n	10002b1e <clock_configure_undivided+0xd6>
10002b24:	e7c1      	b.n	10002aaa <clock_configure_undivided+0x62>
10002b26:	46c0      	nop			@ (mov r8, r8)
10002b28:	40008000 	.word	0x40008000
10002b2c:	20000a20 	.word	0x20000a20

10002b30 <clock_get_hz>:
10002b30:	4b01      	ldr	r3, [pc, #4]	@ (10002b38 <clock_get_hz+0x8>)
10002b32:	0080      	lsls	r0, r0, #2
10002b34:	58c0      	ldr	r0, [r0, r3]
10002b36:	4770      	bx	lr
10002b38:	20000a20 	.word	0x20000a20

10002b3c <pll_init>:
10002b3c:	b5f8      	push	{r3, r4, r5, r6, r7, lr}
10002b3e:	0004      	movs	r4, r0
10002b40:	4820      	ldr	r0, [pc, #128]	@ (10002bc4 <pll_init+0x88>)
10002b42:	001d      	movs	r5, r3
10002b44:	0017      	movs	r7, r2
10002b46:	000e      	movs	r6, r1
10002b48:	f000 f99e 	bl	10002e88 <__wrap___aeabi_uidiv>
10002b4c:	0001      	movs	r1, r0
10002b4e:	0038      	movs	r0, r7
10002b50:	f000 f99a 	bl	10002e88 <__wrap___aeabi_uidiv>
10002b54:	9b06      	ldr	r3, [sp, #24]
10002b56:	0429      	lsls	r1, r5, #16
10002b58:	031b      	lsls	r3, r3, #12
10002b5a:	4319      	orrs	r1, r3
10002b5c:	6823      	ldr	r3, [r4, #0]
10002b5e:	2b00      	cmp	r3, #0
10002b60:	db1e      	blt.n	10002ba0 <pll_init+0x64>
10002b62:	4b19      	ldr	r3, [pc, #100]	@ (10002bc8 <pll_init+0x8c>)
10002b64:	4d19      	ldr	r5, [pc, #100]	@ (10002bcc <pll_init+0x90>)
10002b66:	18e2      	adds	r2, r4, r3
10002b68:	4253      	negs	r3, r2
10002b6a:	415a      	adcs	r2, r3
10002b6c:	2380      	movs	r3, #128	@ 0x80
10002b6e:	015b      	lsls	r3, r3, #5
10002b70:	469c      	mov	ip, r3
10002b72:	0312      	lsls	r2, r2, #12
10002b74:	4b16      	ldr	r3, [pc, #88]	@ (10002bd0 <pll_init+0x94>)
10002b76:	4462      	add	r2, ip
10002b78:	601a      	str	r2, [r3, #0]
10002b7a:	4b16      	ldr	r3, [pc, #88]	@ (10002bd4 <pll_init+0x98>)
10002b7c:	601a      	str	r2, [r3, #0]
10002b7e:	0017      	movs	r7, r2
10002b80:	682b      	ldr	r3, [r5, #0]
10002b82:	439f      	bics	r7, r3
10002b84:	d1fb      	bne.n	10002b7e <pll_init+0x42>
10002b86:	4b14      	ldr	r3, [pc, #80]	@ (10002bd8 <pll_init+0x9c>)
10002b88:	6026      	str	r6, [r4, #0]
10002b8a:	18e2      	adds	r2, r4, r3
10002b8c:	2321      	movs	r3, #33	@ 0x21
10002b8e:	60a0      	str	r0, [r4, #8]
10002b90:	6013      	str	r3, [r2, #0]
10002b92:	6823      	ldr	r3, [r4, #0]
10002b94:	2b00      	cmp	r3, #0
10002b96:	dafc      	bge.n	10002b92 <pll_init+0x56>
10002b98:	2308      	movs	r3, #8
10002b9a:	60e1      	str	r1, [r4, #12]
10002b9c:	6013      	str	r3, [r2, #0]
10002b9e:	bdf8      	pop	{r3, r4, r5, r6, r7, pc}
10002ba0:	233f      	movs	r3, #63	@ 0x3f
10002ba2:	6822      	ldr	r2, [r4, #0]
10002ba4:	4013      	ands	r3, r2
10002ba6:	42b3      	cmp	r3, r6
10002ba8:	d1db      	bne.n	10002b62 <pll_init+0x26>
10002baa:	68a3      	ldr	r3, [r4, #8]
10002bac:	051b      	lsls	r3, r3, #20
10002bae:	0d1b      	lsrs	r3, r3, #20
10002bb0:	4283      	cmp	r3, r0
10002bb2:	d1d6      	bne.n	10002b62 <pll_init+0x26>
10002bb4:	22ee      	movs	r2, #238	@ 0xee
10002bb6:	68e3      	ldr	r3, [r4, #12]
10002bb8:	02d2      	lsls	r2, r2, #11
10002bba:	4013      	ands	r3, r2
10002bbc:	428b      	cmp	r3, r1
10002bbe:	d1d0      	bne.n	10002b62 <pll_init+0x26>
10002bc0:	e7ed      	b.n	10002b9e <pll_init+0x62>
10002bc2:	46c0      	nop			@ (mov r8, r8)
10002bc4:	00b71b00 	.word	0x00b71b00
10002bc8:	bffd4000 	.word	0xbffd4000
10002bcc:	4000c008 	.word	0x4000c008
10002bd0:	4000e000 	.word	0x4000e000
10002bd4:	4000f000 	.word	0x4000f000
10002bd8:	00003004 	.word	0x00003004

10002bdc <tick_start>:
10002bdc:	2380      	movs	r3, #128	@ 0x80
10002bde:	4a02      	ldr	r2, [pc, #8]	@ (10002be8 <tick_start+0xc>)
10002be0:	009b      	lsls	r3, r3, #2
10002be2:	430b      	orrs	r3, r1
10002be4:	62d3      	str	r3, [r2, #44]	@ 0x2c
10002be6:	4770      	bx	lr
10002be8:	40058000 	.word	0x40058000

10002bec <rom_func_lookup>:
10002bec:	2314      	movs	r3, #20
10002bee:	b510      	push	{r4, lr}
10002bf0:	0001      	movs	r1, r0
10002bf2:	8818      	ldrh	r0, [r3, #0]
10002bf4:	3304      	adds	r3, #4
10002bf6:	881b      	ldrh	r3, [r3, #0]
10002bf8:	4798      	blx	r3
10002bfa:	bd10      	pop	{r4, pc}

10002bfc <rom_data_lookup>:
10002bfc:	2316      	movs	r3, #22
10002bfe:	b510      	push	{r4, lr}
10002c00:	0001      	movs	r1, r0
10002c02:	8818      	ldrh	r0, [r3, #0]
10002c04:	3302      	adds	r3, #2
10002c06:	881b      	ldrh	r3, [r3, #0]
10002c08:	4798      	blx	r3
10002c0a:	bd10      	pop	{r4, pc}

10002c0c <rom_funcs_lookup>:
10002c0c:	b5f8      	push	{r3, r4, r5, r6, r7, lr}
10002c0e:	4647      	mov	r7, r8
10002c10:	46ce      	mov	lr, r9
10002c12:	b580      	push	{r7, lr}
10002c14:	1e0f      	subs	r7, r1, #0
10002c16:	d019      	beq.n	10002c4c <rom_funcs_lookup+0x40>
10002c18:	2314      	movs	r3, #20
10002c1a:	4699      	mov	r9, r3
10002c1c:	3304      	adds	r3, #4
10002c1e:	0004      	movs	r4, r0
10002c20:	2500      	movs	r5, #0
10002c22:	2601      	movs	r6, #1
10002c24:	4698      	mov	r8, r3
10002c26:	464b      	mov	r3, r9
10002c28:	8818      	ldrh	r0, [r3, #0]
10002c2a:	4643      	mov	r3, r8
10002c2c:	6821      	ldr	r1, [r4, #0]
10002c2e:	881b      	ldrh	r3, [r3, #0]
10002c30:	4798      	blx	r3
10002c32:	c401      	stmia	r4!, {r0}
10002c34:	1e43      	subs	r3, r0, #1
10002c36:	4198      	sbcs	r0, r3
10002c38:	3501      	adds	r5, #1
10002c3a:	4240      	negs	r0, r0
10002c3c:	4006      	ands	r6, r0
10002c3e:	42af      	cmp	r7, r5
10002c40:	d1f1      	bne.n	10002c26 <rom_funcs_lookup+0x1a>
10002c42:	0030      	movs	r0, r6
10002c44:	bcc0      	pop	{r6, r7}
10002c46:	46b9      	mov	r9, r7
10002c48:	46b0      	mov	r8, r6
10002c4a:	bdf8      	pop	{r3, r4, r5, r6, r7, pc}
10002c4c:	2601      	movs	r6, #1
10002c4e:	e7f8      	b.n	10002c42 <rom_funcs_lookup+0x36>

10002c50 <xosc_init>:
10002c50:	23aa      	movs	r3, #170	@ 0xaa
10002c52:	4a06      	ldr	r2, [pc, #24]	@ (10002c6c <xosc_init+0x1c>)
10002c54:	011b      	lsls	r3, r3, #4
10002c56:	6013      	str	r3, [r2, #0]
10002c58:	238d      	movs	r3, #141	@ 0x8d
10002c5a:	005b      	lsls	r3, r3, #1
10002c5c:	60d3      	str	r3, [r2, #12]
10002c5e:	4904      	ldr	r1, [pc, #16]	@ (10002c70 <xosc_init+0x20>)
10002c60:	4b04      	ldr	r3, [pc, #16]	@ (10002c74 <xosc_init+0x24>)
10002c62:	6019      	str	r1, [r3, #0]
10002c64:	6853      	ldr	r3, [r2, #4]
10002c66:	2b00      	cmp	r3, #0
10002c68:	dafc      	bge.n	10002c64 <xosc_init+0x14>
10002c6a:	4770      	bx	lr
10002c6c:	40024000 	.word	0x40024000
10002c70:	00fab000 	.word	0x00fab000
10002c74:	40026000 	.word	0x40026000

10002c78 <first_per_core_initializer>:
10002c78:	4770      	bx	lr
10002c7a:	46c0      	nop			@ (mov r8, r8)

10002c7c <hard_assertion_failure>:
10002c7c:	b510      	push	{r4, lr}
10002c7e:	4801      	ldr	r0, [pc, #4]	@ (10002c84 <hard_assertion_failure+0x8>)
10002c80:	f7fe fec6 	bl	10001a10 <panic>
10002c84:	10006098 	.word	0x10006098

10002c88 <runtime_run_initializers>:
10002c88:	b570      	push	{r4, r5, r6, lr}
10002c8a:	4d07      	ldr	r5, [pc, #28]	@ (10002ca8 <runtime_run_initializers+0x20>)
10002c8c:	4e07      	ldr	r6, [pc, #28]	@ (10002cac <runtime_run_initializers+0x24>)
10002c8e:	42b5      	cmp	r5, r6
10002c90:	d209      	bcs.n	10002ca6 <runtime_run_initializers+0x1e>
10002c92:	2400      	movs	r4, #0
10002c94:	3e01      	subs	r6, #1
10002c96:	1b76      	subs	r6, r6, r5
10002c98:	08b6      	lsrs	r6, r6, #2
10002c9a:	cd08      	ldmia	r5!, {r3}
10002c9c:	4798      	blx	r3
10002c9e:	0023      	movs	r3, r4
10002ca0:	3401      	adds	r4, #1
10002ca2:	42b3      	cmp	r3, r6
10002ca4:	d1f9      	bne.n	10002c9a <runtime_run_initializers+0x12>
10002ca6:	bd70      	pop	{r4, r5, r6, pc}
10002ca8:	10005a48 	.word	0x10005a48
10002cac:	10005a84 	.word	0x10005a84

10002cb0 <runtime_init_early_resets>:
10002cb0:	4b05      	ldr	r3, [pc, #20]	@ (10002cc8 <runtime_init_early_resets+0x18>)
10002cb2:	4a06      	ldr	r2, [pc, #24]	@ (10002ccc <runtime_init_early_resets+0x1c>)
10002cb4:	4906      	ldr	r1, [pc, #24]	@ (10002cd0 <runtime_init_early_resets+0x20>)
10002cb6:	601a      	str	r2, [r3, #0]
10002cb8:	4a06      	ldr	r2, [pc, #24]	@ (10002cd4 <runtime_init_early_resets+0x24>)
10002cba:	4b07      	ldr	r3, [pc, #28]	@ (10002cd8 <runtime_init_early_resets+0x28>)
10002cbc:	601a      	str	r2, [r3, #0]
10002cbe:	0010      	movs	r0, r2
10002cc0:	680b      	ldr	r3, [r1, #0]
10002cc2:	4398      	bics	r0, r3
10002cc4:	d1fb      	bne.n	10002cbe <runtime_init_early_resets+0xe>
10002cc6:	4770      	bx	lr
10002cc8:	4000e000 	.word	0x4000e000
10002ccc:	fefbcdbf 	.word	0xfefbcdbf
10002cd0:	4000c008 	.word	0x4000c008
10002cd4:	003c7ffe 	.word	0x003c7ffe
10002cd8:	4000f000 	.word	0x4000f000

10002cdc <runtime_init_usb_power_down>:
10002cdc:	4b04      	ldr	r3, [pc, #16]	@ (10002cf0 <runtime_init_usb_power_down+0x14>)
10002cde:	6cdb      	ldr	r3, [r3, #76]	@ 0x4c
10002ce0:	2b00      	cmp	r3, #0
10002ce2:	d103      	bne.n	10002cec <runtime_init_usb_power_down+0x10>
10002ce4:	2280      	movs	r2, #128	@ 0x80
10002ce6:	4b03      	ldr	r3, [pc, #12]	@ (10002cf4 <runtime_init_usb_power_down+0x18>)
10002ce8:	02d2      	lsls	r2, r2, #11
10002cea:	601a      	str	r2, [r3, #0]
10002cec:	4770      	bx	lr
10002cee:	46c0      	nop			@ (mov r8, r8)
10002cf0:	50110000 	.word	0x50110000
10002cf4:	5011204c 	.word	0x5011204c

10002cf8 <runtime_init_post_clock_resets>:
10002cf8:	4a04      	ldr	r2, [pc, #16]	@ (10002d0c <runtime_init_post_clock_resets+0x14>)
10002cfa:	4b05      	ldr	r3, [pc, #20]	@ (10002d10 <runtime_init_post_clock_resets+0x18>)
10002cfc:	601a      	str	r2, [r3, #0]
10002cfe:	4a05      	ldr	r2, [pc, #20]	@ (10002d14 <runtime_init_post_clock_resets+0x1c>)
10002d00:	6813      	ldr	r3, [r2, #0]
10002d02:	01db      	lsls	r3, r3, #7
10002d04:	3380      	adds	r3, #128	@ 0x80
10002d06:	d1fb      	bne.n	10002d00 <runtime_init_post_clock_resets+0x8>
10002d08:	4770      	bx	lr
10002d0a:	46c0      	nop			@ (mov r8, r8)
10002d0c:	01ffffff 	.word	0x01ffffff
10002d10:	4000f000 	.word	0x4000f000
10002d14:	4000c008 	.word	0x4000c008

10002d18 <runtime_init_rp2040_gpio_ie_disable>:
10002d18:	2240      	movs	r2, #64	@ 0x40
10002d1a:	4b03      	ldr	r3, [pc, #12]	@ (10002d28 <runtime_init_rp2040_gpio_ie_disable+0x10>)
10002d1c:	679a      	str	r2, [r3, #120]	@ 0x78
10002d1e:	675a      	str	r2, [r3, #116]	@ 0x74
10002d20:	671a      	str	r2, [r3, #112]	@ 0x70
10002d22:	66da      	str	r2, [r3, #108]	@ 0x6c
10002d24:	4770      	bx	lr
10002d26:	46c0      	nop			@ (mov r8, r8)
10002d28:	4001f000 	.word	0x4001f000

10002d2c <runtime_init_spin_locks_reset>:
10002d2c:	b510      	push	{r4, lr}
10002d2e:	f7fe ff19 	bl	10001b64 <spin_locks_reset>
10002d32:	bd10      	pop	{r4, pc}

10002d34 <runtime_init_install_ram_vector_table>:
10002d34:	b570      	push	{r4, r5, r6, lr}
10002d36:	4d04      	ldr	r5, [pc, #16]	@ (10002d48 <runtime_init_install_ram_vector_table+0x14>)
10002d38:	4c04      	ldr	r4, [pc, #16]	@ (10002d4c <runtime_init_install_ram_vector_table+0x18>)
10002d3a:	68a9      	ldr	r1, [r5, #8]
10002d3c:	22c0      	movs	r2, #192	@ 0xc0
10002d3e:	0020      	movs	r0, r4
10002d40:	f000 ff28 	bl	10003b94 <__wrap___aeabi_memcpy>
10002d44:	60ac      	str	r4, [r5, #8]
10002d46:	bd70      	pop	{r4, r5, r6, pc}
10002d48:	e000ed00 	.word	0xe000ed00
10002d4c:	20000000 	.word	0x20000000

10002d50 <runtime_init_clocks>:
10002d50:	2300      	movs	r3, #0
10002d52:	b510      	push	{r4, lr}
10002d54:	4c29      	ldr	r4, [pc, #164]	@ (10002dfc <runtime_init_clocks+0xac>)
10002d56:	b082      	sub	sp, #8
10002d58:	67a3      	str	r3, [r4, #120]	@ 0x78
10002d5a:	f7ff ff79 	bl	10002c50 <xosc_init>
10002d5e:	2201      	movs	r2, #1
10002d60:	4b27      	ldr	r3, [pc, #156]	@ (10002e00 <runtime_init_clocks+0xb0>)
10002d62:	601a      	str	r2, [r3, #0]
10002d64:	6c63      	ldr	r3, [r4, #68]	@ 0x44
10002d66:	2b01      	cmp	r3, #1
10002d68:	d1fc      	bne.n	10002d64 <runtime_init_clocks+0x14>
10002d6a:	2203      	movs	r2, #3
10002d6c:	4b25      	ldr	r3, [pc, #148]	@ (10002e04 <runtime_init_clocks+0xb4>)
10002d6e:	601a      	str	r2, [r3, #0]
10002d70:	4a22      	ldr	r2, [pc, #136]	@ (10002dfc <runtime_init_clocks+0xac>)
10002d72:	6b93      	ldr	r3, [r2, #56]	@ 0x38
10002d74:	2b01      	cmp	r3, #1
10002d76:	d1fc      	bne.n	10002d72 <runtime_init_clocks+0x22>
10002d78:	3301      	adds	r3, #1
10002d7a:	9300      	str	r3, [sp, #0]
10002d7c:	2101      	movs	r1, #1
10002d7e:	4a22      	ldr	r2, [pc, #136]	@ (10002e08 <runtime_init_clocks+0xb8>)
10002d80:	4822      	ldr	r0, [pc, #136]	@ (10002e0c <runtime_init_clocks+0xbc>)
10002d82:	3304      	adds	r3, #4
10002d84:	f7ff feda 	bl	10002b3c <pll_init>
10002d88:	2305      	movs	r3, #5
10002d8a:	2101      	movs	r1, #1
10002d8c:	9300      	str	r3, [sp, #0]
10002d8e:	4a20      	ldr	r2, [pc, #128]	@ (10002e10 <runtime_init_clocks+0xc0>)
10002d90:	4820      	ldr	r0, [pc, #128]	@ (10002e14 <runtime_init_clocks+0xc4>)
10002d92:	f7ff fed3 	bl	10002b3c <pll_init>
10002d96:	2200      	movs	r2, #0
10002d98:	2102      	movs	r1, #2
10002d9a:	2004      	movs	r0, #4
10002d9c:	4b1e      	ldr	r3, [pc, #120]	@ (10002e18 <runtime_init_clocks+0xc8>)
10002d9e:	f7ff fe53 	bl	10002a48 <clock_configure_undivided>
10002da2:	2200      	movs	r2, #0
10002da4:	2101      	movs	r1, #1
10002da6:	2005      	movs	r0, #5
10002da8:	4b1c      	ldr	r3, [pc, #112]	@ (10002e1c <runtime_init_clocks+0xcc>)
10002daa:	f7ff fe4d 	bl	10002a48 <clock_configure_undivided>
10002dae:	2200      	movs	r2, #0
10002db0:	2100      	movs	r1, #0
10002db2:	2007      	movs	r0, #7
10002db4:	4b1a      	ldr	r3, [pc, #104]	@ (10002e20 <runtime_init_clocks+0xd0>)
10002db6:	f7ff fe47 	bl	10002a48 <clock_configure_undivided>
10002dba:	2200      	movs	r2, #0
10002dbc:	2100      	movs	r1, #0
10002dbe:	2008      	movs	r0, #8
10002dc0:	4b17      	ldr	r3, [pc, #92]	@ (10002e20 <runtime_init_clocks+0xd0>)
10002dc2:	f7ff fe41 	bl	10002a48 <clock_configure_undivided>
10002dc6:	2380      	movs	r3, #128	@ 0x80
10002dc8:	00db      	lsls	r3, r3, #3
10002dca:	9300      	str	r3, [sp, #0]
10002dcc:	2200      	movs	r2, #0
10002dce:	2100      	movs	r1, #0
10002dd0:	2009      	movs	r0, #9
10002dd2:	4b13      	ldr	r3, [pc, #76]	@ (10002e20 <runtime_init_clocks+0xd0>)
10002dd4:	f7ff fdbe 	bl	10002954 <clock_configure_int_divider>
10002dd8:	2200      	movs	r2, #0
10002dda:	4b10      	ldr	r3, [pc, #64]	@ (10002e1c <runtime_init_clocks+0xcc>)
10002ddc:	2100      	movs	r1, #0
10002dde:	2006      	movs	r0, #6
10002de0:	f7ff fe32 	bl	10002a48 <clock_configure_undivided>
10002de4:	2004      	movs	r0, #4
10002de6:	f7ff fea3 	bl	10002b30 <clock_get_hz>
10002dea:	490e      	ldr	r1, [pc, #56]	@ (10002e24 <runtime_init_clocks+0xd4>)
10002dec:	f000 f84c 	bl	10002e88 <__wrap___aeabi_uidiv>
10002df0:	0001      	movs	r1, r0
10002df2:	2000      	movs	r0, #0
10002df4:	f7ff fef2 	bl	10002bdc <tick_start>
10002df8:	b002      	add	sp, #8
10002dfa:	bd10      	pop	{r4, pc}
10002dfc:	40008000 	.word	0x40008000
10002e00:	4000b03c 	.word	0x4000b03c
10002e04:	4000b030 	.word	0x4000b030
10002e08:	59682f00 	.word	0x59682f00
10002e0c:	40028000 	.word	0x40028000
10002e10:	47868c00 	.word	0x47868c00
10002e14:	4002c000 	.word	0x4002c000
10002e18:	00b71b00 	.word	0x00b71b00
10002e1c:	07735940 	.word	0x07735940
10002e20:	02dc6c00 	.word	0x02dc6c00
10002e24:	000f4240 	.word	0x000f4240

10002e28 <__aeabi_bits_init>:
10002e28:	4801      	ldr	r0, [pc, #4]	@ (10002e30 <__aeabi_bits_init+0x8>)
10002e2a:	2104      	movs	r1, #4
10002e2c:	4b01      	ldr	r3, [pc, #4]	@ (10002e34 <__aeabi_bits_init+0xc>)
10002e2e:	4718      	bx	r3
10002e30:	20000200 	.word	0x20000200
10002e34:	10002c0d 	.word	0x10002c0d

10002e38 <__wrap___aeabi_idiv>:
10002e38:	4a12      	ldr	r2, [pc, #72]	@ (10002e84 <divmod_s32s32_savestate+0x18>)
10002e3a:	6f93      	ldr	r3, [r2, #120]	@ 0x78
10002e3c:	089b      	lsrs	r3, r3, #2
10002e3e:	d215      	bcs.n	10002e6c <divmod_s32s32_savestate>

10002e40 <divmod_s32s32_unsafe>:
10002e40:	6690      	str	r0, [r2, #104]	@ 0x68
10002e42:	66d1      	str	r1, [r2, #108]	@ 0x6c
10002e44:	2900      	cmp	r1, #0
10002e46:	d005      	beq.n	10002e54 <divmod_s32s32_unsafe+0x14>
10002e48:	e7ff      	b.n	10002e4a <divmod_s32s32_unsafe+0xa>
10002e4a:	e7ff      	b.n	10002e4c <divmod_s32s32_unsafe+0xc>
10002e4c:	e7ff      	b.n	10002e4e <divmod_s32s32_unsafe+0xe>
10002e4e:	6f51      	ldr	r1, [r2, #116]	@ 0x74
10002e50:	6f10      	ldr	r0, [r2, #112]	@ 0x70
10002e52:	4770      	bx	lr
10002e54:	b504      	push	{r2, lr}
10002e56:	2180      	movs	r1, #128	@ 0x80
10002e58:	0609      	lsls	r1, r1, #24
10002e5a:	17c2      	asrs	r2, r0, #31
10002e5c:	4051      	eors	r1, r2
10002e5e:	2800      	cmp	r0, #0
10002e60:	d000      	beq.n	10002e64 <divmod_s32s32_unsafe+0x24>
10002e62:	43c8      	mvns	r0, r1
10002e64:	f002 fde0 	bl	10005a28 <____aeabi_idiv0_veneer>
10002e68:	2100      	movs	r1, #0
10002e6a:	bd04      	pop	{r2, pc}

10002e6c <divmod_s32s32_savestate>:
10002e6c:	b5f0      	push	{r4, r5, r6, r7, lr}
10002e6e:	6e14      	ldr	r4, [r2, #96]	@ 0x60
10002e70:	6e55      	ldr	r5, [r2, #100]	@ 0x64
10002e72:	6f57      	ldr	r7, [r2, #116]	@ 0x74
10002e74:	6f16      	ldr	r6, [r2, #112]	@ 0x70
10002e76:	f7ff ffe3 	bl	10002e40 <divmod_s32s32_unsafe>
10002e7a:	6614      	str	r4, [r2, #96]	@ 0x60
10002e7c:	6655      	str	r5, [r2, #100]	@ 0x64
10002e7e:	6757      	str	r7, [r2, #116]	@ 0x74
10002e80:	6716      	str	r6, [r2, #112]	@ 0x70
10002e82:	bdf0      	pop	{r4, r5, r6, r7, pc}
10002e84:	d0000000 	.word	0xd0000000

10002e88 <__wrap___aeabi_uidiv>:
10002e88:	4a11      	ldr	r2, [pc, #68]	@ (10002ed0 <divmod_u32u32_savestate+0x18>)
10002e8a:	6f93      	ldr	r3, [r2, #120]	@ 0x78
10002e8c:	089b      	lsrs	r3, r3, #2
10002e8e:	d213      	bcs.n	10002eb8 <divmod_u32u32_savestate>

10002e90 <divmod_u32u32_unsafe>:
10002e90:	6610      	str	r0, [r2, #96]	@ 0x60
10002e92:	6651      	str	r1, [r2, #100]	@ 0x64
10002e94:	2900      	cmp	r1, #0
10002e96:	d005      	beq.n	10002ea4 <divmod_u32u32_unsafe+0x14>
10002e98:	e7ff      	b.n	10002e9a <divmod_u32u32_unsafe+0xa>
10002e9a:	e7ff      	b.n	10002e9c <divmod_u32u32_unsafe+0xc>
10002e9c:	e7ff      	b.n	10002e9e <divmod_u32u32_unsafe+0xe>
10002e9e:	6f51      	ldr	r1, [r2, #116]	@ 0x74
10002ea0:	6f10      	ldr	r0, [r2, #112]	@ 0x70
10002ea2:	4770      	bx	lr
10002ea4:	b504      	push	{r2, lr}
10002ea6:	2800      	cmp	r0, #0
10002ea8:	d001      	beq.n	10002eae <divmod_u32u32_unsafe+0x1e>
10002eaa:	2000      	movs	r0, #0
10002eac:	43c0      	mvns	r0, r0
10002eae:	f002 fdbb 	bl	10005a28 <____aeabi_idiv0_veneer>
10002eb2:	2100      	movs	r1, #0
10002eb4:	bd04      	pop	{r2, pc}
10002eb6:	46c0      	nop			@ (mov r8, r8)

10002eb8 <divmod_u32u32_savestate>:
10002eb8:	b5f0      	push	{r4, r5, r6, r7, lr}
10002eba:	6e14      	ldr	r4, [r2, #96]	@ 0x60
10002ebc:	6e55      	ldr	r5, [r2, #100]	@ 0x64
10002ebe:	6f57      	ldr	r7, [r2, #116]	@ 0x74
10002ec0:	6f16      	ldr	r6, [r2, #112]	@ 0x70
10002ec2:	f7ff ffe5 	bl	10002e90 <divmod_u32u32_unsafe>
10002ec6:	6614      	str	r4, [r2, #96]	@ 0x60
10002ec8:	6655      	str	r5, [r2, #100]	@ 0x64
10002eca:	6757      	str	r7, [r2, #116]	@ 0x74
10002ecc:	6716      	str	r6, [r2, #112]	@ 0x70
10002ece:	bdf0      	pop	{r4, r5, r6, r7, pc}
10002ed0:	d0000000 	.word	0xd0000000

10002ed4 <__wrap___aeabi_ldivmod>:
10002ed4:	4694      	mov	ip, r2
10002ed6:	4a4a      	ldr	r2, [pc, #296]	@ (10003000 <udiv0+0x1a>)
10002ed8:	6f92      	ldr	r2, [r2, #120]	@ 0x78
10002eda:	0892      	lsrs	r2, r2, #2
10002edc:	4662      	mov	r2, ip
10002ede:	d201      	bcs.n	10002ee4 <divmod_s64s64_savestate>
10002ee0:	e028      	b.n	10002f34 <divmod_s64s64_unsafe>
10002ee2:	46c0      	nop			@ (mov r8, r8)

10002ee4 <divmod_s64s64_savestate>:
10002ee4:	b5f0      	push	{r4, r5, r6, r7, lr}
10002ee6:	4e46      	ldr	r6, [pc, #280]	@ (10003000 <udiv0+0x1a>)
10002ee8:	6e34      	ldr	r4, [r6, #96]	@ 0x60
10002eea:	6e75      	ldr	r5, [r6, #100]	@ 0x64
10002eec:	6f77      	ldr	r7, [r6, #116]	@ 0x74
10002eee:	6f36      	ldr	r6, [r6, #112]	@ 0x70
10002ef0:	f000 f820 	bl	10002f34 <divmod_s64s64_unsafe>
10002ef4:	4694      	mov	ip, r2
10002ef6:	4a42      	ldr	r2, [pc, #264]	@ (10003000 <udiv0+0x1a>)
10002ef8:	6614      	str	r4, [r2, #96]	@ 0x60
10002efa:	6655      	str	r5, [r2, #100]	@ 0x64
10002efc:	6757      	str	r7, [r2, #116]	@ 0x74
10002efe:	6716      	str	r6, [r2, #112]	@ 0x70
10002f00:	4662      	mov	r2, ip
10002f02:	bdf0      	pop	{r4, r5, r6, r7, pc}

10002f04 <__wrap___aeabi_uldivmod>:
10002f04:	4694      	mov	ip, r2
10002f06:	4a3e      	ldr	r2, [pc, #248]	@ (10003000 <udiv0+0x1a>)
10002f08:	6f92      	ldr	r2, [r2, #120]	@ 0x78
10002f0a:	0892      	lsrs	r2, r2, #2
10002f0c:	4662      	mov	r2, ip
10002f0e:	d201      	bcs.n	10002f14 <divmod_u64u64_savestate>
10002f10:	e054      	b.n	10002fbc <divmod_u64u64_unsafe>
10002f12:	46c0      	nop			@ (mov r8, r8)

10002f14 <divmod_u64u64_savestate>:
10002f14:	b5f0      	push	{r4, r5, r6, r7, lr}
10002f16:	4e3a      	ldr	r6, [pc, #232]	@ (10003000 <udiv0+0x1a>)
10002f18:	6e34      	ldr	r4, [r6, #96]	@ 0x60
10002f1a:	6e75      	ldr	r5, [r6, #100]	@ 0x64
10002f1c:	6f77      	ldr	r7, [r6, #116]	@ 0x74
10002f1e:	6f36      	ldr	r6, [r6, #112]	@ 0x70
10002f20:	f000 f84c 	bl	10002fbc <divmod_u64u64_unsafe>
10002f24:	4694      	mov	ip, r2
10002f26:	4a36      	ldr	r2, [pc, #216]	@ (10003000 <udiv0+0x1a>)
10002f28:	6614      	str	r4, [r2, #96]	@ 0x60
10002f2a:	6655      	str	r5, [r2, #100]	@ 0x64
10002f2c:	6757      	str	r7, [r2, #116]	@ 0x74
10002f2e:	6716      	str	r6, [r2, #112]	@ 0x70
10002f30:	4662      	mov	r2, ip
10002f32:	bdf0      	pop	{r4, r5, r6, r7, pc}

10002f34 <divmod_s64s64_unsafe>:
10002f34:	2b00      	cmp	r3, #0
10002f36:	db24      	blt.n	10002f82 <l42_1+0x26>
10002f38:	d011      	beq.n	10002f5e <l42_1+0x2>
10002f3a:	2900      	cmp	r1, #0
10002f3c:	da3e      	bge.n	10002fbc <divmod_u64u64_unsafe>
10002f3e:	b500      	push	{lr}
10002f40:	43c9      	mvns	r1, r1
10002f42:	4240      	negs	r0, r0
10002f44:	d100      	bne.n	10002f48 <l40_1>
10002f46:	3101      	adds	r1, #1

10002f48 <l40_1>:
10002f48:	f000 f838 	bl	10002fbc <divmod_u64u64_unsafe>
10002f4c:	43c9      	mvns	r1, r1
10002f4e:	4240      	negs	r0, r0
10002f50:	d100      	bne.n	10002f54 <l41_1>
10002f52:	3101      	adds	r1, #1

10002f54 <l41_1>:
10002f54:	43db      	mvns	r3, r3
10002f56:	4252      	negs	r2, r2
10002f58:	d100      	bne.n	10002f5c <l42_1>
10002f5a:	3301      	adds	r3, #1

10002f5c <l42_1>:
10002f5c:	bd00      	pop	{pc}
10002f5e:	2a00      	cmp	r2, #0
10002f60:	d1eb      	bne.n	10002f3a <divmod_s64s64_unsafe+0x6>
10002f62:	2800      	cmp	r0, #0
10002f64:	d101      	bne.n	10002f6a <l42_1+0xe>
10002f66:	2900      	cmp	r1, #0
10002f68:	d005      	beq.n	10002f76 <l42_1+0x1a>
10002f6a:	2000      	movs	r0, #0
10002f6c:	0fc9      	lsrs	r1, r1, #31
10002f6e:	07c9      	lsls	r1, r1, #31
10002f70:	d101      	bne.n	10002f76 <l42_1+0x1a>
10002f72:	43c0      	mvns	r0, r0
10002f74:	0841      	lsrs	r1, r0, #1
10002f76:	b500      	push	{lr}
10002f78:	f002 fd4e 	bl	10005a18 <____aeabi_ldiv0_veneer>
10002f7c:	2200      	movs	r2, #0
10002f7e:	2300      	movs	r3, #0
10002f80:	bd00      	pop	{pc}
10002f82:	b500      	push	{lr}
10002f84:	2900      	cmp	r1, #0
10002f86:	db0a      	blt.n	10002f9e <l44_1+0x2>
10002f88:	43db      	mvns	r3, r3
10002f8a:	4252      	negs	r2, r2
10002f8c:	d100      	bne.n	10002f90 <l43_1>
10002f8e:	3301      	adds	r3, #1

10002f90 <l43_1>:
10002f90:	f000 f814 	bl	10002fbc <divmod_u64u64_unsafe>
10002f94:	43c9      	mvns	r1, r1
10002f96:	4240      	negs	r0, r0
10002f98:	d100      	bne.n	10002f9c <l44_1>
10002f9a:	3101      	adds	r1, #1

10002f9c <l44_1>:
10002f9c:	bd00      	pop	{pc}
10002f9e:	43c9      	mvns	r1, r1
10002fa0:	4240      	negs	r0, r0
10002fa2:	d100      	bne.n	10002fa6 <l45_1>
10002fa4:	3101      	adds	r1, #1

10002fa6 <l45_1>:
10002fa6:	43db      	mvns	r3, r3
10002fa8:	4252      	negs	r2, r2
10002faa:	d100      	bne.n	10002fae <l46_1>
10002fac:	3301      	adds	r3, #1

10002fae <l46_1>:
10002fae:	f000 f805 	bl	10002fbc <divmod_u64u64_unsafe>
10002fb2:	43db      	mvns	r3, r3
10002fb4:	4252      	negs	r2, r2
10002fb6:	d100      	bne.n	10002fba <l47_1>
10002fb8:	3301      	adds	r3, #1

10002fba <l47_1>:
10002fba:	bd00      	pop	{pc}

10002fbc <divmod_u64u64_unsafe>:
10002fbc:	2900      	cmp	r1, #0
10002fbe:	d123      	bne.n	10003008 <y64>
10002fc0:	2b00      	cmp	r3, #0
10002fc2:	d118      	bne.n	10002ff6 <udiv0+0x10>
10002fc4:	2a00      	cmp	r2, #0
10002fc6:	d00c      	beq.n	10002fe2 <divmod_u64u64_unsafe+0x26>
10002fc8:	46bc      	mov	ip, r7
10002fca:	4f0d      	ldr	r7, [pc, #52]	@ (10003000 <udiv0+0x1a>)
10002fcc:	6638      	str	r0, [r7, #96]	@ 0x60
10002fce:	667a      	str	r2, [r7, #100]	@ 0x64
10002fd0:	2100      	movs	r1, #0
10002fd2:	2300      	movs	r3, #0
10002fd4:	e7ff      	b.n	10002fd6 <divmod_u64u64_unsafe+0x1a>
10002fd6:	e7ff      	b.n	10002fd8 <divmod_u64u64_unsafe+0x1c>
10002fd8:	e7ff      	b.n	10002fda <divmod_u64u64_unsafe+0x1e>
10002fda:	6f7a      	ldr	r2, [r7, #116]	@ 0x74
10002fdc:	6f38      	ldr	r0, [r7, #112]	@ 0x70
10002fde:	4667      	mov	r7, ip
10002fe0:	4770      	bx	lr
10002fe2:	2800      	cmp	r0, #0
10002fe4:	d001      	beq.n	10002fea <udiv0+0x4>

10002fe6 <udiv0>:
10002fe6:	4807      	ldr	r0, [pc, #28]	@ (10003004 <udiv0+0x1e>)
10002fe8:	0001      	movs	r1, r0
10002fea:	b500      	push	{lr}
10002fec:	f002 fd14 	bl	10005a18 <____aeabi_ldiv0_veneer>
10002ff0:	2200      	movs	r2, #0
10002ff2:	2300      	movs	r3, #0
10002ff4:	bd00      	pop	{pc}
10002ff6:	0002      	movs	r2, r0
10002ff8:	000b      	movs	r3, r1
10002ffa:	2000      	movs	r0, #0
10002ffc:	2100      	movs	r1, #0
10002ffe:	4770      	bx	lr
10003000:	d0000000 	.word	0xd0000000
10003004:	ffffffff 	.word	0xffffffff

10003008 <y64>:
10003008:	2b00      	cmp	r3, #0
1000300a:	d000      	beq.n	1000300e <y64+0x6>
1000300c:	e0bf      	b.n	1000318e <y64_x48>
1000300e:	0c13      	lsrs	r3, r2, #16
10003010:	d128      	bne.n	10003064 <y64_x32>
10003012:	2a00      	cmp	r2, #0
10003014:	d0e7      	beq.n	10002fe6 <udiv0>
10003016:	b480      	push	{r7}
10003018:	4f11      	ldr	r7, [pc, #68]	@ (10003060 <y64+0x58>)
1000301a:	6639      	str	r1, [r7, #96]	@ 0x60
1000301c:	667a      	str	r2, [r7, #100]	@ 0x64
1000301e:	e7ff      	b.n	10003020 <y64+0x18>
10003020:	e7ff      	b.n	10003022 <y64+0x1a>
10003022:	b430      	push	{r4, r5}
10003024:	0c04      	lsrs	r4, r0, #16
10003026:	6f7b      	ldr	r3, [r7, #116]	@ 0x74
10003028:	6f39      	ldr	r1, [r7, #112]	@ 0x70
1000302a:	041b      	lsls	r3, r3, #16
1000302c:	4323      	orrs	r3, r4
1000302e:	663b      	str	r3, [r7, #96]	@ 0x60
10003030:	667a      	str	r2, [r7, #100]	@ 0x64
10003032:	e7ff      	b.n	10003034 <y64+0x2c>
10003034:	e7ff      	b.n	10003036 <y64+0x2e>
10003036:	e7ff      	b.n	10003038 <y64+0x30>
10003038:	46c0      	nop			@ (mov r8, r8)
1000303a:	b284      	uxth	r4, r0
1000303c:	6f7b      	ldr	r3, [r7, #116]	@ 0x74
1000303e:	6f3d      	ldr	r5, [r7, #112]	@ 0x70
10003040:	041b      	lsls	r3, r3, #16
10003042:	4323      	orrs	r3, r4
10003044:	663b      	str	r3, [r7, #96]	@ 0x60
10003046:	667a      	str	r2, [r7, #100]	@ 0x64
10003048:	e7ff      	b.n	1000304a <y64+0x42>
1000304a:	e7ff      	b.n	1000304c <y64+0x44>
1000304c:	46c0      	nop			@ (mov r8, r8)
1000304e:	2300      	movs	r3, #0
10003050:	042c      	lsls	r4, r5, #16
10003052:	0c2d      	lsrs	r5, r5, #16
10003054:	6f7a      	ldr	r2, [r7, #116]	@ 0x74
10003056:	6f38      	ldr	r0, [r7, #112]	@ 0x70
10003058:	1900      	adds	r0, r0, r4
1000305a:	4169      	adcs	r1, r5
1000305c:	bcb0      	pop	{r4, r5, r7}
1000305e:	4770      	bx	lr
10003060:	d0000000 	.word	0xd0000000

10003064 <y64_x32>:
10003064:	b5f0      	push	{r4, r5, r6, r7, lr}
10003066:	4694      	mov	ip, r2
10003068:	2500      	movs	r5, #0
1000306a:	0e14      	lsrs	r4, r2, #24
1000306c:	d101      	bne.n	10003072 <y64_x32+0xe>
1000306e:	0212      	lsls	r2, r2, #8
10003070:	3508      	adds	r5, #8
10003072:	0f14      	lsrs	r4, r2, #28
10003074:	d101      	bne.n	1000307a <y64_x32+0x16>
10003076:	0112      	lsls	r2, r2, #4
10003078:	3504      	adds	r5, #4
1000307a:	0f94      	lsrs	r4, r2, #30
1000307c:	d101      	bne.n	10003082 <y64_x32+0x1e>
1000307e:	0092      	lsls	r2, r2, #2
10003080:	3502      	adds	r5, #2
10003082:	0fd4      	lsrs	r4, r2, #31
10003084:	d101      	bne.n	1000308a <y64_x32+0x26>
10003086:	0052      	lsls	r2, r2, #1
10003088:	3501      	adds	r5, #1
1000308a:	0bd4      	lsrs	r4, r2, #15
1000308c:	3401      	adds	r4, #1
1000308e:	4f25      	ldr	r7, [pc, #148]	@ (10003124 <y64_x32+0xc0>)
10003090:	667c      	str	r4, [r7, #100]	@ 0x64
10003092:	4c25      	ldr	r4, [pc, #148]	@ (10003128 <y64_x32+0xc4>)
10003094:	663c      	str	r4, [r7, #96]	@ 0x60
10003096:	0c0e      	lsrs	r6, r1, #16
10003098:	b293      	uxth	r3, r2
1000309a:	e7ff      	b.n	1000309c <y64_x32+0x38>
1000309c:	e7ff      	b.n	1000309e <y64_x32+0x3a>
1000309e:	e7ff      	b.n	100030a0 <y64_x32+0x3c>
100030a0:	6f3c      	ldr	r4, [r7, #112]	@ 0x70
100030a2:	4366      	muls	r6, r4
100030a4:	0c36      	lsrs	r6, r6, #16
100030a6:	0377      	lsls	r7, r6, #13
100030a8:	46be      	mov	lr, r7
100030aa:	4373      	muls	r3, r6
100030ac:	0bdf      	lsrs	r7, r3, #15
100030ae:	045b      	lsls	r3, r3, #17
100030b0:	1ac0      	subs	r0, r0, r3
100030b2:	41b9      	sbcs	r1, r7
100030b4:	0c13      	lsrs	r3, r2, #16
100030b6:	4373      	muls	r3, r6
100030b8:	18db      	adds	r3, r3, r3
100030ba:	1ac9      	subs	r1, r1, r3
100030bc:	08ce      	lsrs	r6, r1, #3
100030be:	4366      	muls	r6, r4
100030c0:	0c36      	lsrs	r6, r6, #16
100030c2:	44b6      	add	lr, r6
100030c4:	b293      	uxth	r3, r2
100030c6:	4373      	muls	r3, r6
100030c8:	0f1f      	lsrs	r7, r3, #28
100030ca:	011b      	lsls	r3, r3, #4
100030cc:	1ac0      	subs	r0, r0, r3
100030ce:	41b9      	sbcs	r1, r7
100030d0:	0c13      	lsrs	r3, r2, #16
100030d2:	4373      	muls	r3, r6
100030d4:	0b1f      	lsrs	r7, r3, #12
100030d6:	051b      	lsls	r3, r3, #20
100030d8:	1ac0      	subs	r0, r0, r3
100030da:	41b9      	sbcs	r1, r7
100030dc:	0d86      	lsrs	r6, r0, #22
100030de:	028f      	lsls	r7, r1, #10
100030e0:	433e      	orrs	r6, r7
100030e2:	4366      	muls	r6, r4
100030e4:	0c36      	lsrs	r6, r6, #16
100030e6:	2d09      	cmp	r5, #9
100030e8:	db24      	blt.n	10003134 <last0>
100030ea:	0a52      	lsrs	r2, r2, #9
100030ec:	4372      	muls	r2, r6
100030ee:	1a80      	subs	r0, r0, r2
100030f0:	0377      	lsls	r7, r6, #13
100030f2:	0a46      	lsrs	r6, r0, #9
100030f4:	4366      	muls	r6, r4
100030f6:	0c36      	lsrs	r6, r6, #16
100030f8:	2316      	movs	r3, #22
100030fa:	1b5b      	subs	r3, r3, r5
100030fc:	40de      	lsrs	r6, r3
100030fe:	40df      	lsrs	r7, r3
10003100:	19bf      	adds	r7, r7, r6
10003102:	4664      	mov	r4, ip
10003104:	4366      	muls	r6, r4
10003106:	1b82      	subs	r2, r0, r6
10003108:	4670      	mov	r0, lr
1000310a:	3504      	adds	r5, #4
1000310c:	3306      	adds	r3, #6
1000310e:	0001      	movs	r1, r0
10003110:	40d9      	lsrs	r1, r3
10003112:	40a8      	lsls	r0, r5
10003114:	19c0      	adds	r0, r0, r7
10003116:	d300      	bcc.n	1000311a <y64_x32+0xb6>
10003118:	3101      	adds	r1, #1
1000311a:	42a2      	cmp	r2, r4
1000311c:	d206      	bcs.n	1000312c <y64_x32+0xc8>
1000311e:	2300      	movs	r3, #0
10003120:	bdf0      	pop	{r4, r5, r6, r7, pc}
10003122:	0000      	.short	0x0000
10003124:	d0000000 	.word	0xd0000000
10003128:	ffffffff 	.word	0xffffffff
1000312c:	1b12      	subs	r2, r2, r4
1000312e:	3001      	adds	r0, #1
10003130:	d3f3      	bcc.n	1000311a <y64_x32+0xb6>
10003132:	e7f1      	b.n	10003118 <y64_x32+0xb4>

10003134 <last0>:
10003134:	2709      	movs	r7, #9
10003136:	1b7f      	subs	r7, r7, r5
10003138:	40fe      	lsrs	r6, r7
1000313a:	4664      	mov	r4, ip
1000313c:	b2a2      	uxth	r2, r4
1000313e:	4372      	muls	r2, r6
10003140:	1a80      	subs	r0, r0, r2
10003142:	d200      	bcs.n	10003146 <last0+0x12>
10003144:	3901      	subs	r1, #1
10003146:	0c22      	lsrs	r2, r4, #16
10003148:	4372      	muls	r2, r6
1000314a:	0c13      	lsrs	r3, r2, #16
1000314c:	0412      	lsls	r2, r2, #16
1000314e:	1a82      	subs	r2, r0, r2
10003150:	4199      	sbcs	r1, r3
10003152:	000b      	movs	r3, r1
10003154:	4670      	mov	r0, lr
10003156:	3504      	adds	r5, #4
10003158:	3713      	adds	r7, #19
1000315a:	0001      	movs	r1, r0
1000315c:	40f9      	lsrs	r1, r7
1000315e:	40a8      	lsls	r0, r5
10003160:	1980      	adds	r0, r0, r6
10003162:	d300      	bcc.n	10003166 <last0+0x32>
10003164:	3101      	adds	r1, #1
10003166:	2b00      	cmp	r3, #0
10003168:	d102      	bne.n	10003170 <last0+0x3c>
1000316a:	42a2      	cmp	r2, r4
1000316c:	d20a      	bcs.n	10003184 <last0+0x50>
1000316e:	bdf0      	pop	{r4, r5, r6, r7, pc}
10003170:	3001      	adds	r0, #1
10003172:	d300      	bcc.n	10003176 <last0+0x42>
10003174:	3101      	adds	r1, #1
10003176:	1b12      	subs	r2, r2, r4
10003178:	d2fa      	bcs.n	10003170 <last0+0x3c>
1000317a:	3b01      	subs	r3, #1
1000317c:	d1f8      	bne.n	10003170 <last0+0x3c>
1000317e:	42a2      	cmp	r2, r4
10003180:	d200      	bcs.n	10003184 <last0+0x50>
10003182:	bdf0      	pop	{r4, r5, r6, r7, pc}
10003184:	3001      	adds	r0, #1
10003186:	d300      	bcc.n	1000318a <last0+0x56>
10003188:	3101      	adds	r1, #1
1000318a:	1b12      	subs	r2, r2, r4
1000318c:	e7f7      	b.n	1000317e <last0+0x4a>

1000318e <y64_x48>:
1000318e:	b5f0      	push	{r4, r5, r6, r7, lr}
10003190:	0c1c      	lsrs	r4, r3, #16
10003192:	d000      	beq.n	10003196 <y64_x48+0x8>
10003194:	e080      	b.n	10003298 <y64_x64>
10003196:	b40c      	push	{r2, r3}
10003198:	2500      	movs	r5, #0
1000319a:	0a1c      	lsrs	r4, r3, #8
1000319c:	d104      	bne.n	100031a8 <y64_x48+0x1a>
1000319e:	021b      	lsls	r3, r3, #8
100031a0:	0e16      	lsrs	r6, r2, #24
100031a2:	4333      	orrs	r3, r6
100031a4:	0212      	lsls	r2, r2, #8
100031a6:	3508      	adds	r5, #8
100031a8:	0b1c      	lsrs	r4, r3, #12
100031aa:	d104      	bne.n	100031b6 <y64_x48+0x28>
100031ac:	011b      	lsls	r3, r3, #4
100031ae:	0f16      	lsrs	r6, r2, #28
100031b0:	4333      	orrs	r3, r6
100031b2:	0112      	lsls	r2, r2, #4
100031b4:	3504      	adds	r5, #4
100031b6:	0b9c      	lsrs	r4, r3, #14
100031b8:	d104      	bne.n	100031c4 <y64_x48+0x36>
100031ba:	009b      	lsls	r3, r3, #2
100031bc:	0f96      	lsrs	r6, r2, #30
100031be:	4333      	orrs	r3, r6
100031c0:	0092      	lsls	r2, r2, #2
100031c2:	3502      	adds	r5, #2
100031c4:	0bdc      	lsrs	r4, r3, #15
100031c6:	d102      	bne.n	100031ce <y64_x48+0x40>
100031c8:	1892      	adds	r2, r2, r2
100031ca:	415b      	adcs	r3, r3
100031cc:	3501      	adds	r5, #1
100031ce:	001c      	movs	r4, r3
100031d0:	1897      	adds	r7, r2, r2
100031d2:	4164      	adcs	r4, r4
100031d4:	3401      	adds	r4, #1
100031d6:	4f46      	ldr	r7, [pc, #280]	@ (100032f0 <y64_x64+0x58>)
100031d8:	667c      	str	r4, [r7, #100]	@ 0x64
100031da:	4c46      	ldr	r4, [pc, #280]	@ (100032f4 <y64_x64+0x5c>)
100031dc:	663c      	str	r4, [r7, #96]	@ 0x60
100031de:	0c0e      	lsrs	r6, r1, #16
100031e0:	e7ff      	b.n	100031e2 <y64_x48+0x54>
100031e2:	e7ff      	b.n	100031e4 <y64_x48+0x56>
100031e4:	e7ff      	b.n	100031e6 <y64_x48+0x58>
100031e6:	46c0      	nop			@ (mov r8, r8)
100031e8:	6f3c      	ldr	r4, [r7, #112]	@ 0x70
100031ea:	4366      	muls	r6, r4
100031ec:	0c36      	lsrs	r6, r6, #16
100031ee:	0377      	lsls	r7, r6, #13
100031f0:	46be      	mov	lr, r7
100031f2:	b297      	uxth	r7, r2
100031f4:	4377      	muls	r7, r6
100031f6:	1bc0      	subs	r0, r0, r7
100031f8:	d200      	bcs.n	100031fc <y64_x48+0x6e>
100031fa:	3901      	subs	r1, #1
100031fc:	1bc0      	subs	r0, r0, r7
100031fe:	d200      	bcs.n	10003202 <y64_x48+0x74>
10003200:	3901      	subs	r1, #1
10003202:	b29f      	uxth	r7, r3
10003204:	4377      	muls	r7, r6
10003206:	1bc9      	subs	r1, r1, r7
10003208:	1bc9      	subs	r1, r1, r7
1000320a:	0c17      	lsrs	r7, r2, #16
1000320c:	4377      	muls	r7, r6
1000320e:	047e      	lsls	r6, r7, #17
10003210:	0bff      	lsrs	r7, r7, #15
10003212:	1b80      	subs	r0, r0, r6
10003214:	41b9      	sbcs	r1, r7
10003216:	08ce      	lsrs	r6, r1, #3
10003218:	4366      	muls	r6, r4
1000321a:	0c36      	lsrs	r6, r6, #16
1000321c:	2d0c      	cmp	r5, #12
1000321e:	db33      	blt.n	10003288 <last1>
10003220:	44b6      	add	lr, r6
10003222:	0b12      	lsrs	r2, r2, #12
10003224:	051f      	lsls	r7, r3, #20
10003226:	433a      	orrs	r2, r7
10003228:	0b1b      	lsrs	r3, r3, #12
1000322a:	b297      	uxth	r7, r2
1000322c:	4377      	muls	r7, r6
1000322e:	1bc0      	subs	r0, r0, r7
10003230:	d200      	bcs.n	10003234 <y64_x48+0xa6>
10003232:	3901      	subs	r1, #1
10003234:	b29f      	uxth	r7, r3
10003236:	4377      	muls	r7, r6
10003238:	1bc9      	subs	r1, r1, r7
1000323a:	0c17      	lsrs	r7, r2, #16
1000323c:	4377      	muls	r7, r6
1000323e:	043e      	lsls	r6, r7, #16
10003240:	0c3f      	lsrs	r7, r7, #16
10003242:	1b80      	subs	r0, r0, r6
10003244:	41b9      	sbcs	r1, r7
10003246:	0d86      	lsrs	r6, r0, #22
10003248:	028f      	lsls	r7, r1, #10
1000324a:	433e      	orrs	r6, r7
1000324c:	4366      	muls	r6, r4
1000324e:	2729      	movs	r7, #41	@ 0x29
10003250:	1b7f      	subs	r7, r7, r5
10003252:	40fe      	lsrs	r6, r7
10003254:	3d0c      	subs	r5, #12
10003256:	4677      	mov	r7, lr
10003258:	40af      	lsls	r7, r5
1000325a:	19bf      	adds	r7, r7, r6
1000325c:	bc30      	pop	{r4, r5}
1000325e:	b2a2      	uxth	r2, r4
10003260:	b2ab      	uxth	r3, r5
10003262:	4372      	muls	r2, r6
10003264:	4373      	muls	r3, r6
10003266:	1a80      	subs	r0, r0, r2
10003268:	4199      	sbcs	r1, r3
1000326a:	0c22      	lsrs	r2, r4, #16
1000326c:	4372      	muls	r2, r6
1000326e:	0c13      	lsrs	r3, r2, #16
10003270:	0412      	lsls	r2, r2, #16
10003272:	1a80      	subs	r0, r0, r2
10003274:	4199      	sbcs	r1, r3
10003276:	0002      	movs	r2, r0
10003278:	000b      	movs	r3, r1
1000327a:	3701      	adds	r7, #1
1000327c:	1b00      	subs	r0, r0, r4
1000327e:	41a9      	sbcs	r1, r5
10003280:	d2f9      	bcs.n	10003276 <y64_x48+0xe8>
10003282:	1e78      	subs	r0, r7, #1
10003284:	2100      	movs	r1, #0
10003286:	bdf0      	pop	{r4, r5, r6, r7, pc}

10003288 <last1>:
10003288:	270c      	movs	r7, #12
1000328a:	1b7f      	subs	r7, r7, r5
1000328c:	40fe      	lsrs	r6, r7
1000328e:	4677      	mov	r7, lr
10003290:	0b7f      	lsrs	r7, r7, #13
10003292:	40af      	lsls	r7, r5
10003294:	19ff      	adds	r7, r7, r7
10003296:	e7e0      	b.n	1000325a <y64_x48+0xcc>

10003298 <y64_x64>:
10003298:	2400      	movs	r4, #0
1000329a:	1c5d      	adds	r5, r3, #1
1000329c:	d007      	beq.n	100032ae <y64_x64+0x16>
1000329e:	4f14      	ldr	r7, [pc, #80]	@ (100032f0 <y64_x64+0x58>)
100032a0:	667d      	str	r5, [r7, #100]	@ 0x64
100032a2:	6639      	str	r1, [r7, #96]	@ 0x60
100032a4:	e7ff      	b.n	100032a6 <y64_x64+0xe>
100032a6:	e7ff      	b.n	100032a8 <y64_x64+0x10>
100032a8:	e7ff      	b.n	100032aa <y64_x64+0x12>
100032aa:	e7ff      	b.n	100032ac <y64_x64+0x14>
100032ac:	6f3c      	ldr	r4, [r7, #112]	@ 0x70
100032ae:	b295      	uxth	r5, r2
100032b0:	b29e      	uxth	r6, r3
100032b2:	4365      	muls	r5, r4
100032b4:	4366      	muls	r6, r4
100032b6:	1b40      	subs	r0, r0, r5
100032b8:	41b1      	sbcs	r1, r6
100032ba:	0c15      	lsrs	r5, r2, #16
100032bc:	0c1e      	lsrs	r6, r3, #16
100032be:	4365      	muls	r5, r4
100032c0:	4366      	muls	r6, r4
100032c2:	0436      	lsls	r6, r6, #16
100032c4:	0c2f      	lsrs	r7, r5, #16
100032c6:	433e      	orrs	r6, r7
100032c8:	042d      	lsls	r5, r5, #16
100032ca:	1b40      	subs	r0, r0, r5
100032cc:	41b1      	sbcs	r1, r6
100032ce:	4299      	cmp	r1, r3
100032d0:	d204      	bcs.n	100032dc <y64_x64+0x44>
100032d2:	0002      	movs	r2, r0
100032d4:	000b      	movs	r3, r1
100032d6:	0020      	movs	r0, r4
100032d8:	2100      	movs	r1, #0
100032da:	bdf0      	pop	{r4, r5, r6, r7, pc}
100032dc:	d101      	bne.n	100032e2 <y64_x64+0x4a>
100032de:	4290      	cmp	r0, r2
100032e0:	d3f7      	bcc.n	100032d2 <y64_x64+0x3a>
100032e2:	1a80      	subs	r0, r0, r2
100032e4:	4199      	sbcs	r1, r3
100032e6:	3401      	adds	r4, #1
100032e8:	4299      	cmp	r1, r3
100032ea:	d3f2      	bcc.n	100032d2 <y64_x64+0x3a>
100032ec:	e7f6      	b.n	100032dc <y64_x64+0x44>
100032ee:	0000      	.short	0x0000
100032f0:	d0000000 	.word	0xd0000000
100032f4:	ffffffff 	.word	0xffffffff

100032f8 <__wrap___aeabi_drsub>:
100032f8:	4048      	eors	r0, r1
100032fa:	4041      	eors	r1, r0
100032fc:	4048      	eors	r0, r1

100032fe <__wrap___aeabi_dsub>:
100032fe:	b418      	push	{r3, r4}
10003300:	4b1b      	ldr	r3, [pc, #108]	@ (10003370 <__wrap___aeabi_dmul+0x12>)
10003302:	685b      	ldr	r3, [r3, #4]
10003304:	46fc      	mov	ip, pc
10003306:	9301      	str	r3, [sp, #4]
10003308:	bd08      	pop	{r3, pc}
1000330a:	df04      	.short	0xdf04
1000330c:	10003593 	.word	0x10003593

10003310 <__wrap___aeabi_dadd>:
10003310:	b418      	push	{r3, r4}
10003312:	4b17      	ldr	r3, [pc, #92]	@ (10003370 <__wrap___aeabi_dmul+0x12>)
10003314:	681b      	ldr	r3, [r3, #0]
10003316:	46fc      	mov	ip, pc
10003318:	9301      	str	r3, [sp, #4]
1000331a:	bd08      	pop	{r3, pc}
1000331c:	359ddf00 	.word	0x359ddf00
10003320:	1000      	.short	0x1000

10003322 <__wrap___aeabi_ddiv>:
10003322:	4694      	mov	ip, r2
10003324:	4a13      	ldr	r2, [pc, #76]	@ (10003374 <__wrap___aeabi_dmul+0x16>)
10003326:	6f92      	ldr	r2, [r2, #120]	@ 0x78
10003328:	0892      	lsrs	r2, r2, #2
1000332a:	d209      	bcs.n	10003340 <ddiv_save_state>
1000332c:	4662      	mov	r2, ip

1000332e <ddiv_shim_call>:
1000332e:	b418      	push	{r3, r4}
10003330:	4b0f      	ldr	r3, [pc, #60]	@ (10003370 <__wrap___aeabi_dmul+0x12>)
10003332:	68db      	ldr	r3, [r3, #12]
10003334:	46fc      	mov	ip, pc
10003336:	9301      	str	r3, [sp, #4]
10003338:	bd08      	pop	{r3, pc}
1000333a:	df0c      	.short	0xdf0c
1000333c:	10003855 	.word	0x10003855

10003340 <ddiv_save_state>:
10003340:	4a0c      	ldr	r2, [pc, #48]	@ (10003374 <__wrap___aeabi_dmul+0x16>)
10003342:	b5f0      	push	{r4, r5, r6, r7, lr}
10003344:	6e14      	ldr	r4, [r2, #96]	@ 0x60
10003346:	6e55      	ldr	r5, [r2, #100]	@ 0x64
10003348:	6f57      	ldr	r7, [r2, #116]	@ 0x74
1000334a:	6f16      	ldr	r6, [r2, #112]	@ 0x70
1000334c:	4662      	mov	r2, ip
1000334e:	f7ff ffee 	bl	1000332e <ddiv_shim_call>
10003352:	4a08      	ldr	r2, [pc, #32]	@ (10003374 <__wrap___aeabi_dmul+0x16>)
10003354:	6614      	str	r4, [r2, #96]	@ 0x60
10003356:	6655      	str	r5, [r2, #100]	@ 0x64
10003358:	6757      	str	r7, [r2, #116]	@ 0x74
1000335a:	6716      	str	r6, [r2, #112]	@ 0x70
1000335c:	bdf0      	pop	{r4, r5, r6, r7, pc}

1000335e <__wrap___aeabi_dmul>:
1000335e:	b418      	push	{r3, r4}
10003360:	4b03      	ldr	r3, [pc, #12]	@ (10003370 <__wrap___aeabi_dmul+0x12>)
10003362:	689b      	ldr	r3, [r3, #8]
10003364:	46fc      	mov	ip, pc
10003366:	9301      	str	r3, [sp, #4]
10003368:	bd08      	pop	{r3, pc}
1000336a:	df08      	.short	0xdf08
1000336c:	100036f9 	.word	0x100036f9
10003370:	200007f0 	.word	0x200007f0
10003374:	d0000000 	.word	0xd0000000

10003378 <__wrap___aeabi_cdrcmple>:
10003378:	b5ff      	push	{r0, r1, r2, r3, r4, r5, r6, r7, lr}
1000337a:	4050      	eors	r0, r2
1000337c:	4042      	eors	r2, r0
1000337e:	4050      	eors	r0, r2
10003380:	4059      	eors	r1, r3
10003382:	404b      	eors	r3, r1
10003384:	4059      	eors	r1, r3
10003386:	e000      	b.n	1000338a <__aeabi_dfcmple_guts>

10003388 <__wrap___aeabi_cdcmpeq>:
10003388:	b5ff      	push	{r0, r1, r2, r3, r4, r5, r6, r7, lr}

1000338a <__aeabi_dfcmple_guts>:
1000338a:	4f15      	ldr	r7, [pc, #84]	@ (100033e0 <__aeabi_dfcmple_guts+0x56>)
1000338c:	004c      	lsls	r4, r1, #1
1000338e:	0d64      	lsrs	r4, r4, #21
10003390:	d003      	beq.n	1000339a <__aeabi_dfcmple_guts+0x10>
10003392:	42bc      	cmp	r4, r7
10003394:	d104      	bne.n	100033a0 <__aeabi_dfcmple_guts+0x16>
10003396:	030c      	lsls	r4, r1, #12
10003398:	d814      	bhi.n	100033c4 <__aeabi_dfcmple_guts+0x3a>
1000339a:	2000      	movs	r0, #0
1000339c:	0d09      	lsrs	r1, r1, #20
1000339e:	0509      	lsls	r1, r1, #20
100033a0:	005c      	lsls	r4, r3, #1
100033a2:	0d64      	lsrs	r4, r4, #21
100033a4:	d003      	beq.n	100033ae <__aeabi_dfcmple_guts+0x24>
100033a6:	42bc      	cmp	r4, r7
100033a8:	d104      	bne.n	100033b4 <__aeabi_dfcmple_guts+0x2a>
100033aa:	031c      	lsls	r4, r3, #12
100033ac:	d80a      	bhi.n	100033c4 <__aeabi_dfcmple_guts+0x3a>
100033ae:	2200      	movs	r2, #0
100033b0:	0d1b      	lsrs	r3, r3, #20
100033b2:	051b      	lsls	r3, r3, #20
100033b4:	2601      	movs	r6, #1
100033b6:	404b      	eors	r3, r1
100033b8:	d409      	bmi.n	100033ce <__aeabi_dfcmple_guts+0x44>
100033ba:	404b      	eors	r3, r1
100033bc:	d503      	bpl.n	100033c6 <__aeabi_dfcmple_guts+0x3c>
100033be:	428b      	cmp	r3, r1
100033c0:	d100      	bne.n	100033c4 <__aeabi_dfcmple_guts+0x3a>
100033c2:	4282      	cmp	r2, r0
100033c4:	bdff      	pop	{r0, r1, r2, r3, r4, r5, r6, r7, pc}
100033c6:	4299      	cmp	r1, r3
100033c8:	d1fc      	bne.n	100033c4 <__aeabi_dfcmple_guts+0x3a>
100033ca:	4290      	cmp	r0, r2
100033cc:	bdff      	pop	{r0, r1, r2, r3, r4, r5, r6, r7, pc}
100033ce:	430b      	orrs	r3, r1
100033d0:	18db      	adds	r3, r3, r3
100033d2:	4303      	orrs	r3, r0
100033d4:	4313      	orrs	r3, r2
100033d6:	d0f5      	beq.n	100033c4 <__aeabi_dfcmple_guts+0x3a>
100033d8:	43c9      	mvns	r1, r1
100033da:	1849      	adds	r1, r1, r1
100033dc:	bdff      	pop	{r0, r1, r2, r3, r4, r5, r6, r7, pc}
100033de:	0000      	.short	0x0000
100033e0:	000007ff 	.word	0x000007ff

100033e4 <__wrap___aeabi_dcmplt>:
100033e4:	b500      	push	{lr}
100033e6:	f7ff ffcf 	bl	10003388 <__wrap___aeabi_cdcmpeq>
100033ea:	4180      	sbcs	r0, r0
100033ec:	bd00      	pop	{pc}
100033ee:	46c0      	nop			@ (mov r8, r8)

100033f0 <__wrap___aeabi_dcmpge>:
100033f0:	b500      	push	{lr}
100033f2:	f7ff ffc1 	bl	10003378 <__wrap___aeabi_cdrcmple>
100033f6:	d901      	bls.n	100033fc <__wrap___aeabi_dcmpge+0xc>
100033f8:	2000      	movs	r0, #0
100033fa:	bd00      	pop	{pc}
100033fc:	2001      	movs	r0, #1
100033fe:	bd00      	pop	{pc}

10003400 <__wrap___aeabi_dcmpgt>:
10003400:	b500      	push	{lr}
10003402:	f7ff ffb9 	bl	10003378 <__wrap___aeabi_cdrcmple>
10003406:	4180      	sbcs	r0, r0
10003408:	bd00      	pop	{pc}

1000340a <__wrap___aeabi_dcmpun>:
1000340a:	2001      	movs	r0, #1
1000340c:	0540      	lsls	r0, r0, #21
1000340e:	004a      	lsls	r2, r1, #1
10003410:	1812      	adds	r2, r2, r0
10003412:	d804      	bhi.n	1000341e <__wrap___aeabi_dcmpun+0x14>
10003414:	005a      	lsls	r2, r3, #1
10003416:	1812      	adds	r2, r2, r0
10003418:	d801      	bhi.n	1000341e <__wrap___aeabi_dcmpun+0x14>
1000341a:	2000      	movs	r0, #0
1000341c:	4770      	bx	lr
1000341e:	2001      	movs	r0, #1
10003420:	4770      	bx	lr
	...

10003424 <__wrap___aeabi_ui2d>:
10003424:	2100      	movs	r1, #0
10003426:	2800      	cmp	r0, #0
10003428:	d105      	bne.n	10003436 <__wrap___aeabi_i2d+0xa>
1000342a:	4770      	bx	lr

1000342c <__wrap___aeabi_i2d>:
1000342c:	17c1      	asrs	r1, r0, #31
1000342e:	4048      	eors	r0, r1
10003430:	1a40      	subs	r0, r0, r1
10003432:	d0fa      	beq.n	1000342a <__wrap___aeabi_ui2d+0x6>
10003434:	07c9      	lsls	r1, r1, #31
10003436:	b513      	push	{r0, r1, r4, lr}
10003438:	4b06      	ldr	r3, [pc, #24]	@ (10003454 <__wrap___aeabi_i2d+0x28>)
1000343a:	681b      	ldr	r3, [r3, #0]
1000343c:	4798      	blx	r3
1000343e:	bc0c      	pop	{r2, r3}
10003440:	1c44      	adds	r4, r0, #1
10003442:	40a2      	lsls	r2, r4
10003444:	0510      	lsls	r0, r2, #20
10003446:	0b12      	lsrs	r2, r2, #12
10003448:	4903      	ldr	r1, [pc, #12]	@ (10003458 <__wrap___aeabi_i2d+0x2c>)
1000344a:	1b09      	subs	r1, r1, r4
1000344c:	0509      	lsls	r1, r1, #20
1000344e:	4319      	orrs	r1, r3
10003450:	4311      	orrs	r1, r2
10003452:	bd10      	pop	{r4, pc}
10003454:	20000a64 	.word	0x20000a64
10003458:	0000041f 	.word	0x0000041f

1000345c <__wrap___aeabi_d2iz>:
1000345c:	b510      	push	{r4, lr}
1000345e:	004c      	lsls	r4, r1, #1
10003460:	0d62      	lsrs	r2, r4, #21
10003462:	2380      	movs	r3, #128	@ 0x80
10003464:	18d2      	adds	r2, r2, r3
10003466:	00db      	lsls	r3, r3, #3
10003468:	1ad2      	subs	r2, r2, r3
1000346a:	055b      	lsls	r3, r3, #21
1000346c:	2a7e      	cmp	r2, #126	@ 0x7e
1000346e:	dd10      	ble.n	10003492 <__wrap___aeabi_d2iz+0x36>
10003470:	3a9e      	subs	r2, #158	@ 0x9e
10003472:	da13      	bge.n	1000349c <__wrap___aeabi_d2iz+0x40>
10003474:	17cc      	asrs	r4, r1, #31
10003476:	0309      	lsls	r1, r1, #12
10003478:	0849      	lsrs	r1, r1, #1
1000347a:	4319      	orrs	r1, r3
1000347c:	4252      	negs	r2, r2
1000347e:	40d1      	lsrs	r1, r2
10003480:	0064      	lsls	r4, r4, #1
10003482:	3401      	adds	r4, #1
10003484:	3215      	adds	r2, #21
10003486:	2a20      	cmp	r2, #32
10003488:	da05      	bge.n	10003496 <__wrap___aeabi_d2iz+0x3a>
1000348a:	40d0      	lsrs	r0, r2
1000348c:	4308      	orrs	r0, r1
1000348e:	4360      	muls	r0, r4
10003490:	bd10      	pop	{r4, pc}
10003492:	2000      	movs	r0, #0
10003494:	bd10      	pop	{r4, pc}
10003496:	4608      	mov	r0, r1
10003498:	4360      	muls	r0, r4
1000349a:	bd10      	pop	{r4, pc}
1000349c:	0fc8      	lsrs	r0, r1, #31
1000349e:	18c0      	adds	r0, r0, r3
100034a0:	3801      	subs	r0, #1
100034a2:	bd10      	pop	{r4, pc}

100034a4 <__wrap___aeabi_d2uiz>:
100034a4:	b418      	push	{r3, r4}
100034a6:	4b04      	ldr	r3, [pc, #16]	@ (100034b8 <__wrap___aeabi_d2uiz+0x14>)
100034a8:	6a5b      	ldr	r3, [r3, #36]	@ 0x24
100034aa:	46fc      	mov	ip, pc
100034ac:	9301      	str	r3, [sp, #4]
100034ae:	bd08      	pop	{r3, pc}
100034b0:	3a05df24 	.word	0x3a05df24
100034b4:	00001000 	.word	0x00001000
100034b8:	200007f0 	.word	0x200007f0

100034bc <__aeabi_double_init>:
100034bc:	2313      	movs	r3, #19
100034be:	b570      	push	{r4, r5, r6, lr}
100034c0:	781d      	ldrb	r5, [r3, #0]
100034c2:	2d01      	cmp	r5, #1
100034c4:	d019      	beq.n	100034fa <__aeabi_double_init+0x3e>
100034c6:	dd14      	ble.n	100034f2 <__aeabi_double_init+0x36>
100034c8:	481f      	ldr	r0, [pc, #124]	@ (10003548 <__aeabi_double_init+0x8c>)
100034ca:	f7ff fb97 	bl	10002bfc <rom_data_lookup>
100034ce:	0006      	movs	r6, r0
100034d0:	481e      	ldr	r0, [pc, #120]	@ (1000354c <__aeabi_double_init+0x90>)
100034d2:	f7ff fb93 	bl	10002bfc <rom_data_lookup>
100034d6:	4c1e      	ldr	r4, [pc, #120]	@ (10003550 <__aeabi_double_init+0x94>)
100034d8:	2280      	movs	r2, #128	@ 0x80
100034da:	0031      	movs	r1, r6
100034dc:	0020      	movs	r0, r4
100034de:	f000 fb59 	bl	10003b94 <__wrap___aeabi_memcpy>
100034e2:	2d02      	cmp	r5, #2
100034e4:	d02d      	beq.n	10003542 <__aeabi_double_init+0x86>
100034e6:	481b      	ldr	r0, [pc, #108]	@ (10003554 <__aeabi_double_init+0x98>)
100034e8:	f7ff fb80 	bl	10002bec <rom_func_lookup>
100034ec:	4b1a      	ldr	r3, [pc, #104]	@ (10003558 <__aeabi_double_init+0x9c>)
100034ee:	6018      	str	r0, [r3, #0]
100034f0:	bd70      	pop	{r4, r5, r6, pc}
100034f2:	4b1a      	ldr	r3, [pc, #104]	@ (1000355c <__aeabi_double_init+0xa0>)
100034f4:	4c16      	ldr	r4, [pc, #88]	@ (10003550 <__aeabi_double_init+0x94>)
100034f6:	64a3      	str	r3, [r4, #72]	@ 0x48
100034f8:	e7f5      	b.n	100034e6 <__aeabi_double_init+0x2a>
100034fa:	4b18      	ldr	r3, [pc, #96]	@ (1000355c <__aeabi_double_init+0xa0>)
100034fc:	4c14      	ldr	r4, [pc, #80]	@ (10003550 <__aeabi_double_init+0x94>)
100034fe:	6023      	str	r3, [r4, #0]
10003500:	6063      	str	r3, [r4, #4]
10003502:	60a3      	str	r3, [r4, #8]
10003504:	60e3      	str	r3, [r4, #12]
10003506:	6123      	str	r3, [r4, #16]
10003508:	6163      	str	r3, [r4, #20]
1000350a:	61a3      	str	r3, [r4, #24]
1000350c:	61e3      	str	r3, [r4, #28]
1000350e:	6223      	str	r3, [r4, #32]
10003510:	6263      	str	r3, [r4, #36]	@ 0x24
10003512:	62a3      	str	r3, [r4, #40]	@ 0x28
10003514:	62e3      	str	r3, [r4, #44]	@ 0x2c
10003516:	6323      	str	r3, [r4, #48]	@ 0x30
10003518:	6363      	str	r3, [r4, #52]	@ 0x34
1000351a:	63a3      	str	r3, [r4, #56]	@ 0x38
1000351c:	63e3      	str	r3, [r4, #60]	@ 0x3c
1000351e:	6423      	str	r3, [r4, #64]	@ 0x40
10003520:	6463      	str	r3, [r4, #68]	@ 0x44
10003522:	64a3      	str	r3, [r4, #72]	@ 0x48
10003524:	64e3      	str	r3, [r4, #76]	@ 0x4c
10003526:	6523      	str	r3, [r4, #80]	@ 0x50
10003528:	6563      	str	r3, [r4, #84]	@ 0x54
1000352a:	65a3      	str	r3, [r4, #88]	@ 0x58
1000352c:	65e3      	str	r3, [r4, #92]	@ 0x5c
1000352e:	6623      	str	r3, [r4, #96]	@ 0x60
10003530:	6663      	str	r3, [r4, #100]	@ 0x64
10003532:	66a3      	str	r3, [r4, #104]	@ 0x68
10003534:	66e3      	str	r3, [r4, #108]	@ 0x6c
10003536:	6723      	str	r3, [r4, #112]	@ 0x70
10003538:	6763      	str	r3, [r4, #116]	@ 0x74
1000353a:	67a3      	str	r3, [r4, #120]	@ 0x78
1000353c:	67e3      	str	r3, [r4, #124]	@ 0x7c
1000353e:	64a3      	str	r3, [r4, #72]	@ 0x48
10003540:	e7d1      	b.n	100034e6 <__aeabi_double_init+0x2a>
10003542:	4b06      	ldr	r3, [pc, #24]	@ (1000355c <__aeabi_double_init+0xa0>)
10003544:	64a3      	str	r3, [r4, #72]	@ 0x48
10003546:	e7ce      	b.n	100034e6 <__aeabi_double_init+0x2a>
10003548:	00004453 	.word	0x00004453
1000354c:	00004653 	.word	0x00004653
10003550:	200007f0 	.word	0x200007f0
10003554:	0000334c 	.word	0x0000334c
10003558:	20000a64 	.word	0x20000a64
1000355c:	10003561 	.word	0x10003561

10003560 <double_table_shim_on_use_helper>:
10003560:	b507      	push	{r0, r1, r2, lr}
10003562:	4660      	mov	r0, ip
10003564:	8801      	ldrh	r1, [r0, #0]
10003566:	0a0a      	lsrs	r2, r1, #8
10003568:	3002      	adds	r0, #2
1000356a:	2adf      	cmp	r2, #223	@ 0xdf
1000356c:	d1fa      	bne.n	10003564 <double_table_shim_on_use_helper+0x4>
1000356e:	b2c9      	uxtb	r1, r1
10003570:	0882      	lsrs	r2, r0, #2
10003572:	d304      	bcc.n	1000357e <double_table_shim_on_use_helper+0x1e>
10003574:	8802      	ldrh	r2, [r0, #0]
10003576:	8840      	ldrh	r0, [r0, #2]
10003578:	0400      	lsls	r0, r0, #16
1000357a:	4310      	orrs	r0, r2
1000357c:	e000      	b.n	10003580 <double_table_shim_on_use_helper+0x20>
1000357e:	6800      	ldr	r0, [r0, #0]
10003580:	4a01      	ldr	r2, [pc, #4]	@ (10003588 <double_table_shim_on_use_helper+0x28>)
10003582:	5050      	str	r0, [r2, r1]
10003584:	9003      	str	r0, [sp, #12]
10003586:	bd07      	pop	{r0, r1, r2, pc}
10003588:	200007f0 	.word	0x200007f0

1000358c <drsub_shim>:
1000358c:	b40f      	push	{r0, r1, r2, r3}
1000358e:	bc03      	pop	{r0, r1}
10003590:	bc0c      	pop	{r2, r3}

10003592 <dsub_shim>:
10003592:	b5f0      	push	{r4, r5, r6, r7, lr}
10003594:	2401      	movs	r4, #1
10003596:	07e4      	lsls	r4, r4, #31
10003598:	4063      	eors	r3, r4
1000359a:	e000      	b.n	1000359e <da_entry>

1000359c <dadd_shim>:
1000359c:	b5f0      	push	{r4, r5, r6, r7, lr}

1000359e <da_entry>:
1000359e:	0d0c      	lsrs	r4, r1, #20
100035a0:	0fcf      	lsrs	r7, r1, #31
100035a2:	1e66      	subs	r6, r4, #1
100035a4:	0536      	lsls	r6, r6, #20
100035a6:	1b89      	subs	r1, r1, r6
100035a8:	0564      	lsls	r4, r4, #21
100035aa:	d303      	bcc.n	100035b4 <l8_1>
100035ac:	43c9      	mvns	r1, r1
100035ae:	4240      	negs	r0, r0
100035b0:	d300      	bcc.n	100035b4 <l8_1>
100035b2:	3101      	adds	r1, #1

100035b4 <l8_1>:
100035b4:	0d64      	lsrs	r4, r4, #21
100035b6:	d003      	beq.n	100035c0 <l8_2>
100035b8:	1c66      	adds	r6, r4, #1
100035ba:	0af6      	lsrs	r6, r6, #11
100035bc:	d007      	beq.n	100035ce <l8_3>
100035be:	1be4      	subs	r4, r4, r7

100035c0 <l8_2>:
100035c0:	2000      	movs	r0, #0
100035c2:	007f      	lsls	r7, r7, #1
100035c4:	1c79      	adds	r1, r7, #1
100035c6:	0789      	lsls	r1, r1, #30
100035c8:	1289      	asrs	r1, r1, #10
100035ca:	3c80      	subs	r4, #128	@ 0x80
100035cc:	0324      	lsls	r4, r4, #12

100035ce <l8_3>:
100035ce:	0d1d      	lsrs	r5, r3, #20
100035d0:	0fdf      	lsrs	r7, r3, #31
100035d2:	1e6e      	subs	r6, r5, #1
100035d4:	0536      	lsls	r6, r6, #20
100035d6:	1b9b      	subs	r3, r3, r6
100035d8:	056d      	lsls	r5, r5, #21
100035da:	d303      	bcc.n	100035e4 <l9_1>
100035dc:	43db      	mvns	r3, r3
100035de:	4252      	negs	r2, r2
100035e0:	d300      	bcc.n	100035e4 <l9_1>
100035e2:	3301      	adds	r3, #1

100035e4 <l9_1>:
100035e4:	0d6d      	lsrs	r5, r5, #21
100035e6:	d003      	beq.n	100035f0 <l9_2>
100035e8:	1c6e      	adds	r6, r5, #1
100035ea:	0af6      	lsrs	r6, r6, #11
100035ec:	d007      	beq.n	100035fe <l9_3>
100035ee:	1bed      	subs	r5, r5, r7

100035f0 <l9_2>:
100035f0:	2200      	movs	r2, #0
100035f2:	007f      	lsls	r7, r7, #1
100035f4:	1c7b      	adds	r3, r7, #1
100035f6:	079b      	lsls	r3, r3, #30
100035f8:	129b      	asrs	r3, r3, #10
100035fa:	3d80      	subs	r5, #128	@ 0x80
100035fc:	032d      	lsls	r5, r5, #12

100035fe <l9_3>:
100035fe:	1b2f      	subs	r7, r5, r4
10003600:	1b66      	subs	r6, r4, r5
10003602:	d458      	bmi.n	100036b6 <da_ygtx>
10003604:	46a4      	mov	ip, r4
10003606:	2e20      	cmp	r6, #32
10003608:	da46      	bge.n	10003698 <da_xrgty>
1000360a:	3720      	adds	r7, #32
1000360c:	0014      	movs	r4, r2
1000360e:	40bc      	lsls	r4, r7

10003610 <da_xgty0>:
10003610:	001d      	movs	r5, r3
10003612:	40bd      	lsls	r5, r7
10003614:	40f2      	lsrs	r2, r6
10003616:	4133      	asrs	r3, r6
10003618:	432a      	orrs	r2, r5

1000361a <da_add>:
1000361a:	1880      	adds	r0, r0, r2
1000361c:	4159      	adcs	r1, r3

1000361e <da_pack>:
1000361e:	0fcb      	lsrs	r3, r1, #31
10003620:	d005      	beq.n	1000362e <da_pack+0x10>
10003622:	43c9      	mvns	r1, r1
10003624:	43c0      	mvns	r0, r0
10003626:	2200      	movs	r2, #0
10003628:	4264      	negs	r4, r4
1000362a:	4150      	adcs	r0, r2
1000362c:	4151      	adcs	r1, r2
1000362e:	4662      	mov	r2, ip
10003630:	0d4d      	lsrs	r5, r1, #21
10003632:	d128      	bne.n	10003686 <da_0>
10003634:	0d0d      	lsrs	r5, r1, #20
10003636:	d107      	bne.n	10003648 <da_1>
10003638:	2800      	cmp	r0, #0
1000363a:	d01f      	beq.n	1000367c <da_5>

1000363c <da_2>:
1000363c:	1924      	adds	r4, r4, r4
1000363e:	4140      	adcs	r0, r0
10003640:	4149      	adcs	r1, r1
10003642:	3a01      	subs	r2, #1
10003644:	0d0d      	lsrs	r5, r1, #20
10003646:	d0f9      	beq.n	1000363c <da_2>

10003648 <da_1>:
10003648:	0064      	lsls	r4, r4, #1
1000364a:	d306      	bcc.n	1000365a <da_3>

1000364c <da_4>:
1000364c:	3001      	adds	r0, #1
1000364e:	d300      	bcc.n	10003652 <da_4+0x6>
10003650:	3101      	adds	r1, #1
10003652:	2c00      	cmp	r4, #0
10003654:	d101      	bne.n	1000365a <da_3>
10003656:	0840      	lsrs	r0, r0, #1
10003658:	0040      	lsls	r0, r0, #1

1000365a <da_3>:
1000365a:	3a01      	subs	r2, #1
1000365c:	d40b      	bmi.n	10003676 <da_6>
1000365e:	1c94      	adds	r4, r2, #2
10003660:	0ae4      	lsrs	r4, r4, #11
10003662:	d104      	bne.n	1000366e <da_7>
10003664:	0512      	lsls	r2, r2, #20
10003666:	4411      	add	r1, r2
10003668:	07db      	lsls	r3, r3, #31
1000366a:	4419      	add	r1, r3
1000366c:	bdf0      	pop	{r4, r5, r6, r7, pc}

1000366e <da_7>:
1000366e:	07d9      	lsls	r1, r3, #31
10003670:	4b20      	ldr	r3, [pc, #128]	@ (100036f4 <da_xmgty+0x4>)
10003672:	4319      	orrs	r1, r3
10003674:	e000      	b.n	10003678 <da_6+0x2>

10003676 <da_6>:
10003676:	07d9      	lsls	r1, r3, #31
10003678:	2000      	movs	r0, #0
1000367a:	bdf0      	pop	{r4, r5, r6, r7, pc}

1000367c <da_5>:
1000367c:	2900      	cmp	r1, #0
1000367e:	d1dd      	bne.n	1000363c <da_2>
10003680:	2c00      	cmp	r4, #0
10003682:	d1db      	bne.n	1000363c <da_2>
10003684:	bdf0      	pop	{r4, r5, r6, r7, pc}

10003686 <da_0>:
10003686:	3201      	adds	r2, #1
10003688:	07c6      	lsls	r6, r0, #31
1000368a:	0840      	lsrs	r0, r0, #1
1000368c:	07cd      	lsls	r5, r1, #31
1000368e:	4328      	orrs	r0, r5
10003690:	0849      	lsrs	r1, r1, #1
10003692:	2e00      	cmp	r6, #0
10003694:	d0e1      	beq.n	1000365a <da_3>
10003696:	e7d9      	b.n	1000364c <da_4>

10003698 <da_xrgty>:
10003698:	2e3c      	cmp	r6, #60	@ 0x3c
1000369a:	da29      	bge.n	100036f0 <da_xmgty>
1000369c:	3e20      	subs	r6, #32
1000369e:	3740      	adds	r7, #64	@ 0x40
100036a0:	0014      	movs	r4, r2
100036a2:	40bc      	lsls	r4, r7
100036a4:	d000      	beq.n	100036a8 <da_xrgty+0x10>
100036a6:	2401      	movs	r4, #1
100036a8:	40f2      	lsrs	r2, r6
100036aa:	4314      	orrs	r4, r2
100036ac:	001a      	movs	r2, r3
100036ae:	40bb      	lsls	r3, r7
100036b0:	431c      	orrs	r4, r3
100036b2:	17d3      	asrs	r3, r2, #31
100036b4:	e7ac      	b.n	10003610 <da_xgty0>

100036b6 <da_ygtx>:
100036b6:	46ac      	mov	ip, r5
100036b8:	2f20      	cmp	r7, #32
100036ba:	da08      	bge.n	100036ce <da_yrgtx>
100036bc:	3620      	adds	r6, #32
100036be:	0004      	movs	r4, r0
100036c0:	40b4      	lsls	r4, r6

100036c2 <da_ygtx0>:
100036c2:	000d      	movs	r5, r1
100036c4:	40b5      	lsls	r5, r6
100036c6:	40f8      	lsrs	r0, r7
100036c8:	4139      	asrs	r1, r7
100036ca:	4328      	orrs	r0, r5
100036cc:	e7a5      	b.n	1000361a <da_add>

100036ce <da_yrgtx>:
100036ce:	2f3c      	cmp	r7, #60	@ 0x3c
100036d0:	da0c      	bge.n	100036ec <da_ymgtx>
100036d2:	3f20      	subs	r7, #32
100036d4:	3640      	adds	r6, #64	@ 0x40
100036d6:	0004      	movs	r4, r0
100036d8:	40b4      	lsls	r4, r6
100036da:	d000      	beq.n	100036de <da_yrgtx+0x10>
100036dc:	2401      	movs	r4, #1
100036de:	40f8      	lsrs	r0, r7
100036e0:	4304      	orrs	r4, r0
100036e2:	0008      	movs	r0, r1
100036e4:	40b1      	lsls	r1, r6
100036e6:	430c      	orrs	r4, r1
100036e8:	17c1      	asrs	r1, r0, #31
100036ea:	e7ea      	b.n	100036c2 <da_ygtx0>

100036ec <da_ymgtx>:
100036ec:	0010      	movs	r0, r2
100036ee:	0019      	movs	r1, r3

100036f0 <da_xmgty>:
100036f0:	2400      	movs	r4, #0
100036f2:	e794      	b.n	1000361e <da_pack>
100036f4:	7ff00000 	.word	0x7ff00000

100036f8 <dmul_shim>:
100036f8:	b5f0      	push	{r4, r5, r6, r7, lr}
100036fa:	0d0c      	lsrs	r4, r1, #20
100036fc:	1e66      	subs	r6, r4, #1
100036fe:	0536      	lsls	r6, r6, #20
10003700:	1b89      	subs	r1, r1, r6
10003702:	0ae6      	lsrs	r6, r4, #11
10003704:	0564      	lsls	r4, r4, #21
10003706:	0d64      	lsrs	r4, r4, #21
10003708:	d002      	beq.n	10003710 <l12_1>
1000370a:	1c65      	adds	r5, r4, #1
1000370c:	0aed      	lsrs	r5, r5, #11
1000370e:	d004      	beq.n	1000371a <l12_2>

10003710 <l12_1>:
10003710:	2000      	movs	r0, #0
10003712:	2101      	movs	r1, #1
10003714:	0509      	lsls	r1, r1, #20
10003716:	3c80      	subs	r4, #128	@ 0x80
10003718:	0324      	lsls	r4, r4, #12

1000371a <l12_2>:
1000371a:	46a4      	mov	ip, r4
1000371c:	0d1c      	lsrs	r4, r3, #20
1000371e:	1e67      	subs	r7, r4, #1
10003720:	053f      	lsls	r7, r7, #20
10003722:	1bdb      	subs	r3, r3, r7
10003724:	0ae7      	lsrs	r7, r4, #11
10003726:	0564      	lsls	r4, r4, #21
10003728:	0d64      	lsrs	r4, r4, #21
1000372a:	d002      	beq.n	10003732 <l13_1>
1000372c:	1c65      	adds	r5, r4, #1
1000372e:	0aed      	lsrs	r5, r5, #11
10003730:	d004      	beq.n	1000373c <l13_2>

10003732 <l13_1>:
10003732:	2200      	movs	r2, #0
10003734:	2301      	movs	r3, #1
10003736:	051b      	lsls	r3, r3, #20
10003738:	3c80      	subs	r4, #128	@ 0x80
1000373a:	0324      	lsls	r4, r4, #12

1000373c <l13_2>:
1000373c:	4077      	eors	r7, r6
1000373e:	4464      	add	r4, ip
10003740:	b497      	push	{r0, r1, r2, r4, r7}
10003742:	b284      	uxth	r4, r0
10003744:	b296      	uxth	r6, r2
10003746:	4374      	muls	r4, r6
10003748:	0c07      	lsrs	r7, r0, #16
1000374a:	437e      	muls	r6, r7
1000374c:	0c15      	lsrs	r5, r2, #16
1000374e:	436f      	muls	r7, r5
10003750:	b280      	uxth	r0, r0
10003752:	4368      	muls	r0, r5
10003754:	1836      	adds	r6, r6, r0
10003756:	d302      	bcc.n	1000375e <l14_1>
10003758:	2001      	movs	r0, #1
1000375a:	0400      	lsls	r0, r0, #16
1000375c:	183f      	adds	r7, r7, r0

1000375e <l14_1>:
1000375e:	0430      	lsls	r0, r6, #16
10003760:	0c35      	lsrs	r5, r6, #16
10003762:	1900      	adds	r0, r0, r4
10003764:	417d      	adcs	r5, r7
10003766:	4684      	mov	ip, r0
10003768:	b288      	uxth	r0, r1
1000376a:	b29a      	uxth	r2, r3
1000376c:	4350      	muls	r0, r2
1000376e:	0c0c      	lsrs	r4, r1, #16
10003770:	4362      	muls	r2, r4
10003772:	0c1f      	lsrs	r7, r3, #16
10003774:	437c      	muls	r4, r7
10003776:	b28e      	uxth	r6, r1
10003778:	437e      	muls	r6, r7
1000377a:	1992      	adds	r2, r2, r6
1000377c:	d302      	bcc.n	10003784 <l15_1>
1000377e:	2601      	movs	r6, #1
10003780:	0436      	lsls	r6, r6, #16
10003782:	19a4      	adds	r4, r4, r6

10003784 <l15_1>:
10003784:	0416      	lsls	r6, r2, #16
10003786:	0c17      	lsrs	r7, r2, #16
10003788:	1836      	adds	r6, r6, r0
1000378a:	4167      	adcs	r7, r4
1000378c:	bc01      	pop	{r0}
1000378e:	b281      	uxth	r1, r0
10003790:	b29a      	uxth	r2, r3
10003792:	4351      	muls	r1, r2
10003794:	0c04      	lsrs	r4, r0, #16
10003796:	4362      	muls	r2, r4
10003798:	0c1b      	lsrs	r3, r3, #16
1000379a:	435c      	muls	r4, r3
1000379c:	b280      	uxth	r0, r0
1000379e:	4358      	muls	r0, r3
100037a0:	1812      	adds	r2, r2, r0
100037a2:	d302      	bcc.n	100037aa <l16_1>
100037a4:	2001      	movs	r0, #1
100037a6:	0400      	lsls	r0, r0, #16
100037a8:	1824      	adds	r4, r4, r0

100037aa <l16_1>:
100037aa:	0410      	lsls	r0, r2, #16
100037ac:	0c13      	lsrs	r3, r2, #16
100037ae:	1840      	adds	r0, r0, r1
100037b0:	4163      	adcs	r3, r4
100037b2:	182d      	adds	r5, r5, r0
100037b4:	415e      	adcs	r6, r3
100037b6:	2000      	movs	r0, #0
100037b8:	4147      	adcs	r7, r0
100037ba:	bc06      	pop	{r1, r2}
100037bc:	b288      	uxth	r0, r1
100037be:	b293      	uxth	r3, r2
100037c0:	4358      	muls	r0, r3
100037c2:	0c0c      	lsrs	r4, r1, #16
100037c4:	4363      	muls	r3, r4
100037c6:	0c12      	lsrs	r2, r2, #16
100037c8:	4354      	muls	r4, r2
100037ca:	b289      	uxth	r1, r1
100037cc:	4351      	muls	r1, r2
100037ce:	185b      	adds	r3, r3, r1
100037d0:	d302      	bcc.n	100037d8 <l17_1>
100037d2:	2101      	movs	r1, #1
100037d4:	0409      	lsls	r1, r1, #16
100037d6:	1864      	adds	r4, r4, r1

100037d8 <l17_1>:
100037d8:	0419      	lsls	r1, r3, #16
100037da:	0c1a      	lsrs	r2, r3, #16
100037dc:	1809      	adds	r1, r1, r0
100037de:	4162      	adcs	r2, r4
100037e0:	186d      	adds	r5, r5, r1
100037e2:	4156      	adcs	r6, r2
100037e4:	2000      	movs	r0, #0
100037e6:	4147      	adcs	r7, r0
100037e8:	bc18      	pop	{r3, r4}
100037ea:	02f9      	lsls	r1, r7, #11
100037ec:	0d72      	lsrs	r2, r6, #21
100037ee:	4311      	orrs	r1, r2
100037f0:	02f0      	lsls	r0, r6, #11
100037f2:	0d6a      	lsrs	r2, r5, #21
100037f4:	4310      	orrs	r0, r2
100037f6:	02ed      	lsls	r5, r5, #11
100037f8:	0d0a      	lsrs	r2, r1, #20
100037fa:	d103      	bne.n	10003804 <l17_1+0x2c>
100037fc:	196d      	adds	r5, r5, r5
100037fe:	4140      	adcs	r0, r0
10003800:	4149      	adcs	r1, r1
10003802:	3b01      	subs	r3, #1
10003804:	4e12      	ldr	r6, [pc, #72]	@ (10003850 <dm_1+0xa>)
10003806:	1b9b      	subs	r3, r3, r6
10003808:	0076      	lsls	r6, r6, #1
1000380a:	42b3      	cmp	r3, r6
1000380c:	d20e      	bcs.n	1000382c <dm_0>
1000380e:	006d      	lsls	r5, r5, #1
10003810:	d307      	bcc.n	10003822 <l17_1+0x4a>
10003812:	3001      	adds	r0, #1
10003814:	2600      	movs	r6, #0
10003816:	4171      	adcs	r1, r6
10003818:	4666      	mov	r6, ip
1000381a:	4335      	orrs	r5, r6
1000381c:	d101      	bne.n	10003822 <l17_1+0x4a>
1000381e:	0840      	lsrs	r0, r0, #1
10003820:	0040      	lsls	r0, r0, #1
10003822:	051b      	lsls	r3, r3, #20
10003824:	18c9      	adds	r1, r1, r3

10003826 <dm_2>:
10003826:	07e4      	lsls	r4, r4, #31
10003828:	4421      	add	r1, r4
1000382a:	bdf0      	pop	{r4, r5, r6, r7, pc}

1000382c <dm_0>:
1000382c:	da0b      	bge.n	10003846 <dm_1>
1000382e:	3301      	adds	r3, #1
10003830:	d106      	bne.n	10003840 <dm_0+0x14>
10003832:	3001      	adds	r0, #1
10003834:	d104      	bne.n	10003840 <dm_0+0x14>
10003836:	3101      	adds	r1, #1
10003838:	0d4f      	lsrs	r7, r1, #21
1000383a:	d001      	beq.n	10003840 <dm_0+0x14>
1000383c:	0849      	lsrs	r1, r1, #1
1000383e:	e7f2      	b.n	10003826 <dm_2>
10003840:	07e1      	lsls	r1, r4, #31
10003842:	2000      	movs	r0, #0
10003844:	bdf0      	pop	{r4, r5, r6, r7, pc}

10003846 <dm_1>:
10003846:	3601      	adds	r6, #1
10003848:	0531      	lsls	r1, r6, #20
1000384a:	2000      	movs	r0, #0
1000384c:	e7eb      	b.n	10003826 <dm_2>
1000384e:	0000      	.short	0x0000
10003850:	000003ff 	.word	0x000003ff

10003854 <ddiv_shim>:
10003854:	b5f0      	push	{r4, r5, r6, r7, lr}

10003856 <ddiv0>:
10003856:	0d1c      	lsrs	r4, r3, #20
10003858:	1e67      	subs	r7, r4, #1
1000385a:	053f      	lsls	r7, r7, #20
1000385c:	1bdb      	subs	r3, r3, r7
1000385e:	0ae7      	lsrs	r7, r4, #11
10003860:	0564      	lsls	r4, r4, #21
10003862:	0d64      	lsrs	r4, r4, #21
10003864:	d002      	beq.n	1000386c <l20_1>
10003866:	1c66      	adds	r6, r4, #1
10003868:	0af6      	lsrs	r6, r6, #11
1000386a:	d004      	beq.n	10003876 <l20_2>

1000386c <l20_1>:
1000386c:	2200      	movs	r2, #0
1000386e:	2301      	movs	r3, #1
10003870:	051b      	lsls	r3, r3, #20
10003872:	3c80      	subs	r4, #128	@ 0x80
10003874:	0324      	lsls	r4, r4, #12

10003876 <l20_2>:
10003876:	25d0      	movs	r5, #208	@ 0xd0
10003878:	062d      	lsls	r5, r5, #24
1000387a:	2600      	movs	r6, #0
1000387c:	43f6      	mvns	r6, r6
1000387e:	662e      	str	r6, [r5, #96]	@ 0x60
10003880:	091e      	lsrs	r6, r3, #4
10003882:	666e      	str	r6, [r5, #100]	@ 0x64
10003884:	0fce      	lsrs	r6, r1, #31
10003886:	19f6      	adds	r6, r6, r7
10003888:	46b4      	mov	ip, r6
1000388a:	0049      	lsls	r1, r1, #1
1000388c:	0d4f      	lsrs	r7, r1, #21
1000388e:	d002      	beq.n	10003896 <l20_2+0x20>
10003890:	1c7e      	adds	r6, r7, #1
10003892:	0af6      	lsrs	r6, r6, #11
10003894:	d003      	beq.n	1000389e <l20_2+0x28>
10003896:	2000      	movs	r0, #0
10003898:	2100      	movs	r1, #0
1000389a:	3f40      	subs	r7, #64	@ 0x40
1000389c:	033f      	lsls	r7, r7, #12
1000389e:	1b3e      	subs	r6, r7, r4
100038a0:	00b6      	lsls	r6, r6, #2
100038a2:	44b4      	add	ip, r6
100038a4:	3f01      	subs	r7, #1
100038a6:	057f      	lsls	r7, r7, #21
100038a8:	1bc9      	subs	r1, r1, r7
100038aa:	0849      	lsrs	r1, r1, #1
100038ac:	6f2e      	ldr	r6, [r5, #112]	@ 0x70
100038ae:	3601      	adds	r6, #1
100038b0:	0876      	lsrs	r6, r6, #1
100038b2:	029c      	lsls	r4, r3, #10
100038b4:	0d95      	lsrs	r5, r2, #22
100038b6:	4325      	orrs	r5, r4
100038b8:	4375      	muls	r5, r6
100038ba:	13ed      	asrs	r5, r5, #15
100038bc:	4375      	muls	r5, r6
100038be:	13ad      	asrs	r5, r5, #14
100038c0:	3501      	adds	r5, #1
100038c2:	106d      	asrs	r5, r5, #1
100038c4:	03f6      	lsls	r6, r6, #15
100038c6:	1b76      	subs	r6, r6, r5
100038c8:	b40c      	push	{r2, r3}
100038ca:	02cc      	lsls	r4, r1, #11
100038cc:	0d45      	lsrs	r5, r0, #21
100038ce:	432c      	orrs	r4, r5
100038d0:	b2a2      	uxth	r2, r4
100038d2:	b2b3      	uxth	r3, r6
100038d4:	435a      	muls	r2, r3
100038d6:	0c27      	lsrs	r7, r4, #16
100038d8:	437b      	muls	r3, r7
100038da:	0c35      	lsrs	r5, r6, #16
100038dc:	436f      	muls	r7, r5
100038de:	b2a4      	uxth	r4, r4
100038e0:	436c      	muls	r4, r5
100038e2:	191b      	adds	r3, r3, r4
100038e4:	d302      	bcc.n	100038ec <l21_1>
100038e6:	2401      	movs	r4, #1
100038e8:	0424      	lsls	r4, r4, #16
100038ea:	193f      	adds	r7, r7, r4

100038ec <l21_1>:
100038ec:	041c      	lsls	r4, r3, #16
100038ee:	0c1d      	lsrs	r5, r3, #16
100038f0:	18a4      	adds	r4, r4, r2
100038f2:	417d      	adcs	r5, r7
100038f4:	1924      	adds	r4, r4, r4
100038f6:	416d      	adcs	r5, r5
100038f8:	9a00      	ldr	r2, [sp, #0]
100038fa:	b291      	uxth	r1, r2
100038fc:	b2ac      	uxth	r4, r5
100038fe:	4361      	muls	r1, r4
10003900:	0c17      	lsrs	r7, r2, #16
10003902:	437c      	muls	r4, r7
10003904:	0c2b      	lsrs	r3, r5, #16
10003906:	435f      	muls	r7, r3
10003908:	b292      	uxth	r2, r2
1000390a:	435a      	muls	r2, r3
1000390c:	18a4      	adds	r4, r4, r2
1000390e:	d302      	bcc.n	10003916 <l22_1>
10003910:	2201      	movs	r2, #1
10003912:	0412      	lsls	r2, r2, #16
10003914:	18bf      	adds	r7, r7, r2

10003916 <l22_1>:
10003916:	0422      	lsls	r2, r4, #16
10003918:	0c23      	lsrs	r3, r4, #16
1000391a:	1852      	adds	r2, r2, r1
1000391c:	417b      	adcs	r3, r7
1000391e:	9c01      	ldr	r4, [sp, #4]
10003920:	436c      	muls	r4, r5
10003922:	191b      	adds	r3, r3, r4
10003924:	0e52      	lsrs	r2, r2, #25
10003926:	01d9      	lsls	r1, r3, #7
10003928:	430a      	orrs	r2, r1
1000392a:	0144      	lsls	r4, r0, #5
1000392c:	1aa0      	subs	r0, r4, r2
1000392e:	b281      	uxth	r1, r0
10003930:	b2b2      	uxth	r2, r6
10003932:	4351      	muls	r1, r2
10003934:	1403      	asrs	r3, r0, #16
10003936:	435a      	muls	r2, r3
10003938:	0c36      	lsrs	r6, r6, #16
1000393a:	4373      	muls	r3, r6
1000393c:	b287      	uxth	r7, r0
1000393e:	4377      	muls	r7, r6
10003940:	17d6      	asrs	r6, r2, #31
10003942:	19d2      	adds	r2, r2, r7
10003944:	2700      	movs	r7, #0
10003946:	417e      	adcs	r6, r7
10003948:	0436      	lsls	r6, r6, #16
1000394a:	199b      	adds	r3, r3, r6
1000394c:	0417      	lsls	r7, r2, #16
1000394e:	0c16      	lsrs	r6, r2, #16
10003950:	187f      	adds	r7, r7, r1
10003952:	415e      	adcs	r6, r3
10003954:	1673      	asrs	r3, r6, #25
10003956:	18ed      	adds	r5, r5, r3
10003958:	01f3      	lsls	r3, r6, #7
1000395a:	2600      	movs	r6, #0
1000395c:	3380      	adds	r3, #128	@ 0x80
1000395e:	4175      	adcs	r5, r6
10003960:	0fa9      	lsrs	r1, r5, #30
10003962:	d106      	bne.n	10003972 <dd_0>
10003964:	0064      	lsls	r4, r4, #1
10003966:	0a69      	lsrs	r1, r5, #9
10003968:	05e8      	lsls	r0, r5, #23
1000396a:	0a5b      	lsrs	r3, r3, #9
1000396c:	4318      	orrs	r0, r3
1000396e:	d209      	bcs.n	10003984 <dd_1>
10003970:	e02f      	b.n	100039d2 <dd_2>

10003972 <dd_0>:
10003972:	2204      	movs	r2, #4
10003974:	4494      	add	ip, r2
10003976:	3380      	adds	r3, #128	@ 0x80
10003978:	4175      	adcs	r5, r6
1000397a:	0aa9      	lsrs	r1, r5, #10
1000397c:	05a8      	lsls	r0, r5, #22
1000397e:	0a9b      	lsrs	r3, r3, #10
10003980:	4318      	orrs	r0, r3
10003982:	d326      	bcc.n	100039d2 <dd_2>

10003984 <dd_1>:
10003984:	4140      	adcs	r0, r0
10003986:	4149      	adcs	r1, r1
10003988:	0424      	lsls	r4, r4, #16
1000398a:	9a00      	ldr	r2, [sp, #0]
1000398c:	9b01      	ldr	r3, [sp, #4]
1000398e:	000d      	movs	r5, r1
10003990:	4355      	muls	r5, r2
10003992:	1b64      	subs	r4, r4, r5
10003994:	4343      	muls	r3, r0
10003996:	1ae4      	subs	r4, r4, r3
10003998:	b295      	uxth	r5, r2
1000399a:	b286      	uxth	r6, r0
1000399c:	4375      	muls	r5, r6
1000399e:	0c17      	lsrs	r7, r2, #16
100039a0:	437e      	muls	r6, r7
100039a2:	0c03      	lsrs	r3, r0, #16
100039a4:	435f      	muls	r7, r3
100039a6:	b292      	uxth	r2, r2
100039a8:	435a      	muls	r2, r3
100039aa:	18b6      	adds	r6, r6, r2
100039ac:	d302      	bcc.n	100039b4 <l24_1>
100039ae:	2201      	movs	r2, #1
100039b0:	0412      	lsls	r2, r2, #16
100039b2:	18bf      	adds	r7, r7, r2

100039b4 <l24_1>:
100039b4:	0432      	lsls	r2, r6, #16
100039b6:	0c33      	lsrs	r3, r6, #16
100039b8:	1952      	adds	r2, r2, r5
100039ba:	417b      	adcs	r3, r7
100039bc:	4252      	negs	r2, r2
100039be:	419c      	sbcs	r4, r3
100039c0:	2c00      	cmp	r4, #0
100039c2:	d402      	bmi.n	100039ca <l24_1+0x16>
100039c4:	2200      	movs	r2, #0
100039c6:	3001      	adds	r0, #1
100039c8:	4151      	adcs	r1, r2
100039ca:	0840      	lsrs	r0, r0, #1
100039cc:	07ca      	lsls	r2, r1, #31
100039ce:	4310      	orrs	r0, r2
100039d0:	0849      	lsrs	r1, r1, #1

100039d2 <dd_2>:
100039d2:	b002      	add	sp, #8
100039d4:	4662      	mov	r2, ip
100039d6:	07d7      	lsls	r7, r2, #31
100039d8:	1092      	asrs	r2, r2, #2
100039da:	4b08      	ldr	r3, [pc, #32]	@ (100039fc <dd_4+0x6>)
100039dc:	18d2      	adds	r2, r2, r3
100039de:	4b08      	ldr	r3, [pc, #32]	@ (10003a00 <dd_4+0xa>)
100039e0:	429a      	cmp	r2, r3
100039e2:	d203      	bcs.n	100039ec <dd_3>
100039e4:	0512      	lsls	r2, r2, #20
100039e6:	1889      	adds	r1, r1, r2

100039e8 <dd_5>:
100039e8:	19c9      	adds	r1, r1, r7
100039ea:	bdf0      	pop	{r4, r5, r6, r7, pc}

100039ec <dd_3>:
100039ec:	2000      	movs	r0, #0
100039ee:	2a00      	cmp	r2, #0
100039f0:	dc01      	bgt.n	100039f6 <dd_4>
100039f2:	0039      	movs	r1, r7
100039f4:	bdf0      	pop	{r4, r5, r6, r7, pc}

100039f6 <dd_4>:
100039f6:	3301      	adds	r3, #1
100039f8:	0519      	lsls	r1, r3, #20
100039fa:	e7f5      	b.n	100039e8 <dd_5>
100039fc:	000003fd 	.word	0x000003fd
10003a00:	000007fe 	.word	0x000007fe

10003a04 <double2uint_shim>:
10003a04:	2200      	movs	r2, #0

10003a06 <double2ufix_shim>:
10003a06:	b500      	push	{lr}
10003a08:	3220      	adds	r2, #32
10003a0a:	f000 f804 	bl	10003a16 <double2ufix64_shim>
10003a0e:	0008      	movs	r0, r1
10003a10:	bd00      	pop	{pc}
	...

10003a14 <double2uint64_shim>:
10003a14:	2200      	movs	r2, #0

10003a16 <double2ufix64_shim>:
10003a16:	150b      	asrs	r3, r1, #20
10003a18:	d40a      	bmi.n	10003a30 <ret_dzero>

10003a1a <d2fix>:
10003a1a:	b510      	push	{r4, lr}
10003a1c:	4694      	mov	ip, r2
10003a1e:	f000 f831 	bl	10003a84 <dunpacks>
10003a22:	1414      	asrs	r4, r2, #16
10003a24:	3401      	adds	r4, #1
10003a26:	da00      	bge.n	10003a2a <d2fix+0x10>
10003a28:	2100      	movs	r1, #0
10003a2a:	17cb      	asrs	r3, r1, #31
10003a2c:	4c14      	ldr	r4, [pc, #80]	@ (10003a80 <d2fix_a+0x4a>)
10003a2e:	4720      	bx	r4

10003a30 <ret_dzero>:
10003a30:	2000      	movs	r0, #0
10003a32:	2100      	movs	r1, #0
10003a34:	4770      	bx	lr

10003a36 <d2fix_a>:
10003a36:	4462      	add	r2, ip
10003a38:	3a34      	subs	r2, #52	@ 0x34
10003a3a:	d40c      	bmi.n	10003a56 <d2fix_a+0x20>
10003a3c:	2a0c      	cmp	r2, #12
10003a3e:	da07      	bge.n	10003a50 <d2fix_a+0x1a>
10003a40:	0004      	movs	r4, r0
10003a42:	4091      	lsls	r1, r2
10003a44:	4090      	lsls	r0, r2
10003a46:	4252      	negs	r2, r2
10003a48:	3220      	adds	r2, #32
10003a4a:	40d4      	lsrs	r4, r2
10003a4c:	4321      	orrs	r1, r4
10003a4e:	bd10      	pop	{r4, pc}
10003a50:	43d8      	mvns	r0, r3
10003a52:	43d9      	mvns	r1, r3
10003a54:	bd10      	pop	{r4, pc}
10003a56:	3220      	adds	r2, #32
10003a58:	d407      	bmi.n	10003a6a <d2fix_a+0x34>
10003a5a:	460c      	mov	r4, r1
10003a5c:	4094      	lsls	r4, r2
10003a5e:	4252      	negs	r2, r2
10003a60:	3220      	adds	r2, #32
10003a62:	4111      	asrs	r1, r2
10003a64:	40d0      	lsrs	r0, r2
10003a66:	4320      	orrs	r0, r4
10003a68:	bd10      	pop	{r4, pc}
10003a6a:	0008      	movs	r0, r1
10003a6c:	17c9      	asrs	r1, r1, #31
10003a6e:	3220      	adds	r2, #32
10003a70:	d403      	bmi.n	10003a7a <d2fix_a+0x44>
10003a72:	4252      	negs	r2, r2
10003a74:	3220      	adds	r2, #32
10003a76:	4110      	asrs	r0, r2
10003a78:	bd10      	pop	{r4, pc}
10003a7a:	0018      	movs	r0, r3
10003a7c:	0019      	movs	r1, r3
10003a7e:	bd10      	pop	{r4, pc}
10003a80:	10003a37 	.word	0x10003a37

10003a84 <dunpacks>:
10003a84:	0d0a      	lsrs	r2, r1, #20
10003a86:	0fcc      	lsrs	r4, r1, #31
10003a88:	1e53      	subs	r3, r2, #1
10003a8a:	051b      	lsls	r3, r3, #20
10003a8c:	1ac9      	subs	r1, r1, r3
10003a8e:	0552      	lsls	r2, r2, #21
10003a90:	d303      	bcc.n	10003a9a <l60_1>
10003a92:	43c9      	mvns	r1, r1
10003a94:	4240      	negs	r0, r0
10003a96:	d300      	bcc.n	10003a9a <l60_1>
10003a98:	3101      	adds	r1, #1

10003a9a <l60_1>:
10003a9a:	0d52      	lsrs	r2, r2, #21
10003a9c:	d003      	beq.n	10003aa6 <l60_2>
10003a9e:	1c53      	adds	r3, r2, #1
10003aa0:	0adb      	lsrs	r3, r3, #11
10003aa2:	d007      	beq.n	10003ab4 <l60_3>
10003aa4:	1b12      	subs	r2, r2, r4

10003aa6 <l60_2>:
10003aa6:	2000      	movs	r0, #0
10003aa8:	0064      	lsls	r4, r4, #1
10003aaa:	1c61      	adds	r1, r4, #1
10003aac:	0789      	lsls	r1, r1, #30
10003aae:	1289      	asrs	r1, r1, #10
10003ab0:	3a80      	subs	r2, #128	@ 0x80
10003ab2:	0312      	lsls	r2, r2, #12

10003ab4 <l60_3>:
10003ab4:	4b01      	ldr	r3, [pc, #4]	@ (10003abc <l60_3+0x8>)
10003ab6:	1ad2      	subs	r2, r2, r3
10003ab8:	4770      	bx	lr
10003aba:	0000      	.short	0x0000
10003abc:	000003ff 	.word	0x000003ff

10003ac0 <__wrap___aeabi_lmul>:
10003ac0:	4351      	muls	r1, r2
10003ac2:	4343      	muls	r3, r0
10003ac4:	18c9      	adds	r1, r1, r3
10003ac6:	468c      	mov	ip, r1
10003ac8:	0c11      	lsrs	r1, r2, #16
10003aca:	b283      	uxth	r3, r0
10003acc:	434b      	muls	r3, r1
10003ace:	b410      	push	{r4}
10003ad0:	0c04      	lsrs	r4, r0, #16
10003ad2:	4361      	muls	r1, r4
10003ad4:	b292      	uxth	r2, r2
10003ad6:	b280      	uxth	r0, r0
10003ad8:	4350      	muls	r0, r2
10003ada:	4362      	muls	r2, r4
10003adc:	041c      	lsls	r4, r3, #16
10003ade:	0c1b      	lsrs	r3, r3, #16
10003ae0:	1900      	adds	r0, r0, r4
10003ae2:	bc10      	pop	{r4}
10003ae4:	4159      	adcs	r1, r3
10003ae6:	0413      	lsls	r3, r2, #16
10003ae8:	0c12      	lsrs	r2, r2, #16
10003aea:	18c0      	adds	r0, r0, r3
10003aec:	4151      	adcs	r1, r2
10003aee:	4461      	add	r1, ip
10003af0:	4770      	bx	lr
	...

10003af4 <__aeabi_float_init>:
10003af4:	2313      	movs	r3, #19
10003af6:	b510      	push	{r4, lr}
10003af8:	4812      	ldr	r0, [pc, #72]	@ (10003b44 <__aeabi_float_init+0x50>)
10003afa:	781c      	ldrb	r4, [r3, #0]
10003afc:	f7ff f87e 	bl	10002bfc <rom_data_lookup>
10003b00:	0001      	movs	r1, r0
10003b02:	2c01      	cmp	r4, #1
10003b04:	d00a      	beq.n	10003b1c <__aeabi_float_init+0x28>
10003b06:	dd03      	ble.n	10003b10 <__aeabi_float_init+0x1c>
10003b08:	2280      	movs	r2, #128	@ 0x80
10003b0a:	480f      	ldr	r0, [pc, #60]	@ (10003b48 <__aeabi_float_init+0x54>)
10003b0c:	f000 f842 	bl	10003b94 <__wrap___aeabi_memcpy>
10003b10:	480e      	ldr	r0, [pc, #56]	@ (10003b4c <__aeabi_float_init+0x58>)
10003b12:	f7ff f86b 	bl	10002bec <rom_func_lookup>
10003b16:	4b0e      	ldr	r3, [pc, #56]	@ (10003b50 <__aeabi_float_init+0x5c>)
10003b18:	6018      	str	r0, [r3, #0]
10003b1a:	bd10      	pop	{r4, pc}
10003b1c:	4c0a      	ldr	r4, [pc, #40]	@ (10003b48 <__aeabi_float_init+0x54>)
10003b1e:	2254      	movs	r2, #84	@ 0x54
10003b20:	0020      	movs	r0, r4
10003b22:	f000 f837 	bl	10003b94 <__wrap___aeabi_memcpy>
10003b26:	4b0b      	ldr	r3, [pc, #44]	@ (10003b54 <__aeabi_float_init+0x60>)
10003b28:	6563      	str	r3, [r4, #84]	@ 0x54
10003b2a:	65a3      	str	r3, [r4, #88]	@ 0x58
10003b2c:	65e3      	str	r3, [r4, #92]	@ 0x5c
10003b2e:	6623      	str	r3, [r4, #96]	@ 0x60
10003b30:	6663      	str	r3, [r4, #100]	@ 0x64
10003b32:	66a3      	str	r3, [r4, #104]	@ 0x68
10003b34:	66e3      	str	r3, [r4, #108]	@ 0x6c
10003b36:	6723      	str	r3, [r4, #112]	@ 0x70
10003b38:	6763      	str	r3, [r4, #116]	@ 0x74
10003b3a:	67a3      	str	r3, [r4, #120]	@ 0x78
10003b3c:	67e3      	str	r3, [r4, #124]	@ 0x7c
10003b3e:	6223      	str	r3, [r4, #32]
10003b40:	61e3      	str	r3, [r4, #28]
10003b42:	e7e5      	b.n	10003b10 <__aeabi_float_init+0x1c>
10003b44:	00004653 	.word	0x00004653
10003b48:	200008f0 	.word	0x200008f0
10003b4c:	0000334c 	.word	0x0000334c
10003b50:	20000a64 	.word	0x20000a64
10003b54:	10003b59 	.word	0x10003b59

10003b58 <float_table_shim_on_use_helper>:
10003b58:	b507      	push	{r0, r1, r2, lr}
10003b5a:	4660      	mov	r0, ip
10003b5c:	8801      	ldrh	r1, [r0, #0]
10003b5e:	0a0a      	lsrs	r2, r1, #8
10003b60:	3002      	adds	r0, #2
10003b62:	2adf      	cmp	r2, #223	@ 0xdf
10003b64:	d1fa      	bne.n	10003b5c <float_table_shim_on_use_helper+0x4>
10003b66:	b2c9      	uxtb	r1, r1
10003b68:	0882      	lsrs	r2, r0, #2
10003b6a:	d304      	bcc.n	10003b76 <float_table_shim_on_use_helper+0x1e>
10003b6c:	8802      	ldrh	r2, [r0, #0]
10003b6e:	8840      	ldrh	r0, [r0, #2]
10003b70:	0400      	lsls	r0, r0, #16
10003b72:	4310      	orrs	r0, r2
10003b74:	e000      	b.n	10003b78 <float_table_shim_on_use_helper+0x20>
10003b76:	6800      	ldr	r0, [r0, #0]
10003b78:	4a01      	ldr	r2, [pc, #4]	@ (10003b80 <float_table_shim_on_use_helper+0x28>)
10003b7a:	5050      	str	r0, [r2, r1]
10003b7c:	9003      	str	r0, [sp, #12]
10003b7e:	bd07      	pop	{r0, r1, r2, pc}
10003b80:	200008f0 	.word	0x200008f0

10003b84 <__aeabi_mem_init>:
10003b84:	4801      	ldr	r0, [pc, #4]	@ (10003b8c <__aeabi_mem_init+0x8>)
10003b86:	2104      	movs	r1, #4
10003b88:	4b01      	ldr	r3, [pc, #4]	@ (10003b90 <__aeabi_mem_init+0xc>)
10003b8a:	4718      	bx	r3
10003b8c:	20000210 	.word	0x20000210
10003b90:	10002c0d 	.word	0x10002c0d

10003b94 <__wrap___aeabi_memcpy>:
10003b94:	4b01      	ldr	r3, [pc, #4]	@ (10003b9c <__wrap___aeabi_memcpy+0x8>)
10003b96:	685b      	ldr	r3, [r3, #4]
10003b98:	4718      	bx	r3
10003b9a:	0000      	.short	0x0000
10003b9c:	20000210 	.word	0x20000210

10003ba0 <_out_buffer>:
10003ba0:	429a      	cmp	r2, r3
10003ba2:	d200      	bcs.n	10003ba6 <_out_buffer+0x6>
10003ba4:	5488      	strb	r0, [r1, r2]
10003ba6:	4770      	bx	lr

10003ba8 <_out_null>:
10003ba8:	4770      	bx	lr
10003baa:	46c0      	nop			@ (mov r8, r8)

10003bac <_out_rev>:
10003bac:	b5f8      	push	{r3, r4, r5, r6, r7, lr}
10003bae:	4657      	mov	r7, sl
10003bb0:	4645      	mov	r5, r8
10003bb2:	46de      	mov	lr, fp
10003bb4:	464e      	mov	r6, r9
10003bb6:	b5e0      	push	{r5, r6, r7, lr}
10003bb8:	4698      	mov	r8, r3
10003bba:	9b0a      	ldr	r3, [sp, #40]	@ 0x28
10003bbc:	0006      	movs	r6, r0
10003bbe:	469a      	mov	sl, r3
10003bc0:	9b0d      	ldr	r3, [sp, #52]	@ 0x34
10003bc2:	000f      	movs	r7, r1
10003bc4:	4693      	mov	fp, r2
10003bc6:	0015      	movs	r5, r2
10003bc8:	079b      	lsls	r3, r3, #30
10003bca:	d110      	bne.n	10003bee <_out_rev+0x42>
10003bcc:	9b0b      	ldr	r3, [sp, #44]	@ 0x2c
10003bce:	9a0c      	ldr	r2, [sp, #48]	@ 0x30
10003bd0:	4293      	cmp	r3, r2
10003bd2:	d20c      	bcs.n	10003bee <_out_rev+0x42>
10003bd4:	0013      	movs	r3, r2
10003bd6:	465c      	mov	r4, fp
10003bd8:	9a0b      	ldr	r2, [sp, #44]	@ 0x2c
10003bda:	1a9d      	subs	r5, r3, r2
10003bdc:	445d      	add	r5, fp
10003bde:	0022      	movs	r2, r4
10003be0:	4643      	mov	r3, r8
10003be2:	3401      	adds	r4, #1
10003be4:	0039      	movs	r1, r7
10003be6:	2020      	movs	r0, #32
10003be8:	47b0      	blx	r6
10003bea:	42a5      	cmp	r5, r4
10003bec:	d1f7      	bne.n	10003bde <_out_rev+0x32>
10003bee:	9c0b      	ldr	r4, [sp, #44]	@ 0x2c
10003bf0:	1963      	adds	r3, r4, r5
10003bf2:	2c00      	cmp	r4, #0
10003bf4:	d009      	beq.n	10003c0a <_out_rev+0x5e>
10003bf6:	001d      	movs	r5, r3
10003bf8:	4653      	mov	r3, sl
10003bfa:	1b2a      	subs	r2, r5, r4
10003bfc:	3c01      	subs	r4, #1
10003bfe:	5d18      	ldrb	r0, [r3, r4]
10003c00:	0039      	movs	r1, r7
10003c02:	4643      	mov	r3, r8
10003c04:	47b0      	blx	r6
10003c06:	2c00      	cmp	r4, #0
10003c08:	d1f6      	bne.n	10003bf8 <_out_rev+0x4c>
10003c0a:	9b0d      	ldr	r3, [sp, #52]	@ 0x34
10003c0c:	079b      	lsls	r3, r3, #30
10003c0e:	d50e      	bpl.n	10003c2e <_out_rev+0x82>
10003c10:	465b      	mov	r3, fp
10003c12:	1aec      	subs	r4, r5, r3
10003c14:	9b0c      	ldr	r3, [sp, #48]	@ 0x30
10003c16:	42a3      	cmp	r3, r4
10003c18:	d909      	bls.n	10003c2e <_out_rev+0x82>
10003c1a:	4699      	mov	r9, r3
10003c1c:	002a      	movs	r2, r5
10003c1e:	4643      	mov	r3, r8
10003c20:	0039      	movs	r1, r7
10003c22:	2020      	movs	r0, #32
10003c24:	3401      	adds	r4, #1
10003c26:	47b0      	blx	r6
10003c28:	3501      	adds	r5, #1
10003c2a:	45a1      	cmp	r9, r4
10003c2c:	d8f6      	bhi.n	10003c1c <_out_rev+0x70>
10003c2e:	0028      	movs	r0, r5
10003c30:	bcf0      	pop	{r4, r5, r6, r7}
10003c32:	46bb      	mov	fp, r7
10003c34:	46b2      	mov	sl, r6
10003c36:	46a9      	mov	r9, r5
10003c38:	46a0      	mov	r8, r4
10003c3a:	bdf8      	pop	{r3, r4, r5, r6, r7, pc}

10003c3c <_ntoa_format>:
10003c3c:	b5f0      	push	{r4, r5, r6, r7, lr}
10003c3e:	464f      	mov	r7, r9
10003c40:	4646      	mov	r6, r8
10003c42:	46d6      	mov	lr, sl
10003c44:	b5c0      	push	{r6, r7, lr}
10003c46:	b084      	sub	sp, #16
10003c48:	4698      	mov	r8, r3
10003c4a:	ab0e      	add	r3, sp, #56	@ 0x38
10003c4c:	781b      	ldrb	r3, [r3, #0]
10003c4e:	4694      	mov	ip, r2
10003c50:	4699      	mov	r9, r3
10003c52:	9b12      	ldr	r3, [sp, #72]	@ 0x48
10003c54:	9c0d      	ldr	r4, [sp, #52]	@ 0x34
10003c56:	9f10      	ldr	r7, [sp, #64]	@ 0x40
10003c58:	9e11      	ldr	r6, [sp, #68]	@ 0x44
10003c5a:	079a      	lsls	r2, r3, #30
10003c5c:	d424      	bmi.n	10003ca8 <_ntoa_format+0x6c>
10003c5e:	2e00      	cmp	r6, #0
10003c60:	d16a      	bne.n	10003d38 <_ntoa_format+0xfc>
10003c62:	42bc      	cmp	r4, r7
10003c64:	d220      	bcs.n	10003ca8 <_ntoa_format+0x6c>
10003c66:	2201      	movs	r2, #1
10003c68:	401a      	ands	r2, r3
10003c6a:	4692      	mov	sl, r2
10003c6c:	2c20      	cmp	r4, #32
10003c6e:	d100      	bne.n	10003c72 <_ntoa_format+0x36>
10003c70:	e0cb      	b.n	10003e0a <_ntoa_format+0x1ce>
10003c72:	9a0c      	ldr	r2, [sp, #48]	@ 0x30
10003c74:	1e55      	subs	r5, r2, #1
10003c76:	2230      	movs	r2, #48	@ 0x30
10003c78:	e001      	b.n	10003c7e <_ntoa_format+0x42>
10003c7a:	2c20      	cmp	r4, #32
10003c7c:	d030      	beq.n	10003ce0 <_ntoa_format+0xa4>
10003c7e:	3401      	adds	r4, #1
10003c80:	552a      	strb	r2, [r5, r4]
10003c82:	42a7      	cmp	r7, r4
10003c84:	d8f9      	bhi.n	10003c7a <_ntoa_format+0x3e>
10003c86:	4652      	mov	r2, sl
10003c88:	2a00      	cmp	r2, #0
10003c8a:	d00d      	beq.n	10003ca8 <_ntoa_format+0x6c>
10003c8c:	42b4      	cmp	r4, r6
10003c8e:	d20b      	bcs.n	10003ca8 <_ntoa_format+0x6c>
10003c90:	9a0c      	ldr	r2, [sp, #48]	@ 0x30
10003c92:	1e55      	subs	r5, r2, #1
10003c94:	2230      	movs	r2, #48	@ 0x30
10003c96:	2c20      	cmp	r4, #32
10003c98:	d102      	bne.n	10003ca0 <_ntoa_format+0x64>
10003c9a:	e026      	b.n	10003cea <_ntoa_format+0xae>
10003c9c:	2c20      	cmp	r4, #32
10003c9e:	d061      	beq.n	10003d64 <_ntoa_format+0x128>
10003ca0:	3401      	adds	r4, #1
10003ca2:	552a      	strb	r2, [r5, r4]
10003ca4:	42b4      	cmp	r4, r6
10003ca6:	d1f9      	bne.n	10003c9c <_ntoa_format+0x60>
10003ca8:	06da      	lsls	r2, r3, #27
10003caa:	d534      	bpl.n	10003d16 <_ntoa_format+0xda>
10003cac:	055a      	lsls	r2, r3, #21
10003cae:	d462      	bmi.n	10003d76 <_ntoa_format+0x13a>
10003cb0:	2c00      	cmp	r4, #0
10003cb2:	d15c      	bne.n	10003d6e <_ntoa_format+0x132>
10003cb4:	9a0f      	ldr	r2, [sp, #60]	@ 0x3c
10003cb6:	2a10      	cmp	r2, #16
10003cb8:	d100      	bne.n	10003cbc <_ntoa_format+0x80>
10003cba:	e091      	b.n	10003de0 <_ntoa_format+0x1a4>
10003cbc:	2a02      	cmp	r2, #2
10003cbe:	d100      	bne.n	10003cc2 <_ntoa_format+0x86>
10003cc0:	e0a1      	b.n	10003e06 <_ntoa_format+0x1ca>
10003cc2:	2230      	movs	r2, #48	@ 0x30
10003cc4:	9c0c      	ldr	r4, [sp, #48]	@ 0x30
10003cc6:	7022      	strb	r2, [r4, #0]
10003cc8:	2401      	movs	r4, #1
10003cca:	464a      	mov	r2, r9
10003ccc:	2a00      	cmp	r2, #0
10003cce:	d15c      	bne.n	10003d8a <_ntoa_format+0x14e>
10003cd0:	075a      	lsls	r2, r3, #29
10003cd2:	d400      	bmi.n	10003cd6 <_ntoa_format+0x9a>
10003cd4:	e07d      	b.n	10003dd2 <_ntoa_format+0x196>
10003cd6:	222b      	movs	r2, #43	@ 0x2b
10003cd8:	9d0c      	ldr	r5, [sp, #48]	@ 0x30
10003cda:	552a      	strb	r2, [r5, r4]
10003cdc:	3401      	adds	r4, #1
10003cde:	e01c      	b.n	10003d1a <_ntoa_format+0xde>
10003ce0:	4652      	mov	r2, sl
10003ce2:	2a00      	cmp	r2, #0
10003ce4:	d002      	beq.n	10003cec <_ntoa_format+0xb0>
10003ce6:	2e20      	cmp	r6, #32
10003ce8:	d93c      	bls.n	10003d64 <_ntoa_format+0x128>
10003cea:	2420      	movs	r4, #32
10003cec:	06da      	lsls	r2, r3, #27
10003cee:	d514      	bpl.n	10003d1a <_ntoa_format+0xde>
10003cf0:	055a      	lsls	r2, r3, #21
10003cf2:	d412      	bmi.n	10003d1a <_ntoa_format+0xde>
10003cf4:	2f20      	cmp	r7, #32
10003cf6:	d100      	bne.n	10003cfa <_ntoa_format+0xbe>
10003cf8:	e097      	b.n	10003e2a <_ntoa_format+0x1ee>
10003cfa:	2e20      	cmp	r6, #32
10003cfc:	d13b      	bne.n	10003d76 <_ntoa_format+0x13a>
10003cfe:	2620      	movs	r6, #32
10003d00:	221f      	movs	r2, #31
10003d02:	0034      	movs	r4, r6
10003d04:	9d0f      	ldr	r5, [sp, #60]	@ 0x3c
10003d06:	2d10      	cmp	r5, #16
10003d08:	d100      	bne.n	10003d0c <_ntoa_format+0xd0>
10003d0a:	e081      	b.n	10003e10 <_ntoa_format+0x1d4>
10003d0c:	2d02      	cmp	r5, #2
10003d0e:	d04c      	beq.n	10003daa <_ntoa_format+0x16e>
10003d10:	2530      	movs	r5, #48	@ 0x30
10003d12:	9f0c      	ldr	r7, [sp, #48]	@ 0x30
10003d14:	54bd      	strb	r5, [r7, r2]
10003d16:	2c20      	cmp	r4, #32
10003d18:	d1d7      	bne.n	10003cca <_ntoa_format+0x8e>
10003d1a:	9303      	str	r3, [sp, #12]
10003d1c:	9b0c      	ldr	r3, [sp, #48]	@ 0x30
10003d1e:	4662      	mov	r2, ip
10003d20:	9300      	str	r3, [sp, #0]
10003d22:	9602      	str	r6, [sp, #8]
10003d24:	4643      	mov	r3, r8
10003d26:	9401      	str	r4, [sp, #4]
10003d28:	f7ff ff40 	bl	10003bac <_out_rev>
10003d2c:	b004      	add	sp, #16
10003d2e:	bce0      	pop	{r5, r6, r7}
10003d30:	46ba      	mov	sl, r7
10003d32:	46b1      	mov	r9, r6
10003d34:	46a8      	mov	r8, r5
10003d36:	bdf0      	pop	{r4, r5, r6, r7, pc}
10003d38:	2201      	movs	r2, #1
10003d3a:	0015      	movs	r5, r2
10003d3c:	401d      	ands	r5, r3
10003d3e:	46aa      	mov	sl, r5
10003d40:	421a      	tst	r2, r3
10003d42:	d027      	beq.n	10003d94 <_ntoa_format+0x158>
10003d44:	464a      	mov	r2, r9
10003d46:	2a00      	cmp	r2, #0
10003d48:	d133      	bne.n	10003db2 <_ntoa_format+0x176>
10003d4a:	320c      	adds	r2, #12
10003d4c:	421a      	tst	r2, r3
10003d4e:	d130      	bne.n	10003db2 <_ntoa_format+0x176>
10003d50:	42bc      	cmp	r4, r7
10003d52:	d29b      	bcs.n	10003c8c <_ntoa_format+0x50>
10003d54:	2c20      	cmp	r4, #32
10003d56:	d000      	beq.n	10003d5a <_ntoa_format+0x11e>
10003d58:	e78b      	b.n	10003c72 <_ntoa_format+0x36>
10003d5a:	2e20      	cmp	r6, #32
10003d5c:	d8c5      	bhi.n	10003cea <_ntoa_format+0xae>
10003d5e:	06da      	lsls	r2, r3, #27
10003d60:	d4a4      	bmi.n	10003cac <_ntoa_format+0x70>
10003d62:	e7da      	b.n	10003d1a <_ntoa_format+0xde>
10003d64:	2420      	movs	r4, #32
10003d66:	06da      	lsls	r2, r3, #27
10003d68:	d5d7      	bpl.n	10003d1a <_ntoa_format+0xde>
10003d6a:	055a      	lsls	r2, r3, #21
10003d6c:	d403      	bmi.n	10003d76 <_ntoa_format+0x13a>
10003d6e:	42a7      	cmp	r7, r4
10003d70:	d021      	beq.n	10003db6 <_ntoa_format+0x17a>
10003d72:	42b4      	cmp	r4, r6
10003d74:	d01f      	beq.n	10003db6 <_ntoa_format+0x17a>
10003d76:	9a0f      	ldr	r2, [sp, #60]	@ 0x3c
10003d78:	2a10      	cmp	r2, #16
10003d7a:	d021      	beq.n	10003dc0 <_ntoa_format+0x184>
10003d7c:	2a02      	cmp	r2, #2
10003d7e:	d010      	beq.n	10003da2 <_ntoa_format+0x166>
10003d80:	2c20      	cmp	r4, #32
10003d82:	d0ca      	beq.n	10003d1a <_ntoa_format+0xde>
10003d84:	0022      	movs	r2, r4
10003d86:	3401      	adds	r4, #1
10003d88:	e7c2      	b.n	10003d10 <_ntoa_format+0xd4>
10003d8a:	222d      	movs	r2, #45	@ 0x2d
10003d8c:	9d0c      	ldr	r5, [sp, #48]	@ 0x30
10003d8e:	552a      	strb	r2, [r5, r4]
10003d90:	3401      	adds	r4, #1
10003d92:	e7c2      	b.n	10003d1a <_ntoa_format+0xde>
10003d94:	42bc      	cmp	r4, r7
10003d96:	d300      	bcc.n	10003d9a <_ntoa_format+0x15e>
10003d98:	e786      	b.n	10003ca8 <_ntoa_format+0x6c>
10003d9a:	2c20      	cmp	r4, #32
10003d9c:	d000      	beq.n	10003da0 <_ntoa_format+0x164>
10003d9e:	e768      	b.n	10003c72 <_ntoa_format+0x36>
10003da0:	e7e1      	b.n	10003d66 <_ntoa_format+0x12a>
10003da2:	2c20      	cmp	r4, #32
10003da4:	d0b9      	beq.n	10003d1a <_ntoa_format+0xde>
10003da6:	0022      	movs	r2, r4
10003da8:	3401      	adds	r4, #1
10003daa:	2562      	movs	r5, #98	@ 0x62
10003dac:	9f0c      	ldr	r7, [sp, #48]	@ 0x30
10003dae:	54bd      	strb	r5, [r7, r2]
10003db0:	e7e6      	b.n	10003d80 <_ntoa_format+0x144>
10003db2:	3e01      	subs	r6, #1
10003db4:	e7cc      	b.n	10003d50 <_ntoa_format+0x114>
10003db6:	1e62      	subs	r2, r4, #1
10003db8:	2c01      	cmp	r4, #1
10003dba:	d100      	bne.n	10003dbe <_ntoa_format+0x182>
10003dbc:	e77a      	b.n	10003cb4 <_ntoa_format+0x78>
10003dbe:	e7a1      	b.n	10003d04 <_ntoa_format+0xc8>
10003dc0:	069a      	lsls	r2, r3, #26
10003dc2:	d416      	bmi.n	10003df2 <_ntoa_format+0x1b6>
10003dc4:	2c20      	cmp	r4, #32
10003dc6:	d0a8      	beq.n	10003d1a <_ntoa_format+0xde>
10003dc8:	2278      	movs	r2, #120	@ 0x78
10003dca:	9d0c      	ldr	r5, [sp, #48]	@ 0x30
10003dcc:	552a      	strb	r2, [r5, r4]
10003dce:	3401      	adds	r4, #1
10003dd0:	e7d6      	b.n	10003d80 <_ntoa_format+0x144>
10003dd2:	071a      	lsls	r2, r3, #28
10003dd4:	d5a1      	bpl.n	10003d1a <_ntoa_format+0xde>
10003dd6:	2220      	movs	r2, #32
10003dd8:	9d0c      	ldr	r5, [sp, #48]	@ 0x30
10003dda:	552a      	strb	r2, [r5, r4]
10003ddc:	3401      	adds	r4, #1
10003dde:	e79c      	b.n	10003d1a <_ntoa_format+0xde>
10003de0:	069a      	lsls	r2, r3, #26
10003de2:	d40e      	bmi.n	10003e02 <_ntoa_format+0x1c6>
10003de4:	2278      	movs	r2, #120	@ 0x78
10003de6:	9c0c      	ldr	r4, [sp, #48]	@ 0x30
10003de8:	7022      	strb	r2, [r4, #0]
10003dea:	2230      	movs	r2, #48	@ 0x30
10003dec:	7062      	strb	r2, [r4, #1]
10003dee:	2402      	movs	r4, #2
10003df0:	e76b      	b.n	10003cca <_ntoa_format+0x8e>
10003df2:	2c20      	cmp	r4, #32
10003df4:	d091      	beq.n	10003d1a <_ntoa_format+0xde>
10003df6:	2558      	movs	r5, #88	@ 0x58
10003df8:	9a0c      	ldr	r2, [sp, #48]	@ 0x30
10003dfa:	1912      	adds	r2, r2, r4
10003dfc:	7015      	strb	r5, [r2, #0]
10003dfe:	3401      	adds	r4, #1
10003e00:	e7be      	b.n	10003d80 <_ntoa_format+0x144>
10003e02:	2258      	movs	r2, #88	@ 0x58
10003e04:	e7ef      	b.n	10003de6 <_ntoa_format+0x1aa>
10003e06:	2262      	movs	r2, #98	@ 0x62
10003e08:	e7ed      	b.n	10003de6 <_ntoa_format+0x1aa>
10003e0a:	2a00      	cmp	r2, #0
10003e0c:	d1a7      	bne.n	10003d5e <_ntoa_format+0x122>
10003e0e:	e7aa      	b.n	10003d66 <_ntoa_format+0x12a>
10003e10:	3c02      	subs	r4, #2
10003e12:	069d      	lsls	r5, r3, #26
10003e14:	d404      	bmi.n	10003e20 <_ntoa_format+0x1e4>
10003e16:	2578      	movs	r5, #120	@ 0x78
10003e18:	9f0c      	ldr	r7, [sp, #48]	@ 0x30
10003e1a:	553d      	strb	r5, [r7, r4]
10003e1c:	0014      	movs	r4, r2
10003e1e:	e7b1      	b.n	10003d84 <_ntoa_format+0x148>
10003e20:	2558      	movs	r5, #88	@ 0x58
10003e22:	9f0c      	ldr	r7, [sp, #48]	@ 0x30
10003e24:	553d      	strb	r5, [r7, r4]
10003e26:	0014      	movs	r4, r2
10003e28:	e7ac      	b.n	10003d84 <_ntoa_format+0x148>
10003e2a:	221f      	movs	r2, #31
10003e2c:	e76a      	b.n	10003d04 <_ntoa_format+0xc8>
10003e2e:	46c0      	nop			@ (mov r8, r8)

10003e30 <_out_char>:
10003e30:	b510      	push	{r4, lr}
10003e32:	2800      	cmp	r0, #0
10003e34:	d100      	bne.n	10003e38 <_out_char+0x8>
10003e36:	bd10      	pop	{r4, pc}
10003e38:	f001 faee 	bl	10005418 <__wrap_putchar>
10003e3c:	e7fb      	b.n	10003e36 <_out_char+0x6>
10003e3e:	46c0      	nop			@ (mov r8, r8)

10003e40 <_etoa>:
10003e40:	b5f0      	push	{r4, r5, r6, r7, lr}
10003e42:	4657      	mov	r7, sl
10003e44:	464e      	mov	r6, r9
10003e46:	4645      	mov	r5, r8
10003e48:	46de      	mov	lr, fp
10003e4a:	b5e0      	push	{r5, r6, r7, lr}
10003e4c:	b099      	sub	sp, #100	@ 0x64
10003e4e:	4682      	mov	sl, r0
10003e50:	4689      	mov	r9, r1
10003e52:	4690      	mov	r8, r2
10003e54:	9309      	str	r3, [sp, #36]	@ 0x24
10003e56:	9a22      	ldr	r2, [sp, #136]	@ 0x88
10003e58:	9b23      	ldr	r3, [sp, #140]	@ 0x8c
10003e5a:	0010      	movs	r0, r2
10003e5c:	0019      	movs	r1, r3
10003e5e:	f7ff fad4 	bl	1000340a <__wrap___aeabi_dcmpun>
10003e62:	2800      	cmp	r0, #0
10003e64:	d000      	beq.n	10003e68 <_etoa+0x28>
10003e66:	e0c8      	b.n	10003ffa <_etoa+0x1ba>
10003e68:	9822      	ldr	r0, [sp, #136]	@ 0x88
10003e6a:	9923      	ldr	r1, [sp, #140]	@ 0x8c
10003e6c:	2201      	movs	r2, #1
10003e6e:	4bd5      	ldr	r3, [pc, #852]	@ (100041c4 <_etoa+0x384>)
10003e70:	4252      	negs	r2, r2
10003e72:	f7ff fac5 	bl	10003400 <__wrap___aeabi_dcmpgt>
10003e76:	2800      	cmp	r0, #0
10003e78:	d000      	beq.n	10003e7c <_etoa+0x3c>
10003e7a:	e0be      	b.n	10003ffa <_etoa+0x1ba>
10003e7c:	9822      	ldr	r0, [sp, #136]	@ 0x88
10003e7e:	9923      	ldr	r1, [sp, #140]	@ 0x8c
10003e80:	2201      	movs	r2, #1
10003e82:	4bd1      	ldr	r3, [pc, #836]	@ (100041c8 <_etoa+0x388>)
10003e84:	4252      	negs	r2, r2
10003e86:	f7ff faad 	bl	100033e4 <__wrap___aeabi_dcmplt>
10003e8a:	2800      	cmp	r0, #0
10003e8c:	d000      	beq.n	10003e90 <_etoa+0x50>
10003e8e:	e0b4      	b.n	10003ffa <_etoa+0x1ba>
10003e90:	9822      	ldr	r0, [sp, #136]	@ 0x88
10003e92:	9923      	ldr	r1, [sp, #140]	@ 0x8c
10003e94:	2200      	movs	r2, #0
10003e96:	2300      	movs	r3, #0
10003e98:	f7ff faa4 	bl	100033e4 <__wrap___aeabi_dcmplt>
10003e9c:	2800      	cmp	r0, #0
10003e9e:	d000      	beq.n	10003ea2 <_etoa+0x62>
10003ea0:	e1e9      	b.n	10004276 <_etoa+0x436>
10003ea2:	9e22      	ldr	r6, [sp, #136]	@ 0x88
10003ea4:	9f23      	ldr	r7, [sp, #140]	@ 0x8c
10003ea6:	2380      	movs	r3, #128	@ 0x80
10003ea8:	9a26      	ldr	r2, [sp, #152]	@ 0x98
10003eaa:	00db      	lsls	r3, r3, #3
10003eac:	401a      	ands	r2, r3
10003eae:	920d      	str	r2, [sp, #52]	@ 0x34
10003eb0:	9a26      	ldr	r2, [sp, #152]	@ 0x98
10003eb2:	421a      	tst	r2, r3
10003eb4:	d101      	bne.n	10003eba <_etoa+0x7a>
10003eb6:	2306      	movs	r3, #6
10003eb8:	9324      	str	r3, [sp, #144]	@ 0x90
10003eba:	003b      	movs	r3, r7
10003ebc:	4333      	orrs	r3, r6
10003ebe:	d000      	beq.n	10003ec2 <_etoa+0x82>
10003ec0:	e0b4      	b.n	1000402c <_etoa+0x1ec>
10003ec2:	9b26      	ldr	r3, [sp, #152]	@ 0x98
10003ec4:	051b      	lsls	r3, r3, #20
10003ec6:	d500      	bpl.n	10003eca <_etoa+0x8a>
10003ec8:	e1bf      	b.n	1000424a <_etoa+0x40a>
10003eca:	2300      	movs	r3, #0
10003ecc:	2400      	movs	r4, #0
10003ece:	930a      	str	r3, [sp, #40]	@ 0x28
10003ed0:	940b      	str	r4, [sp, #44]	@ 0x2c
10003ed2:	2300      	movs	r3, #0
10003ed4:	2504      	movs	r5, #4
10003ed6:	930c      	str	r3, [sp, #48]	@ 0x30
10003ed8:	9b25      	ldr	r3, [sp, #148]	@ 0x94
10003eda:	2400      	movs	r4, #0
10003edc:	42ab      	cmp	r3, r5
10003ede:	d900      	bls.n	10003ee2 <_etoa+0xa2>
10003ee0:	1b5c      	subs	r4, r3, r5
10003ee2:	2302      	movs	r3, #2
10003ee4:	9a26      	ldr	r2, [sp, #152]	@ 0x98
10003ee6:	401a      	ands	r2, r3
10003ee8:	920d      	str	r2, [sp, #52]	@ 0x34
10003eea:	9a26      	ldr	r2, [sp, #152]	@ 0x98
10003eec:	4213      	tst	r3, r2
10003eee:	d003      	beq.n	10003ef8 <_etoa+0xb8>
10003ef0:	426b      	negs	r3, r5
10003ef2:	416b      	adcs	r3, r5
10003ef4:	425b      	negs	r3, r3
10003ef6:	401c      	ands	r4, r3
10003ef8:	9b0c      	ldr	r3, [sp, #48]	@ 0x30
10003efa:	2b00      	cmp	r3, #0
10003efc:	d007      	beq.n	10003f0e <_etoa+0xce>
10003efe:	9a0a      	ldr	r2, [sp, #40]	@ 0x28
10003f00:	9b0b      	ldr	r3, [sp, #44]	@ 0x2c
10003f02:	0030      	movs	r0, r6
10003f04:	0039      	movs	r1, r7
10003f06:	f7ff fa0c 	bl	10003322 <__wrap___aeabi_ddiv>
10003f0a:	0006      	movs	r6, r0
10003f0c:	000f      	movs	r7, r1
10003f0e:	9822      	ldr	r0, [sp, #136]	@ 0x88
10003f10:	9923      	ldr	r1, [sp, #140]	@ 0x8c
10003f12:	2200      	movs	r2, #0
10003f14:	2300      	movs	r3, #0
10003f16:	f7ff fa65 	bl	100033e4 <__wrap___aeabi_dcmplt>
10003f1a:	2800      	cmp	r0, #0
10003f1c:	d003      	beq.n	10003f26 <_etoa+0xe6>
10003f1e:	2180      	movs	r1, #128	@ 0x80
10003f20:	0609      	lsls	r1, r1, #24
10003f22:	187b      	adds	r3, r7, r1
10003f24:	001f      	movs	r7, r3
10003f26:	9a26      	ldr	r2, [sp, #152]	@ 0x98
10003f28:	4ba8      	ldr	r3, [pc, #672]	@ (100041cc <_etoa+0x38c>)
10003f2a:	9600      	str	r6, [sp, #0]
10003f2c:	9701      	str	r7, [sp, #4]
10003f2e:	4013      	ands	r3, r2
10003f30:	9e09      	ldr	r6, [sp, #36]	@ 0x24
10003f32:	9304      	str	r3, [sp, #16]
10003f34:	9b24      	ldr	r3, [sp, #144]	@ 0x90
10003f36:	9403      	str	r4, [sp, #12]
10003f38:	9302      	str	r3, [sp, #8]
10003f3a:	4642      	mov	r2, r8
10003f3c:	0033      	movs	r3, r6
10003f3e:	4649      	mov	r1, r9
10003f40:	4650      	mov	r0, sl
10003f42:	f000 f9a7 	bl	10004294 <_ftoa>
10003f46:	0004      	movs	r4, r0
10003f48:	2d00      	cmp	r5, #0
10003f4a:	d067      	beq.n	1000401c <_etoa+0x1dc>
10003f4c:	2020      	movs	r0, #32
10003f4e:	9a26      	ldr	r2, [sp, #152]	@ 0x98
10003f50:	4649      	mov	r1, r9
10003f52:	4002      	ands	r2, r0
10003f54:	0013      	movs	r3, r2
10003f56:	425a      	negs	r2, r3
10003f58:	4153      	adcs	r3, r2
10003f5a:	425b      	negs	r3, r3
10003f5c:	1c62      	adds	r2, r4, #1
10003f5e:	4018      	ands	r0, r3
10003f60:	920a      	str	r2, [sp, #40]	@ 0x28
10003f62:	0033      	movs	r3, r6
10003f64:	0022      	movs	r2, r4
10003f66:	3045      	adds	r0, #69	@ 0x45
10003f68:	47d0      	blx	sl
10003f6a:	9a0c      	ldr	r2, [sp, #48]	@ 0x30
10003f6c:	1e6f      	subs	r7, r5, #1
10003f6e:	17d3      	asrs	r3, r2, #31
10003f70:	18d4      	adds	r4, r2, r3
10003f72:	405c      	eors	r4, r3
10003f74:	0fd3      	lsrs	r3, r2, #31
10003f76:	469b      	mov	fp, r3
10003f78:	2500      	movs	r5, #0
10003f7a:	e001      	b.n	10003f80 <_etoa+0x140>
10003f7c:	2d20      	cmp	r5, #32
10003f7e:	d013      	beq.n	10003fa8 <_etoa+0x168>
10003f80:	aa08      	add	r2, sp, #32
10003f82:	4694      	mov	ip, r2
10003f84:	231f      	movs	r3, #31
10003f86:	0020      	movs	r0, r4
10003f88:	4463      	add	r3, ip
10003f8a:	210a      	movs	r1, #10
10003f8c:	3501      	adds	r5, #1
10003f8e:	195e      	adds	r6, r3, r5
10003f90:	f7fe ff7a 	bl	10002e88 <__wrap___aeabi_uidiv>
10003f94:	3130      	adds	r1, #48	@ 0x30
10003f96:	7031      	strb	r1, [r6, #0]
10003f98:	0020      	movs	r0, r4
10003f9a:	210a      	movs	r1, #10
10003f9c:	f7fe ff74 	bl	10002e88 <__wrap___aeabi_uidiv>
10003fa0:	0026      	movs	r6, r4
10003fa2:	0004      	movs	r4, r0
10003fa4:	2e09      	cmp	r6, #9
10003fa6:	d8e9      	bhi.n	10003f7c <_etoa+0x13c>
10003fa8:	2305      	movs	r3, #5
10003faa:	9306      	str	r3, [sp, #24]
10003fac:	2300      	movs	r3, #0
10003fae:	9304      	str	r3, [sp, #16]
10003fb0:	330a      	adds	r3, #10
10003fb2:	9303      	str	r3, [sp, #12]
10003fb4:	465b      	mov	r3, fp
10003fb6:	9e09      	ldr	r6, [sp, #36]	@ 0x24
10003fb8:	9302      	str	r3, [sp, #8]
10003fba:	ab10      	add	r3, sp, #64	@ 0x40
10003fbc:	9a0a      	ldr	r2, [sp, #40]	@ 0x28
10003fbe:	9300      	str	r3, [sp, #0]
10003fc0:	4649      	mov	r1, r9
10003fc2:	0033      	movs	r3, r6
10003fc4:	4650      	mov	r0, sl
10003fc6:	9705      	str	r7, [sp, #20]
10003fc8:	9501      	str	r5, [sp, #4]
10003fca:	f7ff fe37 	bl	10003c3c <_ntoa_format>
10003fce:	9a0d      	ldr	r2, [sp, #52]	@ 0x34
10003fd0:	0004      	movs	r4, r0
10003fd2:	2a00      	cmp	r2, #0
10003fd4:	d022      	beq.n	1000401c <_etoa+0x1dc>
10003fd6:	4642      	mov	r2, r8
10003fd8:	1a85      	subs	r5, r0, r2
10003fda:	9a25      	ldr	r2, [sp, #148]	@ 0x94
10003fdc:	42aa      	cmp	r2, r5
10003fde:	d91d      	bls.n	1000401c <_etoa+0x1dc>
10003fe0:	46b0      	mov	r8, r6
10003fe2:	4657      	mov	r7, sl
10003fe4:	0016      	movs	r6, r2
10003fe6:	0022      	movs	r2, r4
10003fe8:	4643      	mov	r3, r8
10003fea:	4649      	mov	r1, r9
10003fec:	2020      	movs	r0, #32
10003fee:	3501      	adds	r5, #1
10003ff0:	47b8      	blx	r7
10003ff2:	3401      	adds	r4, #1
10003ff4:	42ae      	cmp	r6, r5
10003ff6:	d8f6      	bhi.n	10003fe6 <_etoa+0x1a6>
10003ff8:	e010      	b.n	1000401c <_etoa+0x1dc>
10003ffa:	9b26      	ldr	r3, [sp, #152]	@ 0x98
10003ffc:	4642      	mov	r2, r8
10003ffe:	9304      	str	r3, [sp, #16]
10004000:	9b25      	ldr	r3, [sp, #148]	@ 0x94
10004002:	4649      	mov	r1, r9
10004004:	9303      	str	r3, [sp, #12]
10004006:	9b24      	ldr	r3, [sp, #144]	@ 0x90
10004008:	4650      	mov	r0, sl
1000400a:	9302      	str	r3, [sp, #8]
1000400c:	9b22      	ldr	r3, [sp, #136]	@ 0x88
1000400e:	9c23      	ldr	r4, [sp, #140]	@ 0x8c
10004010:	9300      	str	r3, [sp, #0]
10004012:	9401      	str	r4, [sp, #4]
10004014:	9b09      	ldr	r3, [sp, #36]	@ 0x24
10004016:	f000 f93d 	bl	10004294 <_ftoa>
1000401a:	0004      	movs	r4, r0
1000401c:	0020      	movs	r0, r4
1000401e:	b019      	add	sp, #100	@ 0x64
10004020:	bcf0      	pop	{r4, r5, r6, r7}
10004022:	46bb      	mov	fp, r7
10004024:	46b2      	mov	sl, r6
10004026:	46a9      	mov	r9, r5
10004028:	46a0      	mov	r8, r4
1000402a:	bdf0      	pop	{r4, r5, r6, r7, pc}
1000402c:	4b68      	ldr	r3, [pc, #416]	@ (100041d0 <_etoa+0x390>)
1000402e:	0078      	lsls	r0, r7, #1
10004030:	469c      	mov	ip, r3
10004032:	0d40      	lsrs	r0, r0, #21
10004034:	4460      	add	r0, ip
10004036:	f7ff f9f9 	bl	1000342c <__wrap___aeabi_i2d>
1000403a:	4a66      	ldr	r2, [pc, #408]	@ (100041d4 <_etoa+0x394>)
1000403c:	4b66      	ldr	r3, [pc, #408]	@ (100041d8 <_etoa+0x398>)
1000403e:	f7ff f98e 	bl	1000335e <__wrap___aeabi_dmul>
10004042:	4a66      	ldr	r2, [pc, #408]	@ (100041dc <_etoa+0x39c>)
10004044:	4b66      	ldr	r3, [pc, #408]	@ (100041e0 <_etoa+0x3a0>)
10004046:	f7ff f963 	bl	10003310 <__wrap___aeabi_dadd>
1000404a:	4a66      	ldr	r2, [pc, #408]	@ (100041e4 <_etoa+0x3a4>)
1000404c:	033b      	lsls	r3, r7, #12
1000404e:	0b1b      	lsrs	r3, r3, #12
10004050:	431a      	orrs	r2, r3
10004052:	0004      	movs	r4, r0
10004054:	000d      	movs	r5, r1
10004056:	4b64      	ldr	r3, [pc, #400]	@ (100041e8 <_etoa+0x3a8>)
10004058:	0011      	movs	r1, r2
1000405a:	0030      	movs	r0, r6
1000405c:	2200      	movs	r2, #0
1000405e:	f7ff f94e 	bl	100032fe <__wrap___aeabi_dsub>
10004062:	4a62      	ldr	r2, [pc, #392]	@ (100041ec <_etoa+0x3ac>)
10004064:	4b62      	ldr	r3, [pc, #392]	@ (100041f0 <_etoa+0x3b0>)
10004066:	f7ff f97a 	bl	1000335e <__wrap___aeabi_dmul>
1000406a:	0002      	movs	r2, r0
1000406c:	000b      	movs	r3, r1
1000406e:	0020      	movs	r0, r4
10004070:	0029      	movs	r1, r5
10004072:	f7ff f94d 	bl	10003310 <__wrap___aeabi_dadd>
10004076:	f7ff f9f1 	bl	1000345c <__wrap___aeabi_d2iz>
1000407a:	900c      	str	r0, [sp, #48]	@ 0x30
1000407c:	f7ff f9d6 	bl	1000342c <__wrap___aeabi_i2d>
10004080:	4a5c      	ldr	r2, [pc, #368]	@ (100041f4 <_etoa+0x3b4>)
10004082:	4b5d      	ldr	r3, [pc, #372]	@ (100041f8 <_etoa+0x3b8>)
10004084:	0004      	movs	r4, r0
10004086:	000d      	movs	r5, r1
10004088:	f7ff f969 	bl	1000335e <__wrap___aeabi_dmul>
1000408c:	2200      	movs	r2, #0
1000408e:	4b5b      	ldr	r3, [pc, #364]	@ (100041fc <_etoa+0x3bc>)
10004090:	f7ff f93e 	bl	10003310 <__wrap___aeabi_dadd>
10004094:	f7ff f9e2 	bl	1000345c <__wrap___aeabi_d2iz>
10004098:	4a59      	ldr	r2, [pc, #356]	@ (10004200 <_etoa+0x3c0>)
1000409a:	4683      	mov	fp, r0
1000409c:	4b59      	ldr	r3, [pc, #356]	@ (10004204 <_etoa+0x3c4>)
1000409e:	0020      	movs	r0, r4
100040a0:	0029      	movs	r1, r5
100040a2:	f7ff f95c 	bl	1000335e <__wrap___aeabi_dmul>
100040a6:	0004      	movs	r4, r0
100040a8:	4658      	mov	r0, fp
100040aa:	000d      	movs	r5, r1
100040ac:	f7ff f9be 	bl	1000342c <__wrap___aeabi_i2d>
100040b0:	4a55      	ldr	r2, [pc, #340]	@ (10004208 <_etoa+0x3c8>)
100040b2:	4b56      	ldr	r3, [pc, #344]	@ (1000420c <_etoa+0x3cc>)
100040b4:	f7ff f953 	bl	1000335e <__wrap___aeabi_dmul>
100040b8:	0002      	movs	r2, r0
100040ba:	000b      	movs	r3, r1
100040bc:	0020      	movs	r0, r4
100040be:	0029      	movs	r1, r5
100040c0:	f7ff f91d 	bl	100032fe <__wrap___aeabi_dsub>
100040c4:	0002      	movs	r2, r0
100040c6:	000b      	movs	r3, r1
100040c8:	900a      	str	r0, [sp, #40]	@ 0x28
100040ca:	910b      	str	r1, [sp, #44]	@ 0x2c
100040cc:	f7ff f947 	bl	1000335e <__wrap___aeabi_dmul>
100040d0:	0004      	movs	r4, r0
100040d2:	000d      	movs	r5, r1
100040d4:	980a      	ldr	r0, [sp, #40]	@ 0x28
100040d6:	990b      	ldr	r1, [sp, #44]	@ 0x2c
100040d8:	0002      	movs	r2, r0
100040da:	000b      	movs	r3, r1
100040dc:	f7ff f918 	bl	10003310 <__wrap___aeabi_dadd>
100040e0:	2200      	movs	r2, #0
100040e2:	900e      	str	r0, [sp, #56]	@ 0x38
100040e4:	910f      	str	r1, [sp, #60]	@ 0x3c
100040e6:	4b4a      	ldr	r3, [pc, #296]	@ (10004210 <_etoa+0x3d0>)
100040e8:	0020      	movs	r0, r4
100040ea:	0029      	movs	r1, r5
100040ec:	f7ff f919 	bl	10003322 <__wrap___aeabi_ddiv>
100040f0:	2200      	movs	r2, #0
100040f2:	4b48      	ldr	r3, [pc, #288]	@ (10004214 <_etoa+0x3d4>)
100040f4:	f7ff f90c 	bl	10003310 <__wrap___aeabi_dadd>
100040f8:	0002      	movs	r2, r0
100040fa:	000b      	movs	r3, r1
100040fc:	0020      	movs	r0, r4
100040fe:	0029      	movs	r1, r5
10004100:	f7ff f90f 	bl	10003322 <__wrap___aeabi_ddiv>
10004104:	2200      	movs	r2, #0
10004106:	4b44      	ldr	r3, [pc, #272]	@ (10004218 <_etoa+0x3d8>)
10004108:	f7ff f902 	bl	10003310 <__wrap___aeabi_dadd>
1000410c:	0002      	movs	r2, r0
1000410e:	000b      	movs	r3, r1
10004110:	0020      	movs	r0, r4
10004112:	0029      	movs	r1, r5
10004114:	f7ff f905 	bl	10003322 <__wrap___aeabi_ddiv>
10004118:	9a0a      	ldr	r2, [sp, #40]	@ 0x28
1000411a:	9b0b      	ldr	r3, [sp, #44]	@ 0x2c
1000411c:	000d      	movs	r5, r1
1000411e:	2180      	movs	r1, #128	@ 0x80
10004120:	0004      	movs	r4, r0
10004122:	05c9      	lsls	r1, r1, #23
10004124:	2000      	movs	r0, #0
10004126:	f7ff f8ea 	bl	100032fe <__wrap___aeabi_dsub>
1000412a:	0002      	movs	r2, r0
1000412c:	000b      	movs	r3, r1
1000412e:	0020      	movs	r0, r4
10004130:	0029      	movs	r1, r5
10004132:	f7ff f8ed 	bl	10003310 <__wrap___aeabi_dadd>
10004136:	4c39      	ldr	r4, [pc, #228]	@ (1000421c <_etoa+0x3dc>)
10004138:	0002      	movs	r2, r0
1000413a:	000b      	movs	r3, r1
1000413c:	980e      	ldr	r0, [sp, #56]	@ 0x38
1000413e:	990f      	ldr	r1, [sp, #60]	@ 0x3c
10004140:	f7ff f8ef 	bl	10003322 <__wrap___aeabi_ddiv>
10004144:	445c      	add	r4, fp
10004146:	2200      	movs	r2, #0
10004148:	4b26      	ldr	r3, [pc, #152]	@ (100041e4 <_etoa+0x3a4>)
1000414a:	f7ff f8e1 	bl	10003310 <__wrap___aeabi_dadd>
1000414e:	0523      	lsls	r3, r4, #20
10004150:	2200      	movs	r2, #0
10004152:	f7ff f904 	bl	1000335e <__wrap___aeabi_dmul>
10004156:	0004      	movs	r4, r0
10004158:	000d      	movs	r5, r1
1000415a:	0002      	movs	r2, r0
1000415c:	000b      	movs	r3, r1
1000415e:	0030      	movs	r0, r6
10004160:	0039      	movs	r1, r7
10004162:	940a      	str	r4, [sp, #40]	@ 0x28
10004164:	950b      	str	r5, [sp, #44]	@ 0x2c
10004166:	f7ff f93d 	bl	100033e4 <__wrap___aeabi_dcmplt>
1000416a:	2800      	cmp	r0, #0
1000416c:	d15e      	bne.n	1000422c <_etoa+0x3ec>
1000416e:	0023      	movs	r3, r4
10004170:	002a      	movs	r2, r5
10004172:	25c6      	movs	r5, #198	@ 0xc6
10004174:	990c      	ldr	r1, [sp, #48]	@ 0x30
10004176:	3163      	adds	r1, #99	@ 0x63
10004178:	428d      	cmp	r5, r1
1000417a:	41ad      	sbcs	r5, r5
1000417c:	9926      	ldr	r1, [sp, #152]	@ 0x98
1000417e:	426d      	negs	r5, r5
10004180:	3504      	adds	r5, #4
10004182:	0509      	lsls	r1, r1, #20
10004184:	d400      	bmi.n	10004188 <_etoa+0x348>
10004186:	e6a7      	b.n	10003ed8 <_etoa+0x98>
10004188:	4313      	orrs	r3, r2
1000418a:	d064      	beq.n	10004256 <_etoa+0x416>
1000418c:	0030      	movs	r0, r6
1000418e:	0039      	movs	r1, r7
10004190:	4a23      	ldr	r2, [pc, #140]	@ (10004220 <_etoa+0x3e0>)
10004192:	4b24      	ldr	r3, [pc, #144]	@ (10004224 <_etoa+0x3e4>)
10004194:	f7ff f92c 	bl	100033f0 <__wrap___aeabi_dcmpge>
10004198:	2800      	cmp	r0, #0
1000419a:	d007      	beq.n	100041ac <_etoa+0x36c>
1000419c:	2200      	movs	r2, #0
1000419e:	0030      	movs	r0, r6
100041a0:	0039      	movs	r1, r7
100041a2:	4b21      	ldr	r3, [pc, #132]	@ (10004228 <_etoa+0x3e8>)
100041a4:	f7ff f91e 	bl	100033e4 <__wrap___aeabi_dcmplt>
100041a8:	2800      	cmp	r0, #0
100041aa:	d154      	bne.n	10004256 <_etoa+0x416>
100041ac:	9b24      	ldr	r3, [sp, #144]	@ 0x90
100041ae:	2b00      	cmp	r3, #0
100041b0:	d100      	bne.n	100041b4 <_etoa+0x374>
100041b2:	e691      	b.n	10003ed8 <_etoa+0x98>
100041b4:	9b0d      	ldr	r3, [sp, #52]	@ 0x34
100041b6:	1e5a      	subs	r2, r3, #1
100041b8:	4193      	sbcs	r3, r2
100041ba:	9a24      	ldr	r2, [sp, #144]	@ 0x90
100041bc:	1ad3      	subs	r3, r2, r3
100041be:	9324      	str	r3, [sp, #144]	@ 0x90
100041c0:	e68a      	b.n	10003ed8 <_etoa+0x98>
100041c2:	46c0      	nop			@ (mov r8, r8)
100041c4:	7fefffff 	.word	0x7fefffff
100041c8:	ffefffff 	.word	0xffefffff
100041cc:	fffff7ff 	.word	0xfffff7ff
100041d0:	fffffc01 	.word	0xfffffc01
100041d4:	509f79fb 	.word	0x509f79fb
100041d8:	3fd34413 	.word	0x3fd34413
100041dc:	8b60c8b3 	.word	0x8b60c8b3
100041e0:	3fc68a28 	.word	0x3fc68a28
100041e4:	3ff00000 	.word	0x3ff00000
100041e8:	3ff80000 	.word	0x3ff80000
100041ec:	636f4361 	.word	0x636f4361
100041f0:	3fd287a7 	.word	0x3fd287a7
100041f4:	0979a371 	.word	0x0979a371
100041f8:	400a934f 	.word	0x400a934f
100041fc:	3fe00000 	.word	0x3fe00000
10004200:	bbb55516 	.word	0xbbb55516
10004204:	40026bb1 	.word	0x40026bb1
10004208:	fefa39ef 	.word	0xfefa39ef
1000420c:	3fe62e42 	.word	0x3fe62e42
10004210:	402c0000 	.word	0x402c0000
10004214:	40240000 	.word	0x40240000
10004218:	40180000 	.word	0x40180000
1000421c:	000003ff 	.word	0x000003ff
10004220:	eb1c432d 	.word	0xeb1c432d
10004224:	3f1a36e2 	.word	0x3f1a36e2
10004228:	412e8480 	.word	0x412e8480
1000422c:	9b0c      	ldr	r3, [sp, #48]	@ 0x30
1000422e:	2200      	movs	r2, #0
10004230:	3b01      	subs	r3, #1
10004232:	930c      	str	r3, [sp, #48]	@ 0x30
10004234:	0020      	movs	r0, r4
10004236:	4b16      	ldr	r3, [pc, #88]	@ (10004290 <_etoa+0x450>)
10004238:	0029      	movs	r1, r5
1000423a:	f7ff f872 	bl	10003322 <__wrap___aeabi_ddiv>
1000423e:	000a      	movs	r2, r1
10004240:	0001      	movs	r1, r0
10004242:	0003      	movs	r3, r0
10004244:	910a      	str	r1, [sp, #40]	@ 0x28
10004246:	920b      	str	r2, [sp, #44]	@ 0x2c
10004248:	e793      	b.n	10004172 <_etoa+0x332>
1000424a:	2300      	movs	r3, #0
1000424c:	2400      	movs	r4, #0
1000424e:	930a      	str	r3, [sp, #40]	@ 0x28
10004250:	940b      	str	r4, [sp, #44]	@ 0x2c
10004252:	2300      	movs	r3, #0
10004254:	930c      	str	r3, [sp, #48]	@ 0x30
10004256:	9a24      	ldr	r2, [sp, #144]	@ 0x90
10004258:	9b0c      	ldr	r3, [sp, #48]	@ 0x30
1000425a:	429a      	cmp	r2, r3
1000425c:	dd14      	ble.n	10004288 <_etoa+0x448>
1000425e:	1ad3      	subs	r3, r2, r3
10004260:	3b01      	subs	r3, #1
10004262:	9324      	str	r3, [sp, #144]	@ 0x90
10004264:	2380      	movs	r3, #128	@ 0x80
10004266:	9a26      	ldr	r2, [sp, #152]	@ 0x98
10004268:	00db      	lsls	r3, r3, #3
1000426a:	431a      	orrs	r2, r3
1000426c:	2300      	movs	r3, #0
1000426e:	2500      	movs	r5, #0
10004270:	9226      	str	r2, [sp, #152]	@ 0x98
10004272:	930c      	str	r3, [sp, #48]	@ 0x30
10004274:	e630      	b.n	10003ed8 <_etoa+0x98>
10004276:	2280      	movs	r2, #128	@ 0x80
10004278:	0612      	lsls	r2, r2, #24
1000427a:	4694      	mov	ip, r2
1000427c:	9b22      	ldr	r3, [sp, #136]	@ 0x88
1000427e:	001e      	movs	r6, r3
10004280:	9b23      	ldr	r3, [sp, #140]	@ 0x8c
10004282:	4463      	add	r3, ip
10004284:	001f      	movs	r7, r3
10004286:	e60e      	b.n	10003ea6 <_etoa+0x66>
10004288:	2300      	movs	r3, #0
1000428a:	9324      	str	r3, [sp, #144]	@ 0x90
1000428c:	e7ea      	b.n	10004264 <_etoa+0x424>
1000428e:	46c0      	nop			@ (mov r8, r8)
10004290:	40240000 	.word	0x40240000

10004294 <_ftoa>:
10004294:	b5f0      	push	{r4, r5, r6, r7, lr}
10004296:	4645      	mov	r5, r8
10004298:	46de      	mov	lr, fp
1000429a:	464e      	mov	r6, r9
1000429c:	4657      	mov	r7, sl
1000429e:	b5e0      	push	{r5, r6, r7, lr}
100042a0:	b095      	sub	sp, #84	@ 0x54
100042a2:	468b      	mov	fp, r1
100042a4:	4690      	mov	r8, r2
100042a6:	4699      	mov	r9, r3
100042a8:	9a1e      	ldr	r2, [sp, #120]	@ 0x78
100042aa:	9b1f      	ldr	r3, [sp, #124]	@ 0x7c
100042ac:	900a      	str	r0, [sp, #40]	@ 0x28
100042ae:	0019      	movs	r1, r3
100042b0:	0010      	movs	r0, r2
100042b2:	9d20      	ldr	r5, [sp, #128]	@ 0x80
100042b4:	f7ff f8a9 	bl	1000340a <__wrap___aeabi_dcmpun>
100042b8:	2800      	cmp	r0, #0
100042ba:	d000      	beq.n	100042be <_ftoa+0x2a>
100042bc:	e1b0      	b.n	10004620 <_ftoa+0x38c>
100042be:	981e      	ldr	r0, [sp, #120]	@ 0x78
100042c0:	991f      	ldr	r1, [sp, #124]	@ 0x7c
100042c2:	2201      	movs	r2, #1
100042c4:	4bc7      	ldr	r3, [pc, #796]	@ (100045e4 <_ftoa+0x350>)
100042c6:	4252      	negs	r2, r2
100042c8:	f7ff f88c 	bl	100033e4 <__wrap___aeabi_dcmplt>
100042cc:	2800      	cmp	r0, #0
100042ce:	d000      	beq.n	100042d2 <_ftoa+0x3e>
100042d0:	e137      	b.n	10004542 <_ftoa+0x2ae>
100042d2:	981e      	ldr	r0, [sp, #120]	@ 0x78
100042d4:	991f      	ldr	r1, [sp, #124]	@ 0x7c
100042d6:	2201      	movs	r2, #1
100042d8:	4bc3      	ldr	r3, [pc, #780]	@ (100045e8 <_ftoa+0x354>)
100042da:	4252      	negs	r2, r2
100042dc:	f7ff f890 	bl	10003400 <__wrap___aeabi_dcmpgt>
100042e0:	2800      	cmp	r0, #0
100042e2:	d000      	beq.n	100042e6 <_ftoa+0x52>
100042e4:	e0a7      	b.n	10004436 <_ftoa+0x1a2>
100042e6:	981e      	ldr	r0, [sp, #120]	@ 0x78
100042e8:	991f      	ldr	r1, [sp, #124]	@ 0x7c
100042ea:	2200      	movs	r2, #0
100042ec:	4bbf      	ldr	r3, [pc, #764]	@ (100045ec <_ftoa+0x358>)
100042ee:	f7ff f887 	bl	10003400 <__wrap___aeabi_dcmpgt>
100042f2:	2800      	cmp	r0, #0
100042f4:	d000      	beq.n	100042f8 <_ftoa+0x64>
100042f6:	e088      	b.n	1000440a <_ftoa+0x176>
100042f8:	981e      	ldr	r0, [sp, #120]	@ 0x78
100042fa:	991f      	ldr	r1, [sp, #124]	@ 0x7c
100042fc:	2200      	movs	r2, #0
100042fe:	4bbc      	ldr	r3, [pc, #752]	@ (100045f0 <_ftoa+0x35c>)
10004300:	f7ff f870 	bl	100033e4 <__wrap___aeabi_dcmplt>
10004304:	2800      	cmp	r0, #0
10004306:	d000      	beq.n	1000430a <_ftoa+0x76>
10004308:	e07f      	b.n	1000440a <_ftoa+0x176>
1000430a:	981e      	ldr	r0, [sp, #120]	@ 0x78
1000430c:	991f      	ldr	r1, [sp, #124]	@ 0x7c
1000430e:	2200      	movs	r2, #0
10004310:	2300      	movs	r3, #0
10004312:	f7ff f867 	bl	100033e4 <__wrap___aeabi_dcmplt>
10004316:	2800      	cmp	r0, #0
10004318:	d000      	beq.n	1000431c <_ftoa+0x88>
1000431a:	e0fa      	b.n	10004512 <_ftoa+0x27e>
1000431c:	2300      	movs	r3, #0
1000431e:	930b      	str	r3, [sp, #44]	@ 0x2c
10004320:	2380      	movs	r3, #128	@ 0x80
10004322:	9c22      	ldr	r4, [sp, #136]	@ 0x88
10004324:	9a22      	ldr	r2, [sp, #136]	@ 0x88
10004326:	00db      	lsls	r3, r3, #3
10004328:	401c      	ands	r4, r3
1000432a:	421a      	tst	r2, r3
1000432c:	d100      	bne.n	10004330 <_ftoa+0x9c>
1000432e:	e102      	b.n	10004536 <_ftoa+0x2a2>
10004330:	2d09      	cmp	r5, #9
10004332:	d800      	bhi.n	10004336 <_ftoa+0xa2>
10004334:	e17e      	b.n	10004634 <_ftoa+0x3a0>
10004336:	a906      	add	r1, sp, #24
10004338:	468c      	mov	ip, r1
1000433a:	002c      	movs	r4, r5
1000433c:	2217      	movs	r2, #23
1000433e:	2300      	movs	r3, #0
10004340:	2130      	movs	r1, #48	@ 0x30
10004342:	3c09      	subs	r4, #9
10004344:	4462      	add	r2, ip
10004346:	3301      	adds	r3, #1
10004348:	54d1      	strb	r1, [r2, r3]
1000434a:	1aef      	subs	r7, r5, r3
1000434c:	2b20      	cmp	r3, #32
1000434e:	d100      	bne.n	10004352 <_ftoa+0xbe>
10004350:	e132      	b.n	100045b8 <_ftoa+0x324>
10004352:	42a3      	cmp	r3, r4
10004354:	d1f7      	bne.n	10004346 <_ftoa+0xb2>
10004356:	2200      	movs	r2, #0
10004358:	4ba4      	ldr	r3, [pc, #656]	@ (100045ec <_ftoa+0x358>)
1000435a:	9206      	str	r2, [sp, #24]
1000435c:	9307      	str	r3, [sp, #28]
1000435e:	981e      	ldr	r0, [sp, #120]	@ 0x78
10004360:	991f      	ldr	r1, [sp, #124]	@ 0x7c
10004362:	f7ff f87b 	bl	1000345c <__wrap___aeabi_d2iz>
10004366:	0005      	movs	r5, r0
10004368:	f7ff f860 	bl	1000342c <__wrap___aeabi_i2d>
1000436c:	0002      	movs	r2, r0
1000436e:	000b      	movs	r3, r1
10004370:	981e      	ldr	r0, [sp, #120]	@ 0x78
10004372:	991f      	ldr	r1, [sp, #124]	@ 0x7c
10004374:	f7fe ffc3 	bl	100032fe <__wrap___aeabi_dsub>
10004378:	9a06      	ldr	r2, [sp, #24]
1000437a:	9b07      	ldr	r3, [sp, #28]
1000437c:	f7fe ffef 	bl	1000335e <__wrap___aeabi_dmul>
10004380:	9008      	str	r0, [sp, #32]
10004382:	9109      	str	r1, [sp, #36]	@ 0x24
10004384:	f7ff f88e 	bl	100034a4 <__wrap___aeabi_d2uiz>
10004388:	0006      	movs	r6, r0
1000438a:	f7ff f84b 	bl	10003424 <__wrap___aeabi_ui2d>
1000438e:	0002      	movs	r2, r0
10004390:	000b      	movs	r3, r1
10004392:	9808      	ldr	r0, [sp, #32]
10004394:	9909      	ldr	r1, [sp, #36]	@ 0x24
10004396:	f7fe ffb2 	bl	100032fe <__wrap___aeabi_dsub>
1000439a:	2200      	movs	r2, #0
1000439c:	4b95      	ldr	r3, [pc, #596]	@ (100045f4 <_ftoa+0x360>)
1000439e:	9008      	str	r0, [sp, #32]
100043a0:	9109      	str	r1, [sp, #36]	@ 0x24
100043a2:	f7ff f82d 	bl	10003400 <__wrap___aeabi_dcmpgt>
100043a6:	2800      	cmp	r0, #0
100043a8:	d100      	bne.n	100043ac <_ftoa+0x118>
100043aa:	e0d2      	b.n	10004552 <_ftoa+0x2be>
100043ac:	3601      	adds	r6, #1
100043ae:	0030      	movs	r0, r6
100043b0:	f7ff f838 	bl	10003424 <__wrap___aeabi_ui2d>
100043b4:	9a06      	ldr	r2, [sp, #24]
100043b6:	9b07      	ldr	r3, [sp, #28]
100043b8:	f7ff f81a 	bl	100033f0 <__wrap___aeabi_dcmpge>
100043bc:	2800      	cmp	r0, #0
100043be:	d001      	beq.n	100043c4 <_ftoa+0x130>
100043c0:	2600      	movs	r6, #0
100043c2:	3501      	adds	r5, #1
100043c4:	46aa      	mov	sl, r5
100043c6:	2f00      	cmp	r7, #0
100043c8:	d000      	beq.n	100043cc <_ftoa+0x138>
100043ca:	e098      	b.n	100044fe <_ftoa+0x26a>
100043cc:	0028      	movs	r0, r5
100043ce:	f7ff f82d 	bl	1000342c <__wrap___aeabi_i2d>
100043d2:	0002      	movs	r2, r0
100043d4:	000b      	movs	r3, r1
100043d6:	981e      	ldr	r0, [sp, #120]	@ 0x78
100043d8:	991f      	ldr	r1, [sp, #124]	@ 0x7c
100043da:	f7fe ff90 	bl	100032fe <__wrap___aeabi_dsub>
100043de:	4b85      	ldr	r3, [pc, #532]	@ (100045f4 <_ftoa+0x360>)
100043e0:	2200      	movs	r2, #0
100043e2:	0006      	movs	r6, r0
100043e4:	000f      	movs	r7, r1
100043e6:	f7fe fffd 	bl	100033e4 <__wrap___aeabi_dcmplt>
100043ea:	ab0c      	add	r3, sp, #48	@ 0x30
100043ec:	469a      	mov	sl, r3
100043ee:	2800      	cmp	r0, #0
100043f0:	d145      	bne.n	1000447e <_ftoa+0x1ea>
100043f2:	2200      	movs	r2, #0
100043f4:	0030      	movs	r0, r6
100043f6:	0039      	movs	r1, r7
100043f8:	4b7e      	ldr	r3, [pc, #504]	@ (100045f4 <_ftoa+0x360>)
100043fa:	f7ff f801 	bl	10003400 <__wrap___aeabi_dcmpgt>
100043fe:	2800      	cmp	r0, #0
10004400:	d13d      	bne.n	1000447e <_ftoa+0x1ea>
10004402:	07eb      	lsls	r3, r5, #31
10004404:	d53b      	bpl.n	1000447e <_ftoa+0x1ea>
10004406:	3501      	adds	r5, #1
10004408:	e039      	b.n	1000447e <_ftoa+0x1ea>
1000440a:	9b22      	ldr	r3, [sp, #136]	@ 0x88
1000440c:	4642      	mov	r2, r8
1000440e:	9304      	str	r3, [sp, #16]
10004410:	9b21      	ldr	r3, [sp, #132]	@ 0x84
10004412:	4659      	mov	r1, fp
10004414:	9303      	str	r3, [sp, #12]
10004416:	980a      	ldr	r0, [sp, #40]	@ 0x28
10004418:	9b1e      	ldr	r3, [sp, #120]	@ 0x78
1000441a:	9c1f      	ldr	r4, [sp, #124]	@ 0x7c
1000441c:	9502      	str	r5, [sp, #8]
1000441e:	9300      	str	r3, [sp, #0]
10004420:	9401      	str	r4, [sp, #4]
10004422:	464b      	mov	r3, r9
10004424:	f7ff fd0c 	bl	10003e40 <_etoa>
10004428:	b015      	add	sp, #84	@ 0x54
1000442a:	bcf0      	pop	{r4, r5, r6, r7}
1000442c:	46bb      	mov	fp, r7
1000442e:	46b2      	mov	sl, r6
10004430:	46a9      	mov	r9, r5
10004432:	46a0      	mov	r8, r4
10004434:	bdf0      	pop	{r4, r5, r6, r7, pc}
10004436:	9b22      	ldr	r3, [sp, #136]	@ 0x88
10004438:	075b      	lsls	r3, r3, #29
1000443a:	d467      	bmi.n	1000450c <_ftoa+0x278>
1000443c:	2203      	movs	r2, #3
1000443e:	4b6e      	ldr	r3, [pc, #440]	@ (100045f8 <_ftoa+0x364>)
10004440:	9922      	ldr	r1, [sp, #136]	@ 0x88
10004442:	9201      	str	r2, [sp, #4]
10004444:	9103      	str	r1, [sp, #12]
10004446:	9921      	ldr	r1, [sp, #132]	@ 0x84
10004448:	9102      	str	r1, [sp, #8]
1000444a:	9300      	str	r3, [sp, #0]
1000444c:	4642      	mov	r2, r8
1000444e:	464b      	mov	r3, r9
10004450:	4659      	mov	r1, fp
10004452:	980a      	ldr	r0, [sp, #40]	@ 0x28
10004454:	f7ff fbaa 	bl	10003bac <_out_rev>
10004458:	e7e6      	b.n	10004428 <_ftoa+0x194>
1000445a:	aa06      	add	r2, sp, #24
1000445c:	4694      	mov	ip, r2
1000445e:	2317      	movs	r3, #23
10004460:	0028      	movs	r0, r5
10004462:	4463      	add	r3, ip
10004464:	210a      	movs	r1, #10
10004466:	3401      	adds	r4, #1
10004468:	191e      	adds	r6, r3, r4
1000446a:	f7fe fce5 	bl	10002e38 <__wrap___aeabi_idiv>
1000446e:	3130      	adds	r1, #48	@ 0x30
10004470:	0028      	movs	r0, r5
10004472:	7031      	strb	r1, [r6, #0]
10004474:	210a      	movs	r1, #10
10004476:	f7fe fcdf 	bl	10002e38 <__wrap___aeabi_idiv>
1000447a:	1e05      	subs	r5, r0, #0
1000447c:	d076      	beq.n	1000456c <_ftoa+0x2d8>
1000447e:	2c20      	cmp	r4, #32
10004480:	d1eb      	bne.n	1000445a <_ftoa+0x1c6>
10004482:	2303      	movs	r3, #3
10004484:	9a22      	ldr	r2, [sp, #136]	@ 0x88
10004486:	4013      	ands	r3, r2
10004488:	2b01      	cmp	r3, #1
1000448a:	d11d      	bne.n	100044c8 <_ftoa+0x234>
1000448c:	9b21      	ldr	r3, [sp, #132]	@ 0x84
1000448e:	2b00      	cmp	r3, #0
10004490:	d01a      	beq.n	100044c8 <_ftoa+0x234>
10004492:	9b0b      	ldr	r3, [sp, #44]	@ 0x2c
10004494:	2b00      	cmp	r3, #0
10004496:	d000      	beq.n	1000449a <_ftoa+0x206>
10004498:	e0bb      	b.n	10004612 <_ftoa+0x37e>
1000449a:	9a22      	ldr	r2, [sp, #136]	@ 0x88
1000449c:	330c      	adds	r3, #12
1000449e:	4213      	tst	r3, r2
100044a0:	d000      	beq.n	100044a4 <_ftoa+0x210>
100044a2:	e0b6      	b.n	10004612 <_ftoa+0x37e>
100044a4:	9b21      	ldr	r3, [sp, #132]	@ 0x84
100044a6:	42a3      	cmp	r3, r4
100044a8:	d800      	bhi.n	100044ac <_ftoa+0x218>
100044aa:	e087      	b.n	100045bc <_ftoa+0x328>
100044ac:	ab06      	add	r3, sp, #24
100044ae:	469c      	mov	ip, r3
100044b0:	2217      	movs	r2, #23
100044b2:	2330      	movs	r3, #48	@ 0x30
100044b4:	4462      	add	r2, ip
100044b6:	e004      	b.n	100044c2 <_ftoa+0x22e>
100044b8:	9921      	ldr	r1, [sp, #132]	@ 0x84
100044ba:	3401      	adds	r4, #1
100044bc:	5513      	strb	r3, [r2, r4]
100044be:	428c      	cmp	r4, r1
100044c0:	d059      	beq.n	10004576 <_ftoa+0x2e2>
100044c2:	2c20      	cmp	r4, #32
100044c4:	d1f8      	bne.n	100044b8 <_ftoa+0x224>
100044c6:	2420      	movs	r4, #32
100044c8:	9b22      	ldr	r3, [sp, #136]	@ 0x88
100044ca:	9401      	str	r4, [sp, #4]
100044cc:	9303      	str	r3, [sp, #12]
100044ce:	9b21      	ldr	r3, [sp, #132]	@ 0x84
100044d0:	9302      	str	r3, [sp, #8]
100044d2:	4653      	mov	r3, sl
100044d4:	e7b9      	b.n	1000444a <_ftoa+0x1b6>
100044d6:	aa06      	add	r2, sp, #24
100044d8:	4694      	mov	ip, r2
100044da:	2317      	movs	r3, #23
100044dc:	210a      	movs	r1, #10
100044de:	4463      	add	r3, ip
100044e0:	0030      	movs	r0, r6
100044e2:	3401      	adds	r4, #1
100044e4:	191d      	adds	r5, r3, r4
100044e6:	f7fe fccf 	bl	10002e88 <__wrap___aeabi_uidiv>
100044ea:	3130      	adds	r1, #48	@ 0x30
100044ec:	7029      	strb	r1, [r5, #0]
100044ee:	0030      	movs	r0, r6
100044f0:	210a      	movs	r1, #10
100044f2:	3f01      	subs	r7, #1
100044f4:	f7fe fcc8 	bl	10002e88 <__wrap___aeabi_uidiv>
100044f8:	2e09      	cmp	r6, #9
100044fa:	d946      	bls.n	1000458a <_ftoa+0x2f6>
100044fc:	0006      	movs	r6, r0
100044fe:	2c20      	cmp	r4, #32
10004500:	d1e9      	bne.n	100044d6 <_ftoa+0x242>
10004502:	4655      	mov	r5, sl
10004504:	ab0c      	add	r3, sp, #48	@ 0x30
10004506:	2420      	movs	r4, #32
10004508:	469a      	mov	sl, r3
1000450a:	e7b8      	b.n	1000447e <_ftoa+0x1ea>
1000450c:	2204      	movs	r2, #4
1000450e:	4b3b      	ldr	r3, [pc, #236]	@ (100045fc <_ftoa+0x368>)
10004510:	e796      	b.n	10004440 <_ftoa+0x1ac>
10004512:	9a1e      	ldr	r2, [sp, #120]	@ 0x78
10004514:	9b1f      	ldr	r3, [sp, #124]	@ 0x7c
10004516:	2000      	movs	r0, #0
10004518:	2100      	movs	r1, #0
1000451a:	f7fe fef0 	bl	100032fe <__wrap___aeabi_dsub>
1000451e:	2301      	movs	r3, #1
10004520:	930b      	str	r3, [sp, #44]	@ 0x2c
10004522:	2380      	movs	r3, #128	@ 0x80
10004524:	9c22      	ldr	r4, [sp, #136]	@ 0x88
10004526:	9a22      	ldr	r2, [sp, #136]	@ 0x88
10004528:	00db      	lsls	r3, r3, #3
1000452a:	901e      	str	r0, [sp, #120]	@ 0x78
1000452c:	911f      	str	r1, [sp, #124]	@ 0x7c
1000452e:	401c      	ands	r4, r3
10004530:	421a      	tst	r2, r3
10004532:	d000      	beq.n	10004536 <_ftoa+0x2a2>
10004534:	e6fc      	b.n	10004330 <_ftoa+0x9c>
10004536:	2200      	movs	r2, #0
10004538:	4b31      	ldr	r3, [pc, #196]	@ (10004600 <_ftoa+0x36c>)
1000453a:	2706      	movs	r7, #6
1000453c:	9206      	str	r2, [sp, #24]
1000453e:	9307      	str	r3, [sp, #28]
10004540:	e70d      	b.n	1000435e <_ftoa+0xca>
10004542:	9b22      	ldr	r3, [sp, #136]	@ 0x88
10004544:	9303      	str	r3, [sp, #12]
10004546:	9b21      	ldr	r3, [sp, #132]	@ 0x84
10004548:	9302      	str	r3, [sp, #8]
1000454a:	2304      	movs	r3, #4
1000454c:	9301      	str	r3, [sp, #4]
1000454e:	4b2d      	ldr	r3, [pc, #180]	@ (10004604 <_ftoa+0x370>)
10004550:	e77b      	b.n	1000444a <_ftoa+0x1b6>
10004552:	2200      	movs	r2, #0
10004554:	9808      	ldr	r0, [sp, #32]
10004556:	9909      	ldr	r1, [sp, #36]	@ 0x24
10004558:	4b26      	ldr	r3, [pc, #152]	@ (100045f4 <_ftoa+0x360>)
1000455a:	f7fe ff43 	bl	100033e4 <__wrap___aeabi_dcmplt>
1000455e:	2800      	cmp	r0, #0
10004560:	d000      	beq.n	10004564 <_ftoa+0x2d0>
10004562:	e72f      	b.n	100043c4 <_ftoa+0x130>
10004564:	2e00      	cmp	r6, #0
10004566:	d14f      	bne.n	10004608 <_ftoa+0x374>
10004568:	3601      	adds	r6, #1
1000456a:	e72b      	b.n	100043c4 <_ftoa+0x130>
1000456c:	2303      	movs	r3, #3
1000456e:	9a22      	ldr	r2, [sp, #136]	@ 0x88
10004570:	4013      	ands	r3, r2
10004572:	2b01      	cmp	r3, #1
10004574:	d068      	beq.n	10004648 <_ftoa+0x3b4>
10004576:	2c20      	cmp	r4, #32
10004578:	d0a6      	beq.n	100044c8 <_ftoa+0x234>
1000457a:	9b0b      	ldr	r3, [sp, #44]	@ 0x2c
1000457c:	2b00      	cmp	r3, #0
1000457e:	d01f      	beq.n	100045c0 <_ftoa+0x32c>
10004580:	232d      	movs	r3, #45	@ 0x2d
10004582:	4652      	mov	r2, sl
10004584:	5513      	strb	r3, [r2, r4]
10004586:	3401      	adds	r4, #1
10004588:	e79e      	b.n	100044c8 <_ftoa+0x234>
1000458a:	4655      	mov	r5, sl
1000458c:	2c20      	cmp	r4, #32
1000458e:	d0b9      	beq.n	10004504 <_ftoa+0x270>
10004590:	2230      	movs	r2, #48	@ 0x30
10004592:	193b      	adds	r3, r7, r4
10004594:	2f00      	cmp	r7, #0
10004596:	d04b      	beq.n	10004630 <_ftoa+0x39c>
10004598:	2017      	movs	r0, #23
1000459a:	a906      	add	r1, sp, #24
1000459c:	3401      	adds	r4, #1
1000459e:	1809      	adds	r1, r1, r0
100045a0:	550a      	strb	r2, [r1, r4]
100045a2:	2c20      	cmp	r4, #32
100045a4:	d0ae      	beq.n	10004504 <_ftoa+0x270>
100045a6:	429c      	cmp	r4, r3
100045a8:	d1f6      	bne.n	10004598 <_ftoa+0x304>
100045aa:	aa0c      	add	r2, sp, #48	@ 0x30
100045ac:	4692      	mov	sl, r2
100045ae:	222e      	movs	r2, #46	@ 0x2e
100045b0:	4651      	mov	r1, sl
100045b2:	1c5c      	adds	r4, r3, #1
100045b4:	54ca      	strb	r2, [r1, r3]
100045b6:	e762      	b.n	1000447e <_ftoa+0x1ea>
100045b8:	2420      	movs	r4, #32
100045ba:	e6cc      	b.n	10004356 <_ftoa+0xc2>
100045bc:	2c20      	cmp	r4, #32
100045be:	d083      	beq.n	100044c8 <_ftoa+0x234>
100045c0:	9b22      	ldr	r3, [sp, #136]	@ 0x88
100045c2:	075b      	lsls	r3, r3, #29
100045c4:	d408      	bmi.n	100045d8 <_ftoa+0x344>
100045c6:	9b22      	ldr	r3, [sp, #136]	@ 0x88
100045c8:	071b      	lsls	r3, r3, #28
100045ca:	d400      	bmi.n	100045ce <_ftoa+0x33a>
100045cc:	e77c      	b.n	100044c8 <_ftoa+0x234>
100045ce:	2320      	movs	r3, #32
100045d0:	4652      	mov	r2, sl
100045d2:	5513      	strb	r3, [r2, r4]
100045d4:	3401      	adds	r4, #1
100045d6:	e777      	b.n	100044c8 <_ftoa+0x234>
100045d8:	232b      	movs	r3, #43	@ 0x2b
100045da:	4652      	mov	r2, sl
100045dc:	5513      	strb	r3, [r2, r4]
100045de:	3401      	adds	r4, #1
100045e0:	e772      	b.n	100044c8 <_ftoa+0x234>
100045e2:	46c0      	nop			@ (mov r8, r8)
100045e4:	ffefffff 	.word	0xffefffff
100045e8:	7fefffff 	.word	0x7fefffff
100045ec:	41cdcd65 	.word	0x41cdcd65
100045f0:	c1cdcd65 	.word	0xc1cdcd65
100045f4:	3fe00000 	.word	0x3fe00000
100045f8:	1000614c 	.word	0x1000614c
100045fc:	10006144 	.word	0x10006144
10004600:	412e8480 	.word	0x412e8480
10004604:	10006154 	.word	0x10006154
10004608:	07f3      	lsls	r3, r6, #31
1000460a:	d400      	bmi.n	1000460e <_ftoa+0x37a>
1000460c:	e6da      	b.n	100043c4 <_ftoa+0x130>
1000460e:	3601      	adds	r6, #1
10004610:	e6d8      	b.n	100043c4 <_ftoa+0x130>
10004612:	9b21      	ldr	r3, [sp, #132]	@ 0x84
10004614:	3b01      	subs	r3, #1
10004616:	9321      	str	r3, [sp, #132]	@ 0x84
10004618:	42a3      	cmp	r3, r4
1000461a:	d900      	bls.n	1000461e <_ftoa+0x38a>
1000461c:	e746      	b.n	100044ac <_ftoa+0x218>
1000461e:	e7aa      	b.n	10004576 <_ftoa+0x2e2>
10004620:	9b22      	ldr	r3, [sp, #136]	@ 0x88
10004622:	9303      	str	r3, [sp, #12]
10004624:	9b21      	ldr	r3, [sp, #132]	@ 0x84
10004626:	9302      	str	r3, [sp, #8]
10004628:	2303      	movs	r3, #3
1000462a:	9301      	str	r3, [sp, #4]
1000462c:	4b08      	ldr	r3, [pc, #32]	@ (10004650 <_ftoa+0x3bc>)
1000462e:	e70c      	b.n	1000444a <_ftoa+0x1b6>
10004630:	0023      	movs	r3, r4
10004632:	e7ba      	b.n	100045aa <_ftoa+0x316>
10004634:	4b07      	ldr	r3, [pc, #28]	@ (10004654 <_ftoa+0x3c0>)
10004636:	00ea      	lsls	r2, r5, #3
10004638:	189b      	adds	r3, r3, r2
1000463a:	685c      	ldr	r4, [r3, #4]
1000463c:	681b      	ldr	r3, [r3, #0]
1000463e:	002f      	movs	r7, r5
10004640:	9306      	str	r3, [sp, #24]
10004642:	9407      	str	r4, [sp, #28]
10004644:	2400      	movs	r4, #0
10004646:	e68a      	b.n	1000435e <_ftoa+0xca>
10004648:	9b21      	ldr	r3, [sp, #132]	@ 0x84
1000464a:	2b00      	cmp	r3, #0
1000464c:	d093      	beq.n	10004576 <_ftoa+0x2e2>
1000464e:	e720      	b.n	10004492 <_ftoa+0x1fe>
10004650:	10006150 	.word	0x10006150
10004654:	100062f8 	.word	0x100062f8

10004658 <_vsnprintf>:
10004658:	b5f0      	push	{r4, r5, r6, r7, lr}
1000465a:	46de      	mov	lr, fp
1000465c:	4657      	mov	r7, sl
1000465e:	464e      	mov	r6, r9
10004660:	4645      	mov	r5, r8
10004662:	b5e0      	push	{r5, r6, r7, lr}
10004664:	b09f      	sub	sp, #124	@ 0x7c
10004666:	001c      	movs	r4, r3
10004668:	9b28      	ldr	r3, [sp, #160]	@ 0xa0
1000466a:	4693      	mov	fp, r2
1000466c:	930a      	str	r3, [sp, #40]	@ 0x28
1000466e:	4acc      	ldr	r2, [pc, #816]	@ (100049a0 <_vsnprintf+0x348>)
10004670:	4bcc      	ldr	r3, [pc, #816]	@ (100049a4 <_vsnprintf+0x34c>)
10004672:	468a      	mov	sl, r1
10004674:	9009      	str	r0, [sp, #36]	@ 0x24
10004676:	601a      	str	r2, [r3, #0]
10004678:	2900      	cmp	r1, #0
1000467a:	d100      	bne.n	1000467e <_vsnprintf+0x26>
1000467c:	e14d      	b.n	1000491a <_vsnprintf+0x2c2>
1000467e:	2300      	movs	r3, #0
10004680:	7820      	ldrb	r0, [r4, #0]
10004682:	4699      	mov	r9, r3
10004684:	2800      	cmp	r0, #0
10004686:	d100      	bne.n	1000468a <_vsnprintf+0x32>
10004688:	e14f      	b.n	1000492a <_vsnprintf+0x2d2>
1000468a:	4bc7      	ldr	r3, [pc, #796]	@ (100049a8 <_vsnprintf+0x350>)
1000468c:	464d      	mov	r5, r9
1000468e:	9308      	str	r3, [sp, #32]
10004690:	4bc6      	ldr	r3, [pc, #792]	@ (100049ac <_vsnprintf+0x354>)
10004692:	930d      	str	r3, [sp, #52]	@ 0x34
10004694:	e00a      	b.n	100046ac <_vsnprintf+0x54>
10004696:	002a      	movs	r2, r5
10004698:	1c6e      	adds	r6, r5, #1
1000469a:	465b      	mov	r3, fp
1000469c:	9d09      	ldr	r5, [sp, #36]	@ 0x24
1000469e:	4651      	mov	r1, sl
100046a0:	47a8      	blx	r5
100046a2:	0035      	movs	r5, r6
100046a4:	3401      	adds	r4, #1
100046a6:	7820      	ldrb	r0, [r4, #0]
100046a8:	2800      	cmp	r0, #0
100046aa:	d072      	beq.n	10004792 <_vsnprintf+0x13a>
100046ac:	2825      	cmp	r0, #37	@ 0x25
100046ae:	d1f2      	bne.n	10004696 <_vsnprintf+0x3e>
100046b0:	2310      	movs	r3, #16
100046b2:	4699      	mov	r9, r3
100046b4:	3b08      	subs	r3, #8
100046b6:	4698      	mov	r8, r3
100046b8:	3b04      	subs	r3, #4
100046ba:	2100      	movs	r1, #0
100046bc:	469c      	mov	ip, r3
100046be:	2702      	movs	r7, #2
100046c0:	3401      	adds	r4, #1
100046c2:	7820      	ldrb	r0, [r4, #0]
100046c4:	0026      	movs	r6, r4
100046c6:	0003      	movs	r3, r0
100046c8:	3b20      	subs	r3, #32
100046ca:	b2db      	uxtb	r3, r3
100046cc:	2b10      	cmp	r3, #16
100046ce:	d803      	bhi.n	100046d8 <_vsnprintf+0x80>
100046d0:	9a08      	ldr	r2, [sp, #32]
100046d2:	009b      	lsls	r3, r3, #2
100046d4:	58d3      	ldr	r3, [r2, r3]
100046d6:	469f      	mov	pc, r3
100046d8:	0003      	movs	r3, r0
100046da:	3b30      	subs	r3, #48	@ 0x30
100046dc:	2b09      	cmp	r3, #9
100046de:	d96e      	bls.n	100047be <_vsnprintf+0x166>
100046e0:	2700      	movs	r7, #0
100046e2:	282a      	cmp	r0, #42	@ 0x2a
100046e4:	d100      	bne.n	100046e8 <_vsnprintf+0x90>
100046e6:	e08a      	b.n	100047fe <_vsnprintf+0x1a6>
100046e8:	2300      	movs	r3, #0
100046ea:	930b      	str	r3, [sp, #44]	@ 0x2c
100046ec:	282e      	cmp	r0, #46	@ 0x2e
100046ee:	d100      	bne.n	100046f2 <_vsnprintf+0x9a>
100046f0:	e076      	b.n	100047e0 <_vsnprintf+0x188>
100046f2:	0003      	movs	r3, r0
100046f4:	3b68      	subs	r3, #104	@ 0x68
100046f6:	b2db      	uxtb	r3, r3
100046f8:	2b12      	cmp	r3, #18
100046fa:	d81b      	bhi.n	10004734 <_vsnprintf+0xdc>
100046fc:	4cac      	ldr	r4, [pc, #688]	@ (100049b0 <_vsnprintf+0x358>)
100046fe:	009b      	lsls	r3, r3, #2
10004700:	58e3      	ldr	r3, [r4, r3]
10004702:	469f      	mov	pc, r3
10004704:	2301      	movs	r3, #1
10004706:	3401      	adds	r4, #1
10004708:	4319      	orrs	r1, r3
1000470a:	e7da      	b.n	100046c2 <_vsnprintf+0x6a>
1000470c:	4339      	orrs	r1, r7
1000470e:	3401      	adds	r4, #1
10004710:	e7d7      	b.n	100046c2 <_vsnprintf+0x6a>
10004712:	4663      	mov	r3, ip
10004714:	3401      	adds	r4, #1
10004716:	4319      	orrs	r1, r3
10004718:	e7d3      	b.n	100046c2 <_vsnprintf+0x6a>
1000471a:	464b      	mov	r3, r9
1000471c:	3401      	adds	r4, #1
1000471e:	4319      	orrs	r1, r3
10004720:	e7cf      	b.n	100046c2 <_vsnprintf+0x6a>
10004722:	4643      	mov	r3, r8
10004724:	3401      	adds	r4, #1
10004726:	4319      	orrs	r1, r3
10004728:	e7cb      	b.n	100046c2 <_vsnprintf+0x6a>
1000472a:	2380      	movs	r3, #128	@ 0x80
1000472c:	005b      	lsls	r3, r3, #1
1000472e:	7870      	ldrb	r0, [r6, #1]
10004730:	4319      	orrs	r1, r3
10004732:	3601      	adds	r6, #1
10004734:	2867      	cmp	r0, #103	@ 0x67
10004736:	d80a      	bhi.n	1000474e <_vsnprintf+0xf6>
10004738:	2824      	cmp	r0, #36	@ 0x24
1000473a:	d91f      	bls.n	1000477c <_vsnprintf+0x124>
1000473c:	0003      	movs	r3, r0
1000473e:	3b25      	subs	r3, #37	@ 0x25
10004740:	b2db      	uxtb	r3, r3
10004742:	2b42      	cmp	r3, #66	@ 0x42
10004744:	d81a      	bhi.n	1000477c <_vsnprintf+0x124>
10004746:	9a0d      	ldr	r2, [sp, #52]	@ 0x34
10004748:	009b      	lsls	r3, r3, #2
1000474a:	58d3      	ldr	r3, [r2, r3]
1000474c:	469f      	mov	pc, r3
1000474e:	0003      	movs	r3, r0
10004750:	3b69      	subs	r3, #105	@ 0x69
10004752:	b2db      	uxtb	r3, r3
10004754:	2b0f      	cmp	r3, #15
10004756:	d811      	bhi.n	1000477c <_vsnprintf+0x124>
10004758:	2401      	movs	r4, #1
1000475a:	409c      	lsls	r4, r3
1000475c:	4a95      	ldr	r2, [pc, #596]	@ (100049b4 <_vsnprintf+0x35c>)
1000475e:	46a4      	mov	ip, r4
10004760:	4690      	mov	r8, r2
10004762:	4014      	ands	r4, r2
10004764:	940c      	str	r4, [sp, #48]	@ 0x30
10004766:	4662      	mov	r2, ip
10004768:	4644      	mov	r4, r8
1000476a:	4222      	tst	r2, r4
1000476c:	d000      	beq.n	10004770 <_vsnprintf+0x118>
1000476e:	e225      	b.n	10004bbc <_vsnprintf+0x564>
10004770:	2b0a      	cmp	r3, #10
10004772:	d100      	bne.n	10004776 <_vsnprintf+0x11e>
10004774:	e101      	b.n	1000497a <_vsnprintf+0x322>
10004776:	2b07      	cmp	r3, #7
10004778:	d100      	bne.n	1000477c <_vsnprintf+0x124>
1000477a:	e0d8      	b.n	1000492e <_vsnprintf+0x2d6>
1000477c:	9c09      	ldr	r4, [sp, #36]	@ 0x24
1000477e:	002a      	movs	r2, r5
10004780:	465b      	mov	r3, fp
10004782:	4651      	mov	r1, sl
10004784:	47a0      	blx	r4
10004786:	7870      	ldrb	r0, [r6, #1]
10004788:	1c6f      	adds	r7, r5, #1
1000478a:	1c74      	adds	r4, r6, #1
1000478c:	003d      	movs	r5, r7
1000478e:	2800      	cmp	r0, #0
10004790:	d18c      	bne.n	100046ac <_vsnprintf+0x54>
10004792:	46a9      	mov	r9, r5
10004794:	002c      	movs	r4, r5
10004796:	45cb      	cmp	fp, r9
10004798:	d803      	bhi.n	100047a2 <_vsnprintf+0x14a>
1000479a:	2301      	movs	r3, #1
1000479c:	425b      	negs	r3, r3
1000479e:	445b      	add	r3, fp
100047a0:	4699      	mov	r9, r3
100047a2:	465b      	mov	r3, fp
100047a4:	464a      	mov	r2, r9
100047a6:	4651      	mov	r1, sl
100047a8:	2000      	movs	r0, #0
100047aa:	9d09      	ldr	r5, [sp, #36]	@ 0x24
100047ac:	47a8      	blx	r5
100047ae:	0020      	movs	r0, r4
100047b0:	b01f      	add	sp, #124	@ 0x7c
100047b2:	bcf0      	pop	{r4, r5, r6, r7}
100047b4:	46bb      	mov	fp, r7
100047b6:	46b2      	mov	sl, r6
100047b8:	46a9      	mov	r9, r5
100047ba:	46a0      	mov	r8, r4
100047bc:	bdf0      	pop	{r4, r5, r6, r7, pc}
100047be:	2700      	movs	r7, #0
100047c0:	00bb      	lsls	r3, r7, #2
100047c2:	19df      	adds	r7, r3, r7
100047c4:	3601      	adds	r6, #1
100047c6:	007f      	lsls	r7, r7, #1
100047c8:	183f      	adds	r7, r7, r0
100047ca:	7830      	ldrb	r0, [r6, #0]
100047cc:	3f30      	subs	r7, #48	@ 0x30
100047ce:	0003      	movs	r3, r0
100047d0:	3b30      	subs	r3, #48	@ 0x30
100047d2:	2b09      	cmp	r3, #9
100047d4:	d9f4      	bls.n	100047c0 <_vsnprintf+0x168>
100047d6:	2300      	movs	r3, #0
100047d8:	930b      	str	r3, [sp, #44]	@ 0x2c
100047da:	282e      	cmp	r0, #46	@ 0x2e
100047dc:	d000      	beq.n	100047e0 <_vsnprintf+0x188>
100047de:	e788      	b.n	100046f2 <_vsnprintf+0x9a>
100047e0:	2380      	movs	r3, #128	@ 0x80
100047e2:	7870      	ldrb	r0, [r6, #1]
100047e4:	00db      	lsls	r3, r3, #3
100047e6:	4319      	orrs	r1, r3
100047e8:	0003      	movs	r3, r0
100047ea:	3b30      	subs	r3, #48	@ 0x30
100047ec:	1c74      	adds	r4, r6, #1
100047ee:	2b09      	cmp	r3, #9
100047f0:	d800      	bhi.n	100047f4 <_vsnprintf+0x19c>
100047f2:	e12c      	b.n	10004a4e <_vsnprintf+0x3f6>
100047f4:	282a      	cmp	r0, #42	@ 0x2a
100047f6:	d100      	bne.n	100047fa <_vsnprintf+0x1a2>
100047f8:	e138      	b.n	10004a6c <_vsnprintf+0x414>
100047fa:	0026      	movs	r6, r4
100047fc:	e779      	b.n	100046f2 <_vsnprintf+0x9a>
100047fe:	9b0a      	ldr	r3, [sp, #40]	@ 0x28
10004800:	cb80      	ldmia	r3!, {r7}
10004802:	2f00      	cmp	r7, #0
10004804:	db03      	blt.n	1000480e <_vsnprintf+0x1b6>
10004806:	7860      	ldrb	r0, [r4, #1]
10004808:	930a      	str	r3, [sp, #40]	@ 0x28
1000480a:	1c66      	adds	r6, r4, #1
1000480c:	e76c      	b.n	100046e8 <_vsnprintf+0x90>
1000480e:	2202      	movs	r2, #2
10004810:	7860      	ldrb	r0, [r4, #1]
10004812:	4311      	orrs	r1, r2
10004814:	427f      	negs	r7, r7
10004816:	930a      	str	r3, [sp, #40]	@ 0x28
10004818:	1c66      	adds	r6, r4, #1
1000481a:	e765      	b.n	100046e8 <_vsnprintf+0x90>
1000481c:	2867      	cmp	r0, #103	@ 0x67
1000481e:	d100      	bne.n	10004822 <_vsnprintf+0x1ca>
10004820:	e1c8      	b.n	10004bb4 <_vsnprintf+0x55c>
10004822:	2847      	cmp	r0, #71	@ 0x47
10004824:	d100      	bne.n	10004828 <_vsnprintf+0x1d0>
10004826:	e204      	b.n	10004c32 <_vsnprintf+0x5da>
10004828:	2845      	cmp	r0, #69	@ 0x45
1000482a:	d100      	bne.n	1000482e <_vsnprintf+0x1d6>
1000482c:	e204      	b.n	10004c38 <_vsnprintf+0x5e0>
1000482e:	2007      	movs	r0, #7
10004830:	9b0a      	ldr	r3, [sp, #40]	@ 0x28
10004832:	9104      	str	r1, [sp, #16]
10004834:	3307      	adds	r3, #7
10004836:	4383      	bics	r3, r0
10004838:	0019      	movs	r1, r3
1000483a:	9a0b      	ldr	r2, [sp, #44]	@ 0x2c
1000483c:	9703      	str	r7, [sp, #12]
1000483e:	9202      	str	r2, [sp, #8]
10004840:	c90c      	ldmia	r1!, {r2, r3}
10004842:	9809      	ldr	r0, [sp, #36]	@ 0x24
10004844:	9200      	str	r2, [sp, #0]
10004846:	9301      	str	r3, [sp, #4]
10004848:	910a      	str	r1, [sp, #40]	@ 0x28
1000484a:	002a      	movs	r2, r5
1000484c:	465b      	mov	r3, fp
1000484e:	4651      	mov	r1, sl
10004850:	f7ff faf6 	bl	10003e40 <_etoa>
10004854:	1c74      	adds	r4, r6, #1
10004856:	0005      	movs	r5, r0
10004858:	e725      	b.n	100046a6 <_vsnprintf+0x4e>
1000485a:	7870      	ldrb	r0, [r6, #1]
1000485c:	286c      	cmp	r0, #108	@ 0x6c
1000485e:	d100      	bne.n	10004862 <_vsnprintf+0x20a>
10004860:	e20d      	b.n	10004c7e <_vsnprintf+0x626>
10004862:	2380      	movs	r3, #128	@ 0x80
10004864:	005b      	lsls	r3, r3, #1
10004866:	4319      	orrs	r1, r3
10004868:	3601      	adds	r6, #1
1000486a:	e763      	b.n	10004734 <_vsnprintf+0xdc>
1000486c:	2380      	movs	r3, #128	@ 0x80
1000486e:	009b      	lsls	r3, r3, #2
10004870:	7870      	ldrb	r0, [r6, #1]
10004872:	4319      	orrs	r1, r3
10004874:	3601      	adds	r6, #1
10004876:	e75d      	b.n	10004734 <_vsnprintf+0xdc>
10004878:	7870      	ldrb	r0, [r6, #1]
1000487a:	2868      	cmp	r0, #104	@ 0x68
1000487c:	d100      	bne.n	10004880 <_vsnprintf+0x228>
1000487e:	e1f9      	b.n	10004c74 <_vsnprintf+0x61c>
10004880:	2380      	movs	r3, #128	@ 0x80
10004882:	3601      	adds	r6, #1
10004884:	4319      	orrs	r1, r3
10004886:	e755      	b.n	10004734 <_vsnprintf+0xdc>
10004888:	2846      	cmp	r0, #70	@ 0x46
1000488a:	d100      	bne.n	1000488e <_vsnprintf+0x236>
1000488c:	e18f      	b.n	10004bae <_vsnprintf+0x556>
1000488e:	2007      	movs	r0, #7
10004890:	9b0a      	ldr	r3, [sp, #40]	@ 0x28
10004892:	9104      	str	r1, [sp, #16]
10004894:	3307      	adds	r3, #7
10004896:	4383      	bics	r3, r0
10004898:	0019      	movs	r1, r3
1000489a:	9a0b      	ldr	r2, [sp, #44]	@ 0x2c
1000489c:	9703      	str	r7, [sp, #12]
1000489e:	9202      	str	r2, [sp, #8]
100048a0:	c90c      	ldmia	r1!, {r2, r3}
100048a2:	9809      	ldr	r0, [sp, #36]	@ 0x24
100048a4:	9200      	str	r2, [sp, #0]
100048a6:	9301      	str	r3, [sp, #4]
100048a8:	910a      	str	r1, [sp, #40]	@ 0x28
100048aa:	002a      	movs	r2, r5
100048ac:	465b      	mov	r3, fp
100048ae:	4651      	mov	r1, sl
100048b0:	f7ff fcf0 	bl	10004294 <_ftoa>
100048b4:	1c74      	adds	r4, r6, #1
100048b6:	0005      	movs	r5, r0
100048b8:	e6f5      	b.n	100046a6 <_vsnprintf+0x4e>
100048ba:	002a      	movs	r2, r5
100048bc:	9c09      	ldr	r4, [sp, #36]	@ 0x24
100048be:	465b      	mov	r3, fp
100048c0:	4651      	mov	r1, sl
100048c2:	2025      	movs	r0, #37	@ 0x25
100048c4:	1c6f      	adds	r7, r5, #1
100048c6:	47a0      	blx	r4
100048c8:	003d      	movs	r5, r7
100048ca:	1c74      	adds	r4, r6, #1
100048cc:	e6eb      	b.n	100046a6 <_vsnprintf+0x4e>
100048ce:	0789      	lsls	r1, r1, #30
100048d0:	d400      	bmi.n	100048d4 <_vsnprintf+0x27c>
100048d2:	e1de      	b.n	10004c92 <_vsnprintf+0x63a>
100048d4:	9b0a      	ldr	r3, [sp, #40]	@ 0x28
100048d6:	002a      	movs	r2, r5
100048d8:	4698      	mov	r8, r3
100048da:	1c6b      	adds	r3, r5, #1
100048dc:	4699      	mov	r9, r3
100048de:	4643      	mov	r3, r8
100048e0:	cb01      	ldmia	r3!, {r0}
100048e2:	4651      	mov	r1, sl
100048e4:	4698      	mov	r8, r3
100048e6:	9c09      	ldr	r4, [sp, #36]	@ 0x24
100048e8:	465b      	mov	r3, fp
100048ea:	b2c0      	uxtb	r0, r0
100048ec:	47a0      	blx	r4
100048ee:	19ed      	adds	r5, r5, r7
100048f0:	2f01      	cmp	r7, #1
100048f2:	d800      	bhi.n	100048f6 <_vsnprintf+0x29e>
100048f4:	e293      	b.n	10004e1e <_vsnprintf+0x7c6>
100048f6:	464c      	mov	r4, r9
100048f8:	46b1      	mov	r9, r6
100048fa:	4656      	mov	r6, sl
100048fc:	9f09      	ldr	r7, [sp, #36]	@ 0x24
100048fe:	0022      	movs	r2, r4
10004900:	465b      	mov	r3, fp
10004902:	3401      	adds	r4, #1
10004904:	0031      	movs	r1, r6
10004906:	2020      	movs	r0, #32
10004908:	47b8      	blx	r7
1000490a:	42ac      	cmp	r4, r5
1000490c:	d1f7      	bne.n	100048fe <_vsnprintf+0x2a6>
1000490e:	46b2      	mov	sl, r6
10004910:	4643      	mov	r3, r8
10004912:	464e      	mov	r6, r9
10004914:	930a      	str	r3, [sp, #40]	@ 0x28
10004916:	1c74      	adds	r4, r6, #1
10004918:	e6c5      	b.n	100046a6 <_vsnprintf+0x4e>
1000491a:	4b27      	ldr	r3, [pc, #156]	@ (100049b8 <_vsnprintf+0x360>)
1000491c:	7820      	ldrb	r0, [r4, #0]
1000491e:	9309      	str	r3, [sp, #36]	@ 0x24
10004920:	2300      	movs	r3, #0
10004922:	4699      	mov	r9, r3
10004924:	2800      	cmp	r0, #0
10004926:	d000      	beq.n	1000492a <_vsnprintf+0x2d2>
10004928:	e6af      	b.n	1000468a <_vsnprintf+0x32>
1000492a:	2400      	movs	r4, #0
1000492c:	e733      	b.n	10004796 <_vsnprintf+0x13e>
1000492e:	9b0a      	ldr	r3, [sp, #40]	@ 0x28
10004930:	001a      	movs	r2, r3
10004932:	ca08      	ldmia	r2!, {r3}
10004934:	4690      	mov	r8, r2
10004936:	2b00      	cmp	r3, #0
10004938:	d100      	bne.n	1000493c <_vsnprintf+0x2e4>
1000493a:	e0a7      	b.n	10004a8c <_vsnprintf+0x434>
1000493c:	2021      	movs	r0, #33	@ 0x21
1000493e:	4308      	orrs	r0, r1
10004940:	a90e      	add	r1, sp, #56	@ 0x38
10004942:	468c      	mov	ip, r1
10004944:	221f      	movs	r2, #31
10004946:	4462      	add	r2, ip
10004948:	270f      	movs	r7, #15
1000494a:	46ac      	mov	ip, r5
1000494c:	4681      	mov	r9, r0
1000494e:	0015      	movs	r5, r2
10004950:	9c0c      	ldr	r4, [sp, #48]	@ 0x30
10004952:	e002      	b.n	1000495a <_vsnprintf+0x302>
10004954:	2c20      	cmp	r4, #32
10004956:	d00c      	beq.n	10004972 <_vsnprintf+0x31a>
10004958:	0013      	movs	r3, r2
1000495a:	0038      	movs	r0, r7
1000495c:	4018      	ands	r0, r3
1000495e:	0001      	movs	r1, r0
10004960:	3137      	adds	r1, #55	@ 0x37
10004962:	2809      	cmp	r0, #9
10004964:	d800      	bhi.n	10004968 <_vsnprintf+0x310>
10004966:	3907      	subs	r1, #7
10004968:	3401      	adds	r4, #1
1000496a:	5529      	strb	r1, [r5, r4]
1000496c:	091a      	lsrs	r2, r3, #4
1000496e:	2b0f      	cmp	r3, #15
10004970:	d8f0      	bhi.n	10004954 <_vsnprintf+0x2fc>
10004972:	4665      	mov	r5, ip
10004974:	4648      	mov	r0, r9
10004976:	940c      	str	r4, [sp, #48]	@ 0x30
10004978:	e094      	b.n	10004aa4 <_vsnprintf+0x44c>
1000497a:	9b0a      	ldr	r3, [sp, #40]	@ 0x28
1000497c:	001a      	movs	r2, r3
1000497e:	ca08      	ldmia	r2!, {r3}
10004980:	9212      	str	r2, [sp, #72]	@ 0x48
10004982:	9a0b      	ldr	r2, [sp, #44]	@ 0x2c
10004984:	2a00      	cmp	r2, #0
10004986:	d17b      	bne.n	10004a80 <_vsnprintf+0x428>
10004988:	2402      	movs	r4, #2
1000498a:	781a      	ldrb	r2, [r3, #0]
1000498c:	4264      	negs	r4, r4
1000498e:	2a00      	cmp	r2, #0
10004990:	d01d      	beq.n	100049ce <_vsnprintf+0x376>
10004992:	3401      	adds	r4, #1
10004994:	1918      	adds	r0, r3, r4
10004996:	469c      	mov	ip, r3
10004998:	001c      	movs	r4, r3
1000499a:	0003      	movs	r3, r0
1000499c:	e010      	b.n	100049c0 <_vsnprintf+0x368>
1000499e:	46c0      	nop			@ (mov r8, r8)
100049a0:	10004659 	.word	0x10004659
100049a4:	20000a50 	.word	0x20000a50
100049a8:	1000615c 	.word	0x1000615c
100049ac:	100061ec 	.word	0x100061ec
100049b0:	100061a0 	.word	0x100061a0
100049b4:	00009041 	.word	0x00009041
100049b8:	10003ba9 	.word	0x10003ba9
100049bc:	429c      	cmp	r4, r3
100049be:	d003      	beq.n	100049c8 <_vsnprintf+0x370>
100049c0:	7860      	ldrb	r0, [r4, #1]
100049c2:	3401      	adds	r4, #1
100049c4:	2800      	cmp	r0, #0
100049c6:	d1f9      	bne.n	100049bc <_vsnprintf+0x364>
100049c8:	4663      	mov	r3, ip
100049ca:	1ae0      	subs	r0, r4, r3
100049cc:	900c      	str	r0, [sp, #48]	@ 0x30
100049ce:	2080      	movs	r0, #128	@ 0x80
100049d0:	00c0      	lsls	r0, r0, #3
100049d2:	4684      	mov	ip, r0
100049d4:	4008      	ands	r0, r1
100049d6:	4680      	mov	r8, r0
100049d8:	4660      	mov	r0, ip
100049da:	4201      	tst	r1, r0
100049dc:	d004      	beq.n	100049e8 <_vsnprintf+0x390>
100049de:	980b      	ldr	r0, [sp, #44]	@ 0x2c
100049e0:	9c0c      	ldr	r4, [sp, #48]	@ 0x30
100049e2:	4284      	cmp	r4, r0
100049e4:	d900      	bls.n	100049e8 <_vsnprintf+0x390>
100049e6:	900c      	str	r0, [sp, #48]	@ 0x30
100049e8:	2002      	movs	r0, #2
100049ea:	4684      	mov	ip, r0
100049ec:	4008      	ands	r0, r1
100049ee:	900a      	str	r0, [sp, #40]	@ 0x28
100049f0:	4660      	mov	r0, ip
100049f2:	4208      	tst	r0, r1
100049f4:	d100      	bne.n	100049f8 <_vsnprintf+0x3a0>
100049f6:	e189      	b.n	10004d0c <_vsnprintf+0x6b4>
100049f8:	1e10      	subs	r0, r2, #0
100049fa:	d100      	bne.n	100049fe <_vsnprintf+0x3a6>
100049fc:	e170      	b.n	10004ce0 <_vsnprintf+0x688>
100049fe:	4642      	mov	r2, r8
10004a00:	2a00      	cmp	r2, #0
10004a02:	d100      	bne.n	10004a06 <_vsnprintf+0x3ae>
10004a04:	e11b      	b.n	10004c3e <_vsnprintf+0x5e6>
10004a06:	9a0b      	ldr	r2, [sp, #44]	@ 0x2c
10004a08:	1b5b      	subs	r3, r3, r5
10004a0a:	4690      	mov	r8, r2
10004a0c:	44a8      	add	r8, r5
10004a0e:	4644      	mov	r4, r8
10004a10:	002a      	movs	r2, r5
10004a12:	46b8      	mov	r8, r7
10004a14:	4699      	mov	r9, r3
10004a16:	4657      	mov	r7, sl
10004a18:	46b2      	mov	sl, r6
10004a1a:	9e09      	ldr	r6, [sp, #36]	@ 0x24
10004a1c:	e009      	b.n	10004a32 <_vsnprintf+0x3da>
10004a1e:	465b      	mov	r3, fp
10004a20:	0039      	movs	r1, r7
10004a22:	1c55      	adds	r5, r2, #1
10004a24:	47b0      	blx	r6
10004a26:	464b      	mov	r3, r9
10004a28:	5d58      	ldrb	r0, [r3, r5]
10004a2a:	2800      	cmp	r0, #0
10004a2c:	d100      	bne.n	10004a30 <_vsnprintf+0x3d8>
10004a2e:	e12c      	b.n	10004c8a <_vsnprintf+0x632>
10004a30:	002a      	movs	r2, r5
10004a32:	4294      	cmp	r4, r2
10004a34:	d1f3      	bne.n	10004a1e <_vsnprintf+0x3c6>
10004a36:	4656      	mov	r6, sl
10004a38:	0025      	movs	r5, r4
10004a3a:	46ba      	mov	sl, r7
10004a3c:	4647      	mov	r7, r8
10004a3e:	9b0a      	ldr	r3, [sp, #40]	@ 0x28
10004a40:	2b00      	cmp	r3, #0
10004a42:	d000      	beq.n	10004a46 <_vsnprintf+0x3ee>
10004a44:	e14c      	b.n	10004ce0 <_vsnprintf+0x688>
10004a46:	9b12      	ldr	r3, [sp, #72]	@ 0x48
10004a48:	1c74      	adds	r4, r6, #1
10004a4a:	930a      	str	r3, [sp, #40]	@ 0x28
10004a4c:	e62b      	b.n	100046a6 <_vsnprintf+0x4e>
10004a4e:	2200      	movs	r2, #0
10004a50:	0093      	lsls	r3, r2, #2
10004a52:	189b      	adds	r3, r3, r2
10004a54:	005b      	lsls	r3, r3, #1
10004a56:	3401      	adds	r4, #1
10004a58:	181a      	adds	r2, r3, r0
10004a5a:	7820      	ldrb	r0, [r4, #0]
10004a5c:	3a30      	subs	r2, #48	@ 0x30
10004a5e:	0003      	movs	r3, r0
10004a60:	3b30      	subs	r3, #48	@ 0x30
10004a62:	2b09      	cmp	r3, #9
10004a64:	d9f4      	bls.n	10004a50 <_vsnprintf+0x3f8>
10004a66:	0026      	movs	r6, r4
10004a68:	920b      	str	r2, [sp, #44]	@ 0x2c
10004a6a:	e642      	b.n	100046f2 <_vsnprintf+0x9a>
10004a6c:	9b0a      	ldr	r3, [sp, #40]	@ 0x28
10004a6e:	3602      	adds	r6, #2
10004a70:	cb04      	ldmia	r3!, {r2}
10004a72:	43d0      	mvns	r0, r2
10004a74:	17c0      	asrs	r0, r0, #31
10004a76:	4002      	ands	r2, r0
10004a78:	920b      	str	r2, [sp, #44]	@ 0x2c
10004a7a:	7830      	ldrb	r0, [r6, #0]
10004a7c:	930a      	str	r3, [sp, #40]	@ 0x28
10004a7e:	e638      	b.n	100046f2 <_vsnprintf+0x9a>
10004a80:	781a      	ldrb	r2, [r3, #0]
10004a82:	2a00      	cmp	r2, #0
10004a84:	d0a3      	beq.n	100049ce <_vsnprintf+0x376>
10004a86:	980b      	ldr	r0, [sp, #44]	@ 0x2c
10004a88:	1e44      	subs	r4, r0, #1
10004a8a:	e782      	b.n	10004992 <_vsnprintf+0x33a>
10004a8c:	2310      	movs	r3, #16
10004a8e:	0008      	movs	r0, r1
10004a90:	2780      	movs	r7, #128	@ 0x80
10004a92:	4398      	bics	r0, r3
10004a94:	3311      	adds	r3, #17
10004a96:	4318      	orrs	r0, r3
10004a98:	000b      	movs	r3, r1
10004a9a:	00ff      	lsls	r7, r7, #3
10004a9c:	403b      	ands	r3, r7
10004a9e:	4239      	tst	r1, r7
10004aa0:	d100      	bne.n	10004aa4 <_vsnprintf+0x44c>
10004aa2:	e74d      	b.n	10004940 <_vsnprintf+0x2e8>
10004aa4:	2308      	movs	r3, #8
10004aa6:	9305      	str	r3, [sp, #20]
10004aa8:	9b0b      	ldr	r3, [sp, #44]	@ 0x2c
10004aaa:	002a      	movs	r2, r5
10004aac:	9304      	str	r3, [sp, #16]
10004aae:	2310      	movs	r3, #16
10004ab0:	9303      	str	r3, [sp, #12]
10004ab2:	2300      	movs	r3, #0
10004ab4:	9302      	str	r3, [sp, #8]
10004ab6:	9b0c      	ldr	r3, [sp, #48]	@ 0x30
10004ab8:	9006      	str	r0, [sp, #24]
10004aba:	9301      	str	r3, [sp, #4]
10004abc:	ab16      	add	r3, sp, #88	@ 0x58
10004abe:	9300      	str	r3, [sp, #0]
10004ac0:	4651      	mov	r1, sl
10004ac2:	465b      	mov	r3, fp
10004ac4:	9809      	ldr	r0, [sp, #36]	@ 0x24
10004ac6:	f7ff f8b9 	bl	10003c3c <_ntoa_format>
10004aca:	4643      	mov	r3, r8
10004acc:	0005      	movs	r5, r0
10004ace:	1c74      	adds	r4, r6, #1
10004ad0:	930a      	str	r3, [sp, #40]	@ 0x28
10004ad2:	e5e8      	b.n	100046a6 <_vsnprintf+0x4e>
10004ad4:	2862      	cmp	r0, #98	@ 0x62
10004ad6:	d100      	bne.n	10004ada <_vsnprintf+0x482>
10004ad8:	e1a6      	b.n	10004e28 <_vsnprintf+0x7d0>
10004ada:	2858      	cmp	r0, #88	@ 0x58
10004adc:	d100      	bne.n	10004ae0 <_vsnprintf+0x488>
10004ade:	e1b1      	b.n	10004e44 <_vsnprintf+0x7ec>
10004ae0:	2380      	movs	r3, #128	@ 0x80
10004ae2:	000a      	movs	r2, r1
10004ae4:	00db      	lsls	r3, r3, #3
10004ae6:	401a      	ands	r2, r3
10004ae8:	4690      	mov	r8, r2
10004aea:	4219      	tst	r1, r3
10004aec:	d100      	bne.n	10004af0 <_vsnprintf+0x498>
10004aee:	e189      	b.n	10004e04 <_vsnprintf+0x7ac>
10004af0:	2311      	movs	r3, #17
10004af2:	4399      	bics	r1, r3
10004af4:	468c      	mov	ip, r1
10004af6:	2380      	movs	r3, #128	@ 0x80
10004af8:	4662      	mov	r2, ip
10004afa:	009b      	lsls	r3, r3, #2
10004afc:	401a      	ands	r2, r3
10004afe:	0010      	movs	r0, r2
10004b00:	4662      	mov	r2, ip
10004b02:	421a      	tst	r2, r3
10004b04:	d000      	beq.n	10004b08 <_vsnprintf+0x4b0>
10004b06:	e123      	b.n	10004d50 <_vsnprintf+0x6f8>
10004b08:	2380      	movs	r3, #128	@ 0x80
10004b0a:	4664      	mov	r4, ip
10004b0c:	005b      	lsls	r3, r3, #1
10004b0e:	401c      	ands	r4, r3
10004b10:	421a      	tst	r2, r3
10004b12:	d000      	beq.n	10004b16 <_vsnprintf+0x4be>
10004b14:	e232      	b.n	10004f7c <_vsnprintf+0x924>
10004b16:	4663      	mov	r3, ip
10004b18:	065b      	lsls	r3, r3, #25
10004b1a:	d500      	bpl.n	10004b1e <_vsnprintf+0x4c6>
10004b1c:	e16b      	b.n	10004df6 <_vsnprintf+0x79e>
10004b1e:	4663      	mov	r3, ip
10004b20:	990a      	ldr	r1, [sp, #40]	@ 0x28
10004b22:	061b      	lsls	r3, r3, #24
10004b24:	d400      	bmi.n	10004b28 <_vsnprintf+0x4d0>
10004b26:	e2db      	b.n	100050e0 <_vsnprintf+0xa88>
10004b28:	c908      	ldmia	r1!, {r3}
10004b2a:	b21b      	sxth	r3, r3
10004b2c:	17da      	asrs	r2, r3, #31
10004b2e:	1898      	adds	r0, r3, r2
10004b30:	4050      	eors	r0, r2
10004b32:	b280      	uxth	r0, r0
10004b34:	910a      	str	r1, [sp, #40]	@ 0x28
10004b36:	0fda      	lsrs	r2, r3, #31
10004b38:	920c      	str	r2, [sp, #48]	@ 0x30
10004b3a:	2b00      	cmp	r3, #0
10004b3c:	d100      	bne.n	10004b40 <_vsnprintf+0x4e8>
10004b3e:	e218      	b.n	10004f72 <_vsnprintf+0x91a>
10004b40:	4680      	mov	r8, r0
10004b42:	aa0e      	add	r2, sp, #56	@ 0x38
10004b44:	4691      	mov	r9, r2
10004b46:	231f      	movs	r3, #31
10004b48:	444b      	add	r3, r9
10004b4a:	9513      	str	r5, [sp, #76]	@ 0x4c
10004b4c:	46e1      	mov	r9, ip
10004b4e:	4645      	mov	r5, r8
10004b50:	9712      	str	r7, [sp, #72]	@ 0x48
10004b52:	46b0      	mov	r8, r6
10004b54:	001e      	movs	r6, r3
10004b56:	e001      	b.n	10004b5c <_vsnprintf+0x504>
10004b58:	2c20      	cmp	r4, #32
10004b5a:	d00f      	beq.n	10004b7c <_vsnprintf+0x524>
10004b5c:	0028      	movs	r0, r5
10004b5e:	210a      	movs	r1, #10
10004b60:	f7fe f992 	bl	10002e88 <__wrap___aeabi_uidiv>
10004b64:	3401      	adds	r4, #1
10004b66:	1937      	adds	r7, r6, r4
10004b68:	3130      	adds	r1, #48	@ 0x30
10004b6a:	7039      	strb	r1, [r7, #0]
10004b6c:	0028      	movs	r0, r5
10004b6e:	210a      	movs	r1, #10
10004b70:	f7fe f98a 	bl	10002e88 <__wrap___aeabi_uidiv>
10004b74:	002f      	movs	r7, r5
10004b76:	0005      	movs	r5, r0
10004b78:	2f09      	cmp	r7, #9
10004b7a:	d8ed      	bhi.n	10004b58 <_vsnprintf+0x500>
10004b7c:	4646      	mov	r6, r8
10004b7e:	46cc      	mov	ip, r9
10004b80:	9f12      	ldr	r7, [sp, #72]	@ 0x48
10004b82:	9d13      	ldr	r5, [sp, #76]	@ 0x4c
10004b84:	4663      	mov	r3, ip
10004b86:	9306      	str	r3, [sp, #24]
10004b88:	9b0b      	ldr	r3, [sp, #44]	@ 0x2c
10004b8a:	9705      	str	r7, [sp, #20]
10004b8c:	9304      	str	r3, [sp, #16]
10004b8e:	230a      	movs	r3, #10
10004b90:	9303      	str	r3, [sp, #12]
10004b92:	9b0c      	ldr	r3, [sp, #48]	@ 0x30
10004b94:	9302      	str	r3, [sp, #8]
10004b96:	ab16      	add	r3, sp, #88	@ 0x58
10004b98:	002a      	movs	r2, r5
10004b9a:	9401      	str	r4, [sp, #4]
10004b9c:	9300      	str	r3, [sp, #0]
10004b9e:	4651      	mov	r1, sl
10004ba0:	465b      	mov	r3, fp
10004ba2:	9809      	ldr	r0, [sp, #36]	@ 0x24
10004ba4:	f7ff f84a 	bl	10003c3c <_ntoa_format>
10004ba8:	1c74      	adds	r4, r6, #1
10004baa:	0005      	movs	r5, r0
10004bac:	e57b      	b.n	100046a6 <_vsnprintf+0x4e>
10004bae:	2320      	movs	r3, #32
10004bb0:	4319      	orrs	r1, r3
10004bb2:	e66c      	b.n	1000488e <_vsnprintf+0x236>
10004bb4:	2380      	movs	r3, #128	@ 0x80
10004bb6:	011b      	lsls	r3, r3, #4
10004bb8:	4319      	orrs	r1, r3
10004bba:	e638      	b.n	1000482e <_vsnprintf+0x1d6>
10004bbc:	2878      	cmp	r0, #120	@ 0x78
10004bbe:	d000      	beq.n	10004bc2 <_vsnprintf+0x56a>
10004bc0:	e17c      	b.n	10004ebc <_vsnprintf+0x864>
10004bc2:	2380      	movs	r3, #128	@ 0x80
10004bc4:	000a      	movs	r2, r1
10004bc6:	00db      	lsls	r3, r3, #3
10004bc8:	401a      	ands	r2, r3
10004bca:	4691      	mov	r9, r2
10004bcc:	4219      	tst	r1, r3
10004bce:	d100      	bne.n	10004bd2 <_vsnprintf+0x57a>
10004bd0:	e2a5      	b.n	1000511e <_vsnprintf+0xac6>
10004bd2:	230d      	movs	r3, #13
10004bd4:	4399      	bics	r1, r3
10004bd6:	0008      	movs	r0, r1
10004bd8:	3303      	adds	r3, #3
10004bda:	930c      	str	r3, [sp, #48]	@ 0x30
10004bdc:	2380      	movs	r3, #128	@ 0x80
10004bde:	0002      	movs	r2, r0
10004be0:	009b      	lsls	r3, r3, #2
10004be2:	401a      	ands	r2, r3
10004be4:	4690      	mov	r8, r2
10004be6:	4218      	tst	r0, r3
10004be8:	d000      	beq.n	10004bec <_vsnprintf+0x594>
10004bea:	e178      	b.n	10004ede <_vsnprintf+0x886>
10004bec:	2380      	movs	r3, #128	@ 0x80
10004bee:	0004      	movs	r4, r0
10004bf0:	005b      	lsls	r3, r3, #1
10004bf2:	401c      	ands	r4, r3
10004bf4:	4218      	tst	r0, r3
10004bf6:	d000      	beq.n	10004bfa <_vsnprintf+0x5a2>
10004bf8:	e207      	b.n	1000500a <_vsnprintf+0x9b2>
10004bfa:	0643      	lsls	r3, r0, #25
10004bfc:	d400      	bmi.n	10004c00 <_vsnprintf+0x5a8>
10004bfe:	e253      	b.n	100050a8 <_vsnprintf+0xa50>
10004c00:	21ff      	movs	r1, #255	@ 0xff
10004c02:	9b0a      	ldr	r3, [sp, #40]	@ 0x28
10004c04:	cb04      	ldmia	r3!, {r2}
10004c06:	400a      	ands	r2, r1
10004c08:	4690      	mov	r8, r2
10004c0a:	930a      	str	r3, [sp, #40]	@ 0x28
10004c0c:	4643      	mov	r3, r8
10004c0e:	2b00      	cmp	r3, #0
10004c10:	d000      	beq.n	10004c14 <_vsnprintf+0x5bc>
10004c12:	e126      	b.n	10004e62 <_vsnprintf+0x80a>
10004c14:	3310      	adds	r3, #16
10004c16:	4398      	bics	r0, r3
10004c18:	464b      	mov	r3, r9
10004c1a:	2b00      	cmp	r3, #0
10004c1c:	d100      	bne.n	10004c20 <_vsnprintf+0x5c8>
10004c1e:	e120      	b.n	10004e62 <_vsnprintf+0x80a>
10004c20:	2400      	movs	r4, #0
10004c22:	9b0b      	ldr	r3, [sp, #44]	@ 0x2c
10004c24:	9006      	str	r0, [sp, #24]
10004c26:	9304      	str	r3, [sp, #16]
10004c28:	9b0c      	ldr	r3, [sp, #48]	@ 0x30
10004c2a:	9705      	str	r7, [sp, #20]
10004c2c:	9303      	str	r3, [sp, #12]
10004c2e:	2300      	movs	r3, #0
10004c30:	e7b0      	b.n	10004b94 <_vsnprintf+0x53c>
10004c32:	2380      	movs	r3, #128	@ 0x80
10004c34:	011b      	lsls	r3, r3, #4
10004c36:	4319      	orrs	r1, r3
10004c38:	2320      	movs	r3, #32
10004c3a:	4319      	orrs	r1, r3
10004c3c:	e5f7      	b.n	1000482e <_vsnprintf+0x1d6>
10004c3e:	1b5b      	subs	r3, r3, r5
10004c40:	4699      	mov	r9, r3
10004c42:	9b0c      	ldr	r3, [sp, #48]	@ 0x30
10004c44:	9c09      	ldr	r4, [sp, #36]	@ 0x24
10004c46:	4698      	mov	r8, r3
10004c48:	465b      	mov	r3, fp
10004c4a:	46b3      	mov	fp, r6
10004c4c:	4656      	mov	r6, sl
10004c4e:	46ba      	mov	sl, r7
10004c50:	001f      	movs	r7, r3
10004c52:	002a      	movs	r2, r5
10004c54:	003b      	movs	r3, r7
10004c56:	0031      	movs	r1, r6
10004c58:	47a0      	blx	r4
10004c5a:	464b      	mov	r3, r9
10004c5c:	3501      	adds	r5, #1
10004c5e:	5d58      	ldrb	r0, [r3, r5]
10004c60:	2800      	cmp	r0, #0
10004c62:	d1f6      	bne.n	10004c52 <_vsnprintf+0x5fa>
10004c64:	4643      	mov	r3, r8
10004c66:	930c      	str	r3, [sp, #48]	@ 0x30
10004c68:	003b      	movs	r3, r7
10004c6a:	4657      	mov	r7, sl
10004c6c:	46b2      	mov	sl, r6
10004c6e:	465e      	mov	r6, fp
10004c70:	469b      	mov	fp, r3
10004c72:	e6e4      	b.n	10004a3e <_vsnprintf+0x3e6>
10004c74:	23c0      	movs	r3, #192	@ 0xc0
10004c76:	78b0      	ldrb	r0, [r6, #2]
10004c78:	4319      	orrs	r1, r3
10004c7a:	3602      	adds	r6, #2
10004c7c:	e55a      	b.n	10004734 <_vsnprintf+0xdc>
10004c7e:	23c0      	movs	r3, #192	@ 0xc0
10004c80:	009b      	lsls	r3, r3, #2
10004c82:	78b0      	ldrb	r0, [r6, #2]
10004c84:	4319      	orrs	r1, r3
10004c86:	3602      	adds	r6, #2
10004c88:	e554      	b.n	10004734 <_vsnprintf+0xdc>
10004c8a:	4656      	mov	r6, sl
10004c8c:	46ba      	mov	sl, r7
10004c8e:	4647      	mov	r7, r8
10004c90:	e6d5      	b.n	10004a3e <_vsnprintf+0x3e6>
10004c92:	2f01      	cmp	r7, #1
10004c94:	d800      	bhi.n	10004c98 <_vsnprintf+0x640>
10004c96:	e232      	b.n	100050fe <_vsnprintf+0xaa6>
10004c98:	1e6b      	subs	r3, r5, #1
10004c9a:	4698      	mov	r8, r3
10004c9c:	44b8      	add	r8, r7
10004c9e:	002c      	movs	r4, r5
10004ca0:	46a9      	mov	r9, r5
10004ca2:	4645      	mov	r5, r8
10004ca4:	46b8      	mov	r8, r7
10004ca6:	4657      	mov	r7, sl
10004ca8:	46b2      	mov	sl, r6
10004caa:	9e09      	ldr	r6, [sp, #36]	@ 0x24
10004cac:	0022      	movs	r2, r4
10004cae:	465b      	mov	r3, fp
10004cb0:	3401      	adds	r4, #1
10004cb2:	0039      	movs	r1, r7
10004cb4:	2020      	movs	r0, #32
10004cb6:	47b0      	blx	r6
10004cb8:	42ac      	cmp	r4, r5
10004cba:	d1f7      	bne.n	10004cac <_vsnprintf+0x654>
10004cbc:	9b0a      	ldr	r3, [sp, #40]	@ 0x28
10004cbe:	4656      	mov	r6, sl
10004cc0:	cb01      	ldmia	r3!, {r0}
10004cc2:	46ba      	mov	sl, r7
10004cc4:	4647      	mov	r7, r8
10004cc6:	4698      	mov	r8, r3
10004cc8:	0022      	movs	r2, r4
10004cca:	465b      	mov	r3, fp
10004ccc:	9c09      	ldr	r4, [sp, #36]	@ 0x24
10004cce:	4651      	mov	r1, sl
10004cd0:	b2c0      	uxtb	r0, r0
10004cd2:	47a0      	blx	r4
10004cd4:	464d      	mov	r5, r9
10004cd6:	4643      	mov	r3, r8
10004cd8:	19ed      	adds	r5, r5, r7
10004cda:	930a      	str	r3, [sp, #40]	@ 0x28
10004cdc:	1c74      	adds	r4, r6, #1
10004cde:	e4e2      	b.n	100046a6 <_vsnprintf+0x4e>
10004ce0:	9b0c      	ldr	r3, [sp, #48]	@ 0x30
10004ce2:	46a8      	mov	r8, r5
10004ce4:	429f      	cmp	r7, r3
10004ce6:	d800      	bhi.n	10004cea <_vsnprintf+0x692>
10004ce8:	e6ad      	b.n	10004a46 <_vsnprintf+0x3ee>
10004cea:	4644      	mov	r4, r8
10004cec:	46b0      	mov	r8, r6
10004cee:	4656      	mov	r6, sl
10004cf0:	197d      	adds	r5, r7, r5
10004cf2:	9f09      	ldr	r7, [sp, #36]	@ 0x24
10004cf4:	1aed      	subs	r5, r5, r3
10004cf6:	0022      	movs	r2, r4
10004cf8:	465b      	mov	r3, fp
10004cfa:	3401      	adds	r4, #1
10004cfc:	0031      	movs	r1, r6
10004cfe:	2020      	movs	r0, #32
10004d00:	47b8      	blx	r7
10004d02:	42ac      	cmp	r4, r5
10004d04:	d1f7      	bne.n	10004cf6 <_vsnprintf+0x69e>
10004d06:	46b2      	mov	sl, r6
10004d08:	4646      	mov	r6, r8
10004d0a:	e69c      	b.n	10004a46 <_vsnprintf+0x3ee>
10004d0c:	980c      	ldr	r0, [sp, #48]	@ 0x30
10004d0e:	4287      	cmp	r7, r0
10004d10:	d800      	bhi.n	10004d14 <_vsnprintf+0x6bc>
10004d12:	e1f0      	b.n	100050f6 <_vsnprintf+0xa9e>
10004d14:	4642      	mov	r2, r8
10004d16:	4698      	mov	r8, r3
10004d18:	1979      	adds	r1, r7, r5
10004d1a:	46b9      	mov	r9, r7
10004d1c:	4657      	mov	r7, sl
10004d1e:	46b2      	mov	sl, r6
10004d20:	9e09      	ldr	r6, [sp, #36]	@ 0x24
10004d22:	1a0c      	subs	r4, r1, r0
10004d24:	920c      	str	r2, [sp, #48]	@ 0x30
10004d26:	002a      	movs	r2, r5
10004d28:	465b      	mov	r3, fp
10004d2a:	3501      	adds	r5, #1
10004d2c:	0039      	movs	r1, r7
10004d2e:	2020      	movs	r0, #32
10004d30:	47b0      	blx	r6
10004d32:	42a5      	cmp	r5, r4
10004d34:	d1f7      	bne.n	10004d26 <_vsnprintf+0x6ce>
10004d36:	4656      	mov	r6, sl
10004d38:	46ba      	mov	sl, r7
10004d3a:	464f      	mov	r7, r9
10004d3c:	4643      	mov	r3, r8
10004d3e:	9a0c      	ldr	r2, [sp, #48]	@ 0x30
10004d40:	4690      	mov	r8, r2
10004d42:	1c7a      	adds	r2, r7, #1
10004d44:	920c      	str	r2, [sp, #48]	@ 0x30
10004d46:	781a      	ldrb	r2, [r3, #0]
10004d48:	1e10      	subs	r0, r2, #0
10004d4a:	d000      	beq.n	10004d4e <_vsnprintf+0x6f6>
10004d4c:	e657      	b.n	100049fe <_vsnprintf+0x3a6>
10004d4e:	e67a      	b.n	10004a46 <_vsnprintf+0x3ee>
10004d50:	2208      	movs	r2, #8
10004d52:	2107      	movs	r1, #7
10004d54:	4691      	mov	r9, r2
10004d56:	9b0a      	ldr	r3, [sp, #40]	@ 0x28
10004d58:	3307      	adds	r3, #7
10004d5a:	438b      	bics	r3, r1
10004d5c:	4499      	add	r9, r3
10004d5e:	464a      	mov	r2, r9
10004d60:	cb0a      	ldmia	r3, {r1, r3}
10004d62:	000c      	movs	r4, r1
10004d64:	920a      	str	r2, [sp, #40]	@ 0x28
10004d66:	431c      	orrs	r4, r3
10004d68:	0fda      	lsrs	r2, r3, #31
10004d6a:	2c00      	cmp	r4, #0
10004d6c:	d04e      	beq.n	10004e0c <_vsnprintf+0x7b4>
10004d6e:	17d8      	asrs	r0, r3, #31
10004d70:	0004      	movs	r4, r0
10004d72:	9010      	str	r0, [sp, #64]	@ 0x40
10004d74:	404c      	eors	r4, r1
10004d76:	9011      	str	r0, [sp, #68]	@ 0x44
10004d78:	940e      	str	r4, [sp, #56]	@ 0x38
10004d7a:	9810      	ldr	r0, [sp, #64]	@ 0x40
10004d7c:	9911      	ldr	r1, [sp, #68]	@ 0x44
10004d7e:	000c      	movs	r4, r1
10004d80:	405c      	eors	r4, r3
10004d82:	940f      	str	r4, [sp, #60]	@ 0x3c
10004d84:	9b0e      	ldr	r3, [sp, #56]	@ 0x38
10004d86:	9c0f      	ldr	r4, [sp, #60]	@ 0x3c
10004d88:	1a1b      	subs	r3, r3, r0
10004d8a:	418c      	sbcs	r4, r1
10004d8c:	930e      	str	r3, [sp, #56]	@ 0x38
10004d8e:	940f      	str	r4, [sp, #60]	@ 0x3c
10004d90:	a90e      	add	r1, sp, #56	@ 0x38
10004d92:	4688      	mov	r8, r1
10004d94:	231f      	movs	r3, #31
10004d96:	2400      	movs	r4, #0
10004d98:	4443      	add	r3, r8
10004d9a:	9712      	str	r7, [sp, #72]	@ 0x48
10004d9c:	46b0      	mov	r8, r6
10004d9e:	0027      	movs	r7, r4
10004da0:	9513      	str	r5, [sp, #76]	@ 0x4c
10004da2:	001e      	movs	r6, r3
10004da4:	9c0e      	ldr	r4, [sp, #56]	@ 0x38
10004da6:	9d0f      	ldr	r5, [sp, #60]	@ 0x3c
10004da8:	46e1      	mov	r9, ip
10004daa:	920c      	str	r2, [sp, #48]	@ 0x30
10004dac:	e001      	b.n	10004db2 <_vsnprintf+0x75a>
10004dae:	2f20      	cmp	r7, #32
10004db0:	d010      	beq.n	10004dd4 <_vsnprintf+0x77c>
10004db2:	0020      	movs	r0, r4
10004db4:	0029      	movs	r1, r5
10004db6:	220a      	movs	r2, #10
10004db8:	2300      	movs	r3, #0
10004dba:	f7fe f8a3 	bl	10002f04 <__wrap___aeabi_uldivmod>
10004dbe:	3701      	adds	r7, #1
10004dc0:	3230      	adds	r2, #48	@ 0x30
10004dc2:	002b      	movs	r3, r5
10004dc4:	55f2      	strb	r2, [r6, r7]
10004dc6:	000d      	movs	r5, r1
10004dc8:	0022      	movs	r2, r4
10004dca:	0004      	movs	r4, r0
10004dcc:	2b00      	cmp	r3, #0
10004dce:	d1ee      	bne.n	10004dae <_vsnprintf+0x756>
10004dd0:	2a09      	cmp	r2, #9
10004dd2:	d8ec      	bhi.n	10004dae <_vsnprintf+0x756>
10004dd4:	4646      	mov	r6, r8
10004dd6:	46cc      	mov	ip, r9
10004dd8:	940e      	str	r4, [sp, #56]	@ 0x38
10004dda:	950f      	str	r5, [sp, #60]	@ 0x3c
10004ddc:	9a0c      	ldr	r2, [sp, #48]	@ 0x30
10004dde:	003c      	movs	r4, r7
10004de0:	9d13      	ldr	r5, [sp, #76]	@ 0x4c
10004de2:	9f12      	ldr	r7, [sp, #72]	@ 0x48
10004de4:	4663      	mov	r3, ip
10004de6:	9306      	str	r3, [sp, #24]
10004de8:	9b0b      	ldr	r3, [sp, #44]	@ 0x2c
10004dea:	9705      	str	r7, [sp, #20]
10004dec:	9304      	str	r3, [sp, #16]
10004dee:	230a      	movs	r3, #10
10004df0:	9202      	str	r2, [sp, #8]
10004df2:	9303      	str	r3, [sp, #12]
10004df4:	e6cf      	b.n	10004b96 <_vsnprintf+0x53e>
10004df6:	23ff      	movs	r3, #255	@ 0xff
10004df8:	990a      	ldr	r1, [sp, #40]	@ 0x28
10004dfa:	c904      	ldmia	r1!, {r2}
10004dfc:	4013      	ands	r3, r2
10004dfe:	0018      	movs	r0, r3
10004e00:	910a      	str	r1, [sp, #40]	@ 0x28
10004e02:	e698      	b.n	10004b36 <_vsnprintf+0x4de>
10004e04:	2310      	movs	r3, #16
10004e06:	4399      	bics	r1, r3
10004e08:	468c      	mov	ip, r1
10004e0a:	e674      	b.n	10004af6 <_vsnprintf+0x49e>
10004e0c:	4643      	mov	r3, r8
10004e0e:	2400      	movs	r4, #0
10004e10:	2b00      	cmp	r3, #0
10004e12:	d1e7      	bne.n	10004de4 <_vsnprintf+0x78c>
10004e14:	2300      	movs	r3, #0
10004e16:	2400      	movs	r4, #0
10004e18:	930e      	str	r3, [sp, #56]	@ 0x38
10004e1a:	940f      	str	r4, [sp, #60]	@ 0x3c
10004e1c:	e7b8      	b.n	10004d90 <_vsnprintf+0x738>
10004e1e:	4643      	mov	r3, r8
10004e20:	464d      	mov	r5, r9
10004e22:	930a      	str	r3, [sp, #40]	@ 0x28
10004e24:	1c74      	adds	r4, r6, #1
10004e26:	e43e      	b.n	100046a6 <_vsnprintf+0x4e>
10004e28:	2380      	movs	r3, #128	@ 0x80
10004e2a:	000a      	movs	r2, r1
10004e2c:	00db      	lsls	r3, r3, #3
10004e2e:	401a      	ands	r2, r3
10004e30:	4691      	mov	r9, r2
10004e32:	4219      	tst	r1, r3
10004e34:	d100      	bne.n	10004e38 <_vsnprintf+0x7e0>
10004e36:	e140      	b.n	100050ba <_vsnprintf+0xa62>
10004e38:	230d      	movs	r3, #13
10004e3a:	4399      	bics	r1, r3
10004e3c:	3b0b      	subs	r3, #11
10004e3e:	0008      	movs	r0, r1
10004e40:	930c      	str	r3, [sp, #48]	@ 0x30
10004e42:	e6cb      	b.n	10004bdc <_vsnprintf+0x584>
10004e44:	2380      	movs	r3, #128	@ 0x80
10004e46:	000a      	movs	r2, r1
10004e48:	00db      	lsls	r3, r3, #3
10004e4a:	401a      	ands	r2, r3
10004e4c:	4691      	mov	r9, r2
10004e4e:	4219      	tst	r1, r3
10004e50:	d100      	bne.n	10004e54 <_vsnprintf+0x7fc>
10004e52:	e162      	b.n	1000511a <_vsnprintf+0xac2>
10004e54:	230d      	movs	r3, #13
10004e56:	2020      	movs	r0, #32
10004e58:	4399      	bics	r1, r3
10004e5a:	3303      	adds	r3, #3
10004e5c:	4308      	orrs	r0, r1
10004e5e:	930c      	str	r3, [sp, #48]	@ 0x30
10004e60:	e6bc      	b.n	10004bdc <_vsnprintf+0x584>
10004e62:	2361      	movs	r3, #97	@ 0x61
10004e64:	0681      	lsls	r1, r0, #26
10004e66:	d500      	bpl.n	10004e6a <_vsnprintf+0x812>
10004e68:	2341      	movs	r3, #65	@ 0x41
10004e6a:	a90e      	add	r1, sp, #56	@ 0x38
10004e6c:	221f      	movs	r2, #31
10004e6e:	468c      	mov	ip, r1
10004e70:	b2db      	uxtb	r3, r3
10004e72:	4462      	add	r2, ip
10004e74:	3b0a      	subs	r3, #10
10004e76:	9713      	str	r7, [sp, #76]	@ 0x4c
10004e78:	9514      	str	r5, [sp, #80]	@ 0x50
10004e7a:	4681      	mov	r9, r0
10004e7c:	4645      	mov	r5, r8
10004e7e:	9f0c      	ldr	r7, [sp, #48]	@ 0x30
10004e80:	46b0      	mov	r8, r6
10004e82:	9312      	str	r3, [sp, #72]	@ 0x48
10004e84:	0016      	movs	r6, r2
10004e86:	e008      	b.n	10004e9a <_vsnprintf+0x842>
10004e88:	3330      	adds	r3, #48	@ 0x30
10004e8a:	b2db      	uxtb	r3, r3
10004e8c:	3401      	adds	r4, #1
10004e8e:	5533      	strb	r3, [r6, r4]
10004e90:	42bd      	cmp	r5, r7
10004e92:	d30e      	bcc.n	10004eb2 <_vsnprintf+0x85a>
10004e94:	2c20      	cmp	r4, #32
10004e96:	d00c      	beq.n	10004eb2 <_vsnprintf+0x85a>
10004e98:	0005      	movs	r5, r0
10004e9a:	0039      	movs	r1, r7
10004e9c:	0028      	movs	r0, r5
10004e9e:	f7fd fff3 	bl	10002e88 <__wrap___aeabi_uidiv>
10004ea2:	b2cb      	uxtb	r3, r1
10004ea4:	2909      	cmp	r1, #9
10004ea6:	d9ef      	bls.n	10004e88 <_vsnprintf+0x830>
10004ea8:	9a12      	ldr	r2, [sp, #72]	@ 0x48
10004eaa:	4694      	mov	ip, r2
10004eac:	4463      	add	r3, ip
10004eae:	b2db      	uxtb	r3, r3
10004eb0:	e7ec      	b.n	10004e8c <_vsnprintf+0x834>
10004eb2:	4646      	mov	r6, r8
10004eb4:	4648      	mov	r0, r9
10004eb6:	9f13      	ldr	r7, [sp, #76]	@ 0x4c
10004eb8:	9d14      	ldr	r5, [sp, #80]	@ 0x50
10004eba:	e6b2      	b.n	10004c22 <_vsnprintf+0x5ca>
10004ebc:	286f      	cmp	r0, #111	@ 0x6f
10004ebe:	d000      	beq.n	10004ec2 <_vsnprintf+0x86a>
10004ec0:	e13c      	b.n	1000513c <_vsnprintf+0xae4>
10004ec2:	230c      	movs	r3, #12
10004ec4:	0008      	movs	r0, r1
10004ec6:	4398      	bics	r0, r3
10004ec8:	2380      	movs	r3, #128	@ 0x80
10004eca:	000a      	movs	r2, r1
10004ecc:	00db      	lsls	r3, r3, #3
10004ece:	401a      	ands	r2, r3
10004ed0:	4691      	mov	r9, r2
10004ed2:	4219      	tst	r1, r3
10004ed4:	d000      	beq.n	10004ed8 <_vsnprintf+0x880>
10004ed6:	e12a      	b.n	1000512e <_vsnprintf+0xad6>
10004ed8:	2308      	movs	r3, #8
10004eda:	930c      	str	r3, [sp, #48]	@ 0x30
10004edc:	e67e      	b.n	10004bdc <_vsnprintf+0x584>
10004ede:	990a      	ldr	r1, [sp, #40]	@ 0x28
10004ee0:	3bfa      	subs	r3, #250	@ 0xfa
10004ee2:	3bff      	subs	r3, #255	@ 0xff
10004ee4:	3107      	adds	r1, #7
10004ee6:	4399      	bics	r1, r3
10004ee8:	3301      	adds	r3, #1
10004eea:	469c      	mov	ip, r3
10004eec:	448c      	add	ip, r1
10004eee:	4663      	mov	r3, ip
10004ef0:	684a      	ldr	r2, [r1, #4]
10004ef2:	930a      	str	r3, [sp, #40]	@ 0x28
10004ef4:	680b      	ldr	r3, [r1, #0]
10004ef6:	4690      	mov	r8, r2
10004ef8:	469c      	mov	ip, r3
10004efa:	4313      	orrs	r3, r2
10004efc:	1e19      	subs	r1, r3, #0
10004efe:	d106      	bne.n	10004f0e <_vsnprintf+0x8b6>
10004f00:	464b      	mov	r3, r9
10004f02:	3110      	adds	r1, #16
10004f04:	2400      	movs	r4, #0
10004f06:	4388      	bics	r0, r1
10004f08:	2b00      	cmp	r3, #0
10004f0a:	d000      	beq.n	10004f0e <_vsnprintf+0x8b6>
10004f0c:	e689      	b.n	10004c22 <_vsnprintf+0x5ca>
10004f0e:	2161      	movs	r1, #97	@ 0x61
10004f10:	0683      	lsls	r3, r0, #26
10004f12:	d500      	bpl.n	10004f16 <_vsnprintf+0x8be>
10004f14:	2141      	movs	r1, #65	@ 0x41
10004f16:	aa0e      	add	r2, sp, #56	@ 0x38
10004f18:	4691      	mov	r9, r2
10004f1a:	231f      	movs	r3, #31
10004f1c:	444b      	add	r3, r9
10004f1e:	4699      	mov	r9, r3
10004f20:	b2c9      	uxtb	r1, r1
10004f22:	9b0c      	ldr	r3, [sp, #48]	@ 0x30
10004f24:	390a      	subs	r1, #10
10004f26:	9713      	str	r7, [sp, #76]	@ 0x4c
10004f28:	9514      	str	r5, [sp, #80]	@ 0x50
10004f2a:	9615      	str	r6, [sp, #84]	@ 0x54
10004f2c:	4645      	mov	r5, r8
10004f2e:	464e      	mov	r6, r9
10004f30:	2400      	movs	r4, #0
10004f32:	4667      	mov	r7, ip
10004f34:	4698      	mov	r8, r3
10004f36:	4681      	mov	r9, r0
10004f38:	9112      	str	r1, [sp, #72]	@ 0x48
10004f3a:	e00c      	b.n	10004f56 <_vsnprintf+0x8fe>
10004f3c:	3230      	adds	r2, #48	@ 0x30
10004f3e:	b2d2      	uxtb	r2, r2
10004f40:	2300      	movs	r3, #0
10004f42:	3401      	adds	r4, #1
10004f44:	5532      	strb	r2, [r6, r4]
10004f46:	42ab      	cmp	r3, r5
10004f48:	d100      	bne.n	10004f4c <_vsnprintf+0x8f4>
10004f4a:	e0bc      	b.n	100050c6 <_vsnprintf+0xa6e>
10004f4c:	2c20      	cmp	r4, #32
10004f4e:	d100      	bne.n	10004f52 <_vsnprintf+0x8fa>
10004f50:	e0bc      	b.n	100050cc <_vsnprintf+0xa74>
10004f52:	0007      	movs	r7, r0
10004f54:	000d      	movs	r5, r1
10004f56:	4642      	mov	r2, r8
10004f58:	2300      	movs	r3, #0
10004f5a:	0038      	movs	r0, r7
10004f5c:	0029      	movs	r1, r5
10004f5e:	f7fd ffd1 	bl	10002f04 <__wrap___aeabi_uldivmod>
10004f62:	b2d2      	uxtb	r2, r2
10004f64:	2a09      	cmp	r2, #9
10004f66:	d9e9      	bls.n	10004f3c <_vsnprintf+0x8e4>
10004f68:	9b12      	ldr	r3, [sp, #72]	@ 0x48
10004f6a:	469c      	mov	ip, r3
10004f6c:	4462      	add	r2, ip
10004f6e:	b2d2      	uxtb	r2, r2
10004f70:	e7e6      	b.n	10004f40 <_vsnprintf+0x8e8>
10004f72:	4643      	mov	r3, r8
10004f74:	2b00      	cmp	r3, #0
10004f76:	d000      	beq.n	10004f7a <_vsnprintf+0x922>
10004f78:	e604      	b.n	10004b84 <_vsnprintf+0x52c>
10004f7a:	e5e2      	b.n	10004b42 <_vsnprintf+0x4ea>
10004f7c:	9c0a      	ldr	r4, [sp, #40]	@ 0x28
10004f7e:	cc08      	ldmia	r4!, {r3}
10004f80:	0fda      	lsrs	r2, r3, #31
10004f82:	9213      	str	r2, [sp, #76]	@ 0x4c
10004f84:	2b00      	cmp	r3, #0
10004f86:	d100      	bne.n	10004f8a <_vsnprintf+0x932>
10004f88:	e0a5      	b.n	100050d6 <_vsnprintf+0xa7e>
10004f8a:	17d9      	asrs	r1, r3, #31
10004f8c:	185b      	adds	r3, r3, r1
10004f8e:	404b      	eors	r3, r1
10004f90:	4698      	mov	r8, r3
10004f92:	aa0e      	add	r2, sp, #56	@ 0x38
10004f94:	4691      	mov	r9, r2
10004f96:	231f      	movs	r3, #31
10004f98:	444b      	add	r3, r9
10004f9a:	950c      	str	r5, [sp, #48]	@ 0x30
10004f9c:	46a1      	mov	r9, r4
10004f9e:	4645      	mov	r5, r8
10004fa0:	9612      	str	r6, [sp, #72]	@ 0x48
10004fa2:	46e0      	mov	r8, ip
10004fa4:	0006      	movs	r6, r0
10004fa6:	001c      	movs	r4, r3
10004fa8:	970a      	str	r7, [sp, #40]	@ 0x28
10004faa:	e001      	b.n	10004fb0 <_vsnprintf+0x958>
10004fac:	2e20      	cmp	r6, #32
10004fae:	d00f      	beq.n	10004fd0 <_vsnprintf+0x978>
10004fb0:	0028      	movs	r0, r5
10004fb2:	210a      	movs	r1, #10
10004fb4:	f7fd ff68 	bl	10002e88 <__wrap___aeabi_uidiv>
10004fb8:	3601      	adds	r6, #1
10004fba:	19a7      	adds	r7, r4, r6
10004fbc:	3130      	adds	r1, #48	@ 0x30
10004fbe:	7039      	strb	r1, [r7, #0]
10004fc0:	0028      	movs	r0, r5
10004fc2:	210a      	movs	r1, #10
10004fc4:	f7fd ff60 	bl	10002e88 <__wrap___aeabi_uidiv>
10004fc8:	002f      	movs	r7, r5
10004fca:	0005      	movs	r5, r0
10004fcc:	2f09      	cmp	r7, #9
10004fce:	d8ed      	bhi.n	10004fac <_vsnprintf+0x954>
10004fd0:	46c4      	mov	ip, r8
10004fd2:	464c      	mov	r4, r9
10004fd4:	0030      	movs	r0, r6
10004fd6:	9f0a      	ldr	r7, [sp, #40]	@ 0x28
10004fd8:	9d0c      	ldr	r5, [sp, #48]	@ 0x30
10004fda:	9e12      	ldr	r6, [sp, #72]	@ 0x48
10004fdc:	4663      	mov	r3, ip
10004fde:	9306      	str	r3, [sp, #24]
10004fe0:	9b0b      	ldr	r3, [sp, #44]	@ 0x2c
10004fe2:	002a      	movs	r2, r5
10004fe4:	9304      	str	r3, [sp, #16]
10004fe6:	230a      	movs	r3, #10
10004fe8:	9303      	str	r3, [sp, #12]
10004fea:	9b13      	ldr	r3, [sp, #76]	@ 0x4c
10004fec:	9001      	str	r0, [sp, #4]
10004fee:	9302      	str	r3, [sp, #8]
10004ff0:	ab16      	add	r3, sp, #88	@ 0x58
10004ff2:	9300      	str	r3, [sp, #0]
10004ff4:	4651      	mov	r1, sl
10004ff6:	465b      	mov	r3, fp
10004ff8:	9809      	ldr	r0, [sp, #36]	@ 0x24
10004ffa:	9705      	str	r7, [sp, #20]
10004ffc:	f7fe fe1e 	bl	10003c3c <_ntoa_format>
10005000:	940a      	str	r4, [sp, #40]	@ 0x28
10005002:	0005      	movs	r5, r0
10005004:	1c74      	adds	r4, r6, #1
10005006:	f7ff fb4e 	bl	100046a6 <_vsnprintf+0x4e>
1000500a:	9b0a      	ldr	r3, [sp, #40]	@ 0x28
1000500c:	cb10      	ldmia	r3!, {r4}
1000500e:	9314      	str	r3, [sp, #80]	@ 0x50
10005010:	2c00      	cmp	r4, #0
10005012:	d104      	bne.n	1000501e <_vsnprintf+0x9c6>
10005014:	2310      	movs	r3, #16
10005016:	4398      	bics	r0, r3
10005018:	464b      	mov	r3, r9
1000501a:	2b00      	cmp	r3, #0
1000501c:	d12c      	bne.n	10005078 <_vsnprintf+0xa20>
1000501e:	2361      	movs	r3, #97	@ 0x61
10005020:	0681      	lsls	r1, r0, #26
10005022:	d500      	bpl.n	10005026 <_vsnprintf+0x9ce>
10005024:	2341      	movs	r3, #65	@ 0x41
10005026:	a90e      	add	r1, sp, #56	@ 0x38
10005028:	221f      	movs	r2, #31
1000502a:	468c      	mov	ip, r1
1000502c:	b2db      	uxtb	r3, r3
1000502e:	4462      	add	r2, ip
10005030:	3b0a      	subs	r3, #10
10005032:	9712      	str	r7, [sp, #72]	@ 0x48
10005034:	9513      	str	r5, [sp, #76]	@ 0x4c
10005036:	4681      	mov	r9, r0
10005038:	4645      	mov	r5, r8
1000503a:	9f0c      	ldr	r7, [sp, #48]	@ 0x30
1000503c:	46b0      	mov	r8, r6
1000503e:	930a      	str	r3, [sp, #40]	@ 0x28
10005040:	0016      	movs	r6, r2
10005042:	e008      	b.n	10005056 <_vsnprintf+0x9fe>
10005044:	3330      	adds	r3, #48	@ 0x30
10005046:	b2db      	uxtb	r3, r3
10005048:	3501      	adds	r5, #1
1000504a:	5573      	strb	r3, [r6, r5]
1000504c:	42bc      	cmp	r4, r7
1000504e:	d30e      	bcc.n	1000506e <_vsnprintf+0xa16>
10005050:	2d20      	cmp	r5, #32
10005052:	d00c      	beq.n	1000506e <_vsnprintf+0xa16>
10005054:	0004      	movs	r4, r0
10005056:	0039      	movs	r1, r7
10005058:	0020      	movs	r0, r4
1000505a:	f7fd ff15 	bl	10002e88 <__wrap___aeabi_uidiv>
1000505e:	b2cb      	uxtb	r3, r1
10005060:	2909      	cmp	r1, #9
10005062:	d9ef      	bls.n	10005044 <_vsnprintf+0x9ec>
10005064:	9a0a      	ldr	r2, [sp, #40]	@ 0x28
10005066:	4694      	mov	ip, r2
10005068:	4463      	add	r3, ip
1000506a:	b2db      	uxtb	r3, r3
1000506c:	e7ec      	b.n	10005048 <_vsnprintf+0x9f0>
1000506e:	4648      	mov	r0, r9
10005070:	4646      	mov	r6, r8
10005072:	9f12      	ldr	r7, [sp, #72]	@ 0x48
10005074:	46a8      	mov	r8, r5
10005076:	9d13      	ldr	r5, [sp, #76]	@ 0x4c
10005078:	9b0b      	ldr	r3, [sp, #44]	@ 0x2c
1000507a:	002a      	movs	r2, r5
1000507c:	9304      	str	r3, [sp, #16]
1000507e:	9b0c      	ldr	r3, [sp, #48]	@ 0x30
10005080:	9006      	str	r0, [sp, #24]
10005082:	9303      	str	r3, [sp, #12]
10005084:	2300      	movs	r3, #0
10005086:	9302      	str	r3, [sp, #8]
10005088:	4643      	mov	r3, r8
1000508a:	9301      	str	r3, [sp, #4]
1000508c:	ab16      	add	r3, sp, #88	@ 0x58
1000508e:	9300      	str	r3, [sp, #0]
10005090:	4651      	mov	r1, sl
10005092:	465b      	mov	r3, fp
10005094:	9809      	ldr	r0, [sp, #36]	@ 0x24
10005096:	9705      	str	r7, [sp, #20]
10005098:	f7fe fdd0 	bl	10003c3c <_ntoa_format>
1000509c:	9b14      	ldr	r3, [sp, #80]	@ 0x50
1000509e:	0005      	movs	r5, r0
100050a0:	930a      	str	r3, [sp, #40]	@ 0x28
100050a2:	1c74      	adds	r4, r6, #1
100050a4:	f7ff faff 	bl	100046a6 <_vsnprintf+0x4e>
100050a8:	0603      	lsls	r3, r0, #24
100050aa:	d51f      	bpl.n	100050ec <_vsnprintf+0xa94>
100050ac:	9b0a      	ldr	r3, [sp, #40]	@ 0x28
100050ae:	cb02      	ldmia	r3!, {r1}
100050b0:	0409      	lsls	r1, r1, #16
100050b2:	0c0a      	lsrs	r2, r1, #16
100050b4:	4690      	mov	r8, r2
100050b6:	930a      	str	r3, [sp, #40]	@ 0x28
100050b8:	e5a8      	b.n	10004c0c <_vsnprintf+0x5b4>
100050ba:	230c      	movs	r3, #12
100050bc:	4399      	bics	r1, r3
100050be:	3b0a      	subs	r3, #10
100050c0:	0008      	movs	r0, r1
100050c2:	930c      	str	r3, [sp, #48]	@ 0x30
100050c4:	e58a      	b.n	10004bdc <_vsnprintf+0x584>
100050c6:	45b8      	cmp	r8, r7
100050c8:	d800      	bhi.n	100050cc <_vsnprintf+0xa74>
100050ca:	e73f      	b.n	10004f4c <_vsnprintf+0x8f4>
100050cc:	4648      	mov	r0, r9
100050ce:	9f13      	ldr	r7, [sp, #76]	@ 0x4c
100050d0:	9d14      	ldr	r5, [sp, #80]	@ 0x50
100050d2:	9e15      	ldr	r6, [sp, #84]	@ 0x54
100050d4:	e5a5      	b.n	10004c22 <_vsnprintf+0x5ca>
100050d6:	4643      	mov	r3, r8
100050d8:	2b00      	cmp	r3, #0
100050da:	d000      	beq.n	100050de <_vsnprintf+0xa86>
100050dc:	e77e      	b.n	10004fdc <_vsnprintf+0x984>
100050de:	e758      	b.n	10004f92 <_vsnprintf+0x93a>
100050e0:	c908      	ldmia	r1!, {r3}
100050e2:	17da      	asrs	r2, r3, #31
100050e4:	1898      	adds	r0, r3, r2
100050e6:	4050      	eors	r0, r2
100050e8:	910a      	str	r1, [sp, #40]	@ 0x28
100050ea:	e524      	b.n	10004b36 <_vsnprintf+0x4de>
100050ec:	9b0a      	ldr	r3, [sp, #40]	@ 0x28
100050ee:	cb04      	ldmia	r3!, {r2}
100050f0:	4690      	mov	r8, r2
100050f2:	930a      	str	r3, [sp, #40]	@ 0x28
100050f4:	e58a      	b.n	10004c0c <_vsnprintf+0x5b4>
100050f6:	0001      	movs	r1, r0
100050f8:	3101      	adds	r1, #1
100050fa:	910c      	str	r1, [sp, #48]	@ 0x30
100050fc:	e624      	b.n	10004d48 <_vsnprintf+0x6f0>
100050fe:	9f0a      	ldr	r7, [sp, #40]	@ 0x28
10005100:	1c6c      	adds	r4, r5, #1
10005102:	cf01      	ldmia	r7!, {r0}
10005104:	002a      	movs	r2, r5
10005106:	465b      	mov	r3, fp
10005108:	9d09      	ldr	r5, [sp, #36]	@ 0x24
1000510a:	4651      	mov	r1, sl
1000510c:	b2c0      	uxtb	r0, r0
1000510e:	47a8      	blx	r5
10005110:	0025      	movs	r5, r4
10005112:	970a      	str	r7, [sp, #40]	@ 0x28
10005114:	1c74      	adds	r4, r6, #1
10005116:	f7ff fac6 	bl	100046a6 <_vsnprintf+0x4e>
1000511a:	2320      	movs	r3, #32
1000511c:	4319      	orrs	r1, r3
1000511e:	230c      	movs	r3, #12
10005120:	4399      	bics	r1, r3
10005122:	2300      	movs	r3, #0
10005124:	4699      	mov	r9, r3
10005126:	3310      	adds	r3, #16
10005128:	0008      	movs	r0, r1
1000512a:	930c      	str	r3, [sp, #48]	@ 0x30
1000512c:	e556      	b.n	10004bdc <_vsnprintf+0x584>
1000512e:	2308      	movs	r3, #8
10005130:	468c      	mov	ip, r1
10005132:	930c      	str	r3, [sp, #48]	@ 0x30
10005134:	230d      	movs	r3, #13
10005136:	4660      	mov	r0, ip
10005138:	4398      	bics	r0, r3
1000513a:	e54f      	b.n	10004bdc <_vsnprintf+0x584>
1000513c:	2310      	movs	r3, #16
1000513e:	000a      	movs	r2, r1
10005140:	439a      	bics	r2, r3
10005142:	4694      	mov	ip, r2
10005144:	2869      	cmp	r0, #105	@ 0x69
10005146:	d108      	bne.n	1000515a <_vsnprintf+0xb02>
10005148:	2380      	movs	r3, #128	@ 0x80
1000514a:	000a      	movs	r2, r1
1000514c:	00db      	lsls	r3, r3, #3
1000514e:	401a      	ands	r2, r3
10005150:	4690      	mov	r8, r2
10005152:	4219      	tst	r1, r3
10005154:	d100      	bne.n	10005158 <_vsnprintf+0xb00>
10005156:	e4ce      	b.n	10004af6 <_vsnprintf+0x49e>
10005158:	e4ca      	b.n	10004af0 <_vsnprintf+0x498>
1000515a:	231c      	movs	r3, #28
1000515c:	0008      	movs	r0, r1
1000515e:	4398      	bics	r0, r3
10005160:	2380      	movs	r3, #128	@ 0x80
10005162:	000a      	movs	r2, r1
10005164:	00db      	lsls	r3, r3, #3
10005166:	401a      	ands	r2, r3
10005168:	4691      	mov	r9, r2
1000516a:	4219      	tst	r1, r3
1000516c:	d102      	bne.n	10005174 <_vsnprintf+0xb1c>
1000516e:	230a      	movs	r3, #10
10005170:	930c      	str	r3, [sp, #48]	@ 0x30
10005172:	e533      	b.n	10004bdc <_vsnprintf+0x584>
10005174:	230a      	movs	r3, #10
10005176:	930c      	str	r3, [sp, #48]	@ 0x30
10005178:	e7dc      	b.n	10005134 <_vsnprintf+0xadc>
1000517a:	46c0      	nop			@ (mov r8, r8)

1000517c <__wrap_sprintf>:
1000517c:	b40e      	push	{r1, r2, r3}
1000517e:	2201      	movs	r2, #1
10005180:	b530      	push	{r4, r5, lr}
10005182:	b084      	sub	sp, #16
10005184:	ac07      	add	r4, sp, #28
10005186:	cc08      	ldmia	r4!, {r3}
10005188:	4d06      	ldr	r5, [pc, #24]	@ (100051a4 <__wrap_sprintf+0x28>)
1000518a:	0001      	movs	r1, r0
1000518c:	9400      	str	r4, [sp, #0]
1000518e:	0028      	movs	r0, r5
10005190:	4252      	negs	r2, r2
10005192:	9403      	str	r4, [sp, #12]
10005194:	f7ff fa60 	bl	10004658 <_vsnprintf>
10005198:	b004      	add	sp, #16
1000519a:	bc30      	pop	{r4, r5}
1000519c:	bc08      	pop	{r3}
1000519e:	b003      	add	sp, #12
100051a0:	4718      	bx	r3
100051a2:	46c0      	nop			@ (mov r8, r8)
100051a4:	10003ba1 	.word	0x10003ba1

100051a8 <weak_raw_vprintf>:
100051a8:	b510      	push	{r4, lr}
100051aa:	4a09      	ldr	r2, [pc, #36]	@ (100051d0 <weak_raw_vprintf+0x28>)
100051ac:	0003      	movs	r3, r0
100051ae:	6814      	ldr	r4, [r2, #0]
100051b0:	b084      	sub	sp, #16
100051b2:	2c00      	cmp	r4, #0
100051b4:	d008      	beq.n	100051c8 <weak_raw_vprintf+0x20>
100051b6:	2201      	movs	r2, #1
100051b8:	9100      	str	r1, [sp, #0]
100051ba:	4806      	ldr	r0, [pc, #24]	@ (100051d4 <weak_raw_vprintf+0x2c>)
100051bc:	4252      	negs	r2, r2
100051be:	a903      	add	r1, sp, #12
100051c0:	47a0      	blx	r4
100051c2:	2001      	movs	r0, #1
100051c4:	b004      	add	sp, #16
100051c6:	bd10      	pop	{r4, pc}
100051c8:	f000 f972 	bl	100054b0 <__wrap_puts>
100051cc:	2000      	movs	r0, #0
100051ce:	e7f9      	b.n	100051c4 <weak_raw_vprintf+0x1c>
100051d0:	20000a50 	.word	0x20000a50
100051d4:	10003e31 	.word	0x10003e31

100051d8 <_exit>:
100051d8:	be00      	bkpt	0x0000
100051da:	e7fd      	b.n	100051d8 <_exit>

100051dc <exit>:
100051dc:	b510      	push	{r4, lr}
100051de:	f7ff fffb 	bl	100051d8 <_exit>
100051e2:	46c0      	nop			@ (mov r8, r8)

100051e4 <runtime_init>:
100051e4:	b570      	push	{r4, r5, r6, lr}
100051e6:	f7fd fd4f 	bl	10002c88 <runtime_run_initializers>
100051ea:	4d07      	ldr	r5, [pc, #28]	@ (10005208 <runtime_init+0x24>)
100051ec:	4e07      	ldr	r6, [pc, #28]	@ (1000520c <runtime_init+0x28>)
100051ee:	42b5      	cmp	r5, r6
100051f0:	d209      	bcs.n	10005206 <runtime_init+0x22>
100051f2:	2400      	movs	r4, #0
100051f4:	3e01      	subs	r6, #1
100051f6:	1b76      	subs	r6, r6, r5
100051f8:	08b6      	lsrs	r6, r6, #2
100051fa:	cd08      	ldmia	r5!, {r3}
100051fc:	4798      	blx	r3
100051fe:	0023      	movs	r3, r4
10005200:	3401      	adds	r4, #1
10005202:	42b3      	cmp	r3, r6
10005204:	d1f9      	bne.n	100051fa <runtime_init+0x16>
10005206:	bd70      	pop	{r4, r5, r6, pc}
10005208:	10005a84 	.word	0x10005a84
1000520c:	10005a88 	.word	0x10005a88

10005210 <stdio_out_chars_no_crlf>:
10005210:	0003      	movs	r3, r0
10005212:	b510      	push	{r4, lr}
10005214:	0008      	movs	r0, r1
10005216:	0011      	movs	r1, r2
10005218:	681b      	ldr	r3, [r3, #0]
1000521a:	4798      	blx	r3
1000521c:	bd10      	pop	{r4, pc}
1000521e:	46c0      	nop			@ (mov r8, r8)

10005220 <stdio_out_chars_crlf>:
10005220:	b5f0      	push	{r4, r5, r6, r7, lr}
10005222:	4646      	mov	r6, r8
10005224:	464f      	mov	r7, r9
10005226:	46d6      	mov	lr, sl
10005228:	b5c0      	push	{r6, r7, lr}
1000522a:	7d43      	ldrb	r3, [r0, #21]
1000522c:	4680      	mov	r8, r0
1000522e:	000e      	movs	r6, r1
10005230:	0017      	movs	r7, r2
10005232:	2b00      	cmp	r3, #0
10005234:	d04b      	beq.n	100052ce <stdio_out_chars_crlf+0xae>
10005236:	2a00      	cmp	r2, #0
10005238:	dd32      	ble.n	100052a0 <stdio_out_chars_crlf+0x80>
1000523a:	4b27      	ldr	r3, [pc, #156]	@ (100052d8 <stdio_out_chars_crlf+0xb8>)
1000523c:	2501      	movs	r5, #1
1000523e:	469a      	mov	sl, r3
10005240:	1e4b      	subs	r3, r1, #1
10005242:	2400      	movs	r4, #0
10005244:	2000      	movs	r0, #0
10005246:	4699      	mov	r9, r3
10005248:	e007      	b.n	1000525a <stdio_out_chars_crlf+0x3a>
1000524a:	5d33      	ldrb	r3, [r6, r4]
1000524c:	2b0a      	cmp	r3, #10
1000524e:	d02c      	beq.n	100052aa <stdio_out_chars_crlf+0x8a>
10005250:	002b      	movs	r3, r5
10005252:	3401      	adds	r4, #1
10005254:	3501      	adds	r5, #1
10005256:	42bb      	cmp	r3, r7
10005258:	da13      	bge.n	10005282 <stdio_out_chars_crlf+0x62>
1000525a:	2c00      	cmp	r4, #0
1000525c:	d1f5      	bne.n	1000524a <stdio_out_chars_crlf+0x2a>
1000525e:	7833      	ldrb	r3, [r6, #0]
10005260:	2b0a      	cmp	r3, #10
10005262:	d1f5      	bne.n	10005250 <stdio_out_chars_crlf+0x30>
10005264:	4643      	mov	r3, r8
10005266:	7d1b      	ldrb	r3, [r3, #20]
10005268:	2b00      	cmp	r3, #0
1000526a:	d1f1      	bne.n	10005250 <stdio_out_chars_crlf+0x30>
1000526c:	4643      	mov	r3, r8
1000526e:	4650      	mov	r0, sl
10005270:	2102      	movs	r1, #2
10005272:	681b      	ldr	r3, [r3, #0]
10005274:	4798      	blx	r3
10005276:	0028      	movs	r0, r5
10005278:	002b      	movs	r3, r5
1000527a:	3401      	adds	r4, #1
1000527c:	3501      	adds	r5, #1
1000527e:	42bb      	cmp	r3, r7
10005280:	dbeb      	blt.n	1000525a <stdio_out_chars_crlf+0x3a>
10005282:	4287      	cmp	r7, r0
10005284:	dd04      	ble.n	10005290 <stdio_out_chars_crlf+0x70>
10005286:	4643      	mov	r3, r8
10005288:	1a39      	subs	r1, r7, r0
1000528a:	681b      	ldr	r3, [r3, #0]
1000528c:	1830      	adds	r0, r6, r0
1000528e:	4798      	blx	r3
10005290:	19f6      	adds	r6, r6, r7
10005292:	3e01      	subs	r6, #1
10005294:	7833      	ldrb	r3, [r6, #0]
10005296:	3b0d      	subs	r3, #13
10005298:	425a      	negs	r2, r3
1000529a:	4153      	adcs	r3, r2
1000529c:	4642      	mov	r2, r8
1000529e:	7513      	strb	r3, [r2, #20]
100052a0:	bce0      	pop	{r5, r6, r7}
100052a2:	46ba      	mov	sl, r7
100052a4:	46b1      	mov	r9, r6
100052a6:	46a8      	mov	r8, r5
100052a8:	bdf0      	pop	{r4, r5, r6, r7, pc}
100052aa:	464b      	mov	r3, r9
100052ac:	5d1b      	ldrb	r3, [r3, r4]
100052ae:	2b0d      	cmp	r3, #13
100052b0:	d0ce      	beq.n	10005250 <stdio_out_chars_crlf+0x30>
100052b2:	42a0      	cmp	r0, r4
100052b4:	dada      	bge.n	1000526c <stdio_out_chars_crlf+0x4c>
100052b6:	4643      	mov	r3, r8
100052b8:	1a21      	subs	r1, r4, r0
100052ba:	681b      	ldr	r3, [r3, #0]
100052bc:	1830      	adds	r0, r6, r0
100052be:	4798      	blx	r3
100052c0:	4643      	mov	r3, r8
100052c2:	4650      	mov	r0, sl
100052c4:	2102      	movs	r1, #2
100052c6:	681b      	ldr	r3, [r3, #0]
100052c8:	4798      	blx	r3
100052ca:	0028      	movs	r0, r5
100052cc:	e7d4      	b.n	10005278 <stdio_out_chars_crlf+0x58>
100052ce:	6803      	ldr	r3, [r0, #0]
100052d0:	0011      	movs	r1, r2
100052d2:	0030      	movs	r0, r6
100052d4:	4798      	blx	r3
100052d6:	e7e3      	b.n	100052a0 <stdio_out_chars_crlf+0x80>
100052d8:	10006348 	.word	0x10006348

100052dc <stdio_put_string>:
100052dc:	b5f0      	push	{r4, r5, r6, r7, lr}
100052de:	46de      	mov	lr, fp
100052e0:	4657      	mov	r7, sl
100052e2:	464e      	mov	r6, r9
100052e4:	4645      	mov	r5, r8
100052e6:	b5e0      	push	{r5, r6, r7, lr}
100052e8:	b085      	sub	sp, #20
100052ea:	0017      	movs	r7, r2
100052ec:	001c      	movs	r4, r3
100052ee:	0006      	movs	r6, r0
100052f0:	000d      	movs	r5, r1
100052f2:	f7fd fa53 	bl	1000279c <time_us_64>
100052f6:	2300      	movs	r3, #0
100052f8:	4a31      	ldr	r2, [pc, #196]	@ (100053c0 <stdio_put_string+0xe4>)
100052fa:	1812      	adds	r2, r2, r0
100052fc:	414b      	adcs	r3, r1
100052fe:	2180      	movs	r1, #128	@ 0x80
10005300:	0609      	lsls	r1, r1, #24
10005302:	428b      	cmp	r3, r1
10005304:	d302      	bcc.n	1000530c <stdio_put_string+0x30>
10005306:	2201      	movs	r2, #1
10005308:	4b2e      	ldr	r3, [pc, #184]	@ (100053c4 <stdio_put_string+0xe8>)
1000530a:	4252      	negs	r2, r2
1000530c:	492e      	ldr	r1, [pc, #184]	@ (100053c8 <stdio_put_string+0xec>)
1000530e:	0008      	movs	r0, r1
10005310:	468a      	mov	sl, r1
10005312:	f000 fb91 	bl	10005a38 <__mutex_try_enter_block_until_veneer>
10005316:	9001      	str	r0, [sp, #4]
10005318:	1c6b      	adds	r3, r5, #1
1000531a:	d103      	bne.n	10005324 <stdio_put_string+0x48>
1000531c:	0030      	movs	r0, r6
1000531e:	f000 fb41 	bl	100059a4 <strlen>
10005322:	0005      	movs	r5, r0
10005324:	2c00      	cmp	r4, #0
10005326:	d026      	beq.n	10005376 <stdio_put_string+0x9a>
10005328:	4b28      	ldr	r3, [pc, #160]	@ (100053cc <stdio_put_string+0xf0>)
1000532a:	4698      	mov	r8, r3
1000532c:	4b28      	ldr	r3, [pc, #160]	@ (100053d0 <stdio_put_string+0xf4>)
1000532e:	681c      	ldr	r4, [r3, #0]
10005330:	2c00      	cmp	r4, #0
10005332:	d015      	beq.n	10005360 <stdio_put_string+0x84>
10005334:	2f00      	cmp	r7, #0
10005336:	d121      	bne.n	1000537c <stdio_put_string+0xa0>
10005338:	4f26      	ldr	r7, [pc, #152]	@ (100053d4 <stdio_put_string+0xf8>)
1000533a:	e002      	b.n	10005342 <stdio_put_string+0x66>
1000533c:	6924      	ldr	r4, [r4, #16]
1000533e:	2c00      	cmp	r4, #0
10005340:	d00e      	beq.n	10005360 <stdio_put_string+0x84>
10005342:	6823      	ldr	r3, [r4, #0]
10005344:	2b00      	cmp	r3, #0
10005346:	d0f9      	beq.n	1000533c <stdio_put_string+0x60>
10005348:	683b      	ldr	r3, [r7, #0]
1000534a:	2b00      	cmp	r3, #0
1000534c:	d001      	beq.n	10005352 <stdio_put_string+0x76>
1000534e:	42a3      	cmp	r3, r4
10005350:	d1f4      	bne.n	1000533c <stdio_put_string+0x60>
10005352:	0020      	movs	r0, r4
10005354:	002a      	movs	r2, r5
10005356:	0031      	movs	r1, r6
10005358:	47c0      	blx	r8
1000535a:	6924      	ldr	r4, [r4, #16]
1000535c:	2c00      	cmp	r4, #0
1000535e:	d1f0      	bne.n	10005342 <stdio_put_string+0x66>
10005360:	9b01      	ldr	r3, [sp, #4]
10005362:	2b00      	cmp	r3, #0
10005364:	d128      	bne.n	100053b8 <stdio_put_string+0xdc>
10005366:	0028      	movs	r0, r5
10005368:	b005      	add	sp, #20
1000536a:	bcf0      	pop	{r4, r5, r6, r7}
1000536c:	46bb      	mov	fp, r7
1000536e:	46b2      	mov	sl, r6
10005370:	46a9      	mov	r9, r5
10005372:	46a0      	mov	r8, r4
10005374:	bdf0      	pop	{r4, r5, r6, r7, pc}
10005376:	4b18      	ldr	r3, [pc, #96]	@ (100053d8 <stdio_put_string+0xfc>)
10005378:	4698      	mov	r8, r3
1000537a:	e7d7      	b.n	1000532c <stdio_put_string+0x50>
1000537c:	4b15      	ldr	r3, [pc, #84]	@ (100053d4 <stdio_put_string+0xf8>)
1000537e:	4699      	mov	r9, r3
10005380:	ab02      	add	r3, sp, #8
10005382:	1ddf      	adds	r7, r3, #7
10005384:	230a      	movs	r3, #10
10005386:	469b      	mov	fp, r3
10005388:	e002      	b.n	10005390 <stdio_put_string+0xb4>
1000538a:	6924      	ldr	r4, [r4, #16]
1000538c:	2c00      	cmp	r4, #0
1000538e:	d0e7      	beq.n	10005360 <stdio_put_string+0x84>
10005390:	6823      	ldr	r3, [r4, #0]
10005392:	2b00      	cmp	r3, #0
10005394:	d0f9      	beq.n	1000538a <stdio_put_string+0xae>
10005396:	464b      	mov	r3, r9
10005398:	681b      	ldr	r3, [r3, #0]
1000539a:	2b00      	cmp	r3, #0
1000539c:	d001      	beq.n	100053a2 <stdio_put_string+0xc6>
1000539e:	42a3      	cmp	r3, r4
100053a0:	d1f3      	bne.n	1000538a <stdio_put_string+0xae>
100053a2:	002a      	movs	r2, r5
100053a4:	0031      	movs	r1, r6
100053a6:	0020      	movs	r0, r4
100053a8:	47c0      	blx	r8
100053aa:	465b      	mov	r3, fp
100053ac:	2201      	movs	r2, #1
100053ae:	0039      	movs	r1, r7
100053b0:	0020      	movs	r0, r4
100053b2:	703b      	strb	r3, [r7, #0]
100053b4:	47c0      	blx	r8
100053b6:	e7e8      	b.n	1000538a <stdio_put_string+0xae>
100053b8:	4650      	mov	r0, sl
100053ba:	f000 fb25 	bl	10005a08 <__mutex_exit_veneer>
100053be:	e7d2      	b.n	10005366 <stdio_put_string+0x8a>
100053c0:	000f4240 	.word	0x000f4240
100053c4:	7fffffff 	.word	0x7fffffff
100053c8:	20000668 	.word	0x20000668
100053cc:	10005221 	.word	0x10005221
100053d0:	20000a48 	.word	0x20000a48
100053d4:	20000a4c 	.word	0x20000a4c
100053d8:	10005211 	.word	0x10005211

100053dc <stdio_set_driver_enabled>:
100053dc:	4a0a      	ldr	r2, [pc, #40]	@ (10005408 <stdio_set_driver_enabled+0x2c>)
100053de:	6813      	ldr	r3, [r2, #0]
100053e0:	2b00      	cmp	r3, #0
100053e2:	d105      	bne.n	100053f0 <stdio_set_driver_enabled+0x14>
100053e4:	e00c      	b.n	10005400 <stdio_set_driver_enabled+0x24>
100053e6:	001a      	movs	r2, r3
100053e8:	691b      	ldr	r3, [r3, #16]
100053ea:	3210      	adds	r2, #16
100053ec:	2b00      	cmp	r3, #0
100053ee:	d007      	beq.n	10005400 <stdio_set_driver_enabled+0x24>
100053f0:	4298      	cmp	r0, r3
100053f2:	d1f8      	bne.n	100053e6 <stdio_set_driver_enabled+0xa>
100053f4:	2900      	cmp	r1, #0
100053f6:	d102      	bne.n	100053fe <stdio_set_driver_enabled+0x22>
100053f8:	6903      	ldr	r3, [r0, #16]
100053fa:	6013      	str	r3, [r2, #0]
100053fc:	6101      	str	r1, [r0, #16]
100053fe:	4770      	bx	lr
10005400:	2900      	cmp	r1, #0
10005402:	d0fc      	beq.n	100053fe <stdio_set_driver_enabled+0x22>
10005404:	6010      	str	r0, [r2, #0]
10005406:	e7fa      	b.n	100053fe <stdio_set_driver_enabled+0x22>
10005408:	20000a48 	.word	0x20000a48

1000540c <stdio_init_all>:
1000540c:	b510      	push	{r4, lr}
1000540e:	f000 f941 	bl	10005694 <stdio_uart_init>
10005412:	2001      	movs	r0, #1
10005414:	bd10      	pop	{r4, pc}
10005416:	46c0      	nop			@ (mov r8, r8)

10005418 <__wrap_putchar>:
10005418:	b5f0      	push	{r4, r5, r6, r7, lr}
1000541a:	46ce      	mov	lr, r9
1000541c:	4647      	mov	r7, r8
1000541e:	b580      	push	{r7, lr}
10005420:	b083      	sub	sp, #12
10005422:	466b      	mov	r3, sp
10005424:	0006      	movs	r6, r0
10005426:	1ddd      	adds	r5, r3, #7
10005428:	7028      	strb	r0, [r5, #0]
1000542a:	f7fd f9b7 	bl	1000279c <time_us_64>
1000542e:	2300      	movs	r3, #0
10005430:	4a1a      	ldr	r2, [pc, #104]	@ (1000549c <__wrap_putchar+0x84>)
10005432:	1812      	adds	r2, r2, r0
10005434:	414b      	adcs	r3, r1
10005436:	2180      	movs	r1, #128	@ 0x80
10005438:	0609      	lsls	r1, r1, #24
1000543a:	428b      	cmp	r3, r1
1000543c:	d302      	bcc.n	10005444 <__wrap_putchar+0x2c>
1000543e:	2201      	movs	r2, #1
10005440:	4b17      	ldr	r3, [pc, #92]	@ (100054a0 <__wrap_putchar+0x88>)
10005442:	4252      	negs	r2, r2
10005444:	4917      	ldr	r1, [pc, #92]	@ (100054a4 <__wrap_putchar+0x8c>)
10005446:	0008      	movs	r0, r1
10005448:	4688      	mov	r8, r1
1000544a:	f000 faf5 	bl	10005a38 <__mutex_try_enter_block_until_veneer>
1000544e:	4b16      	ldr	r3, [pc, #88]	@ (100054a8 <__wrap_putchar+0x90>)
10005450:	4681      	mov	r9, r0
10005452:	681c      	ldr	r4, [r3, #0]
10005454:	2c00      	cmp	r4, #0
10005456:	d014      	beq.n	10005482 <__wrap_putchar+0x6a>
10005458:	4f14      	ldr	r7, [pc, #80]	@ (100054ac <__wrap_putchar+0x94>)
1000545a:	e002      	b.n	10005462 <__wrap_putchar+0x4a>
1000545c:	6924      	ldr	r4, [r4, #16]
1000545e:	2c00      	cmp	r4, #0
10005460:	d00f      	beq.n	10005482 <__wrap_putchar+0x6a>
10005462:	6823      	ldr	r3, [r4, #0]
10005464:	2b00      	cmp	r3, #0
10005466:	d0f9      	beq.n	1000545c <__wrap_putchar+0x44>
10005468:	683b      	ldr	r3, [r7, #0]
1000546a:	2b00      	cmp	r3, #0
1000546c:	d001      	beq.n	10005472 <__wrap_putchar+0x5a>
1000546e:	42a3      	cmp	r3, r4
10005470:	d1f4      	bne.n	1000545c <__wrap_putchar+0x44>
10005472:	0020      	movs	r0, r4
10005474:	2201      	movs	r2, #1
10005476:	0029      	movs	r1, r5
10005478:	f7ff fed2 	bl	10005220 <stdio_out_chars_crlf>
1000547c:	6924      	ldr	r4, [r4, #16]
1000547e:	2c00      	cmp	r4, #0
10005480:	d1ef      	bne.n	10005462 <__wrap_putchar+0x4a>
10005482:	464b      	mov	r3, r9
10005484:	2b00      	cmp	r3, #0
10005486:	d105      	bne.n	10005494 <__wrap_putchar+0x7c>
10005488:	0030      	movs	r0, r6
1000548a:	b003      	add	sp, #12
1000548c:	bcc0      	pop	{r6, r7}
1000548e:	46b9      	mov	r9, r7
10005490:	46b0      	mov	r8, r6
10005492:	bdf0      	pop	{r4, r5, r6, r7, pc}
10005494:	4640      	mov	r0, r8
10005496:	f000 fab7 	bl	10005a08 <__mutex_exit_veneer>
1000549a:	e7f5      	b.n	10005488 <__wrap_putchar+0x70>
1000549c:	000f4240 	.word	0x000f4240
100054a0:	7fffffff 	.word	0x7fffffff
100054a4:	20000668 	.word	0x20000668
100054a8:	20000a48 	.word	0x20000a48
100054ac:	20000a4c 	.word	0x20000a4c

100054b0 <__wrap_puts>:
100054b0:	b570      	push	{r4, r5, r6, lr}
100054b2:	0004      	movs	r4, r0
100054b4:	f000 fa76 	bl	100059a4 <strlen>
100054b8:	2301      	movs	r3, #1
100054ba:	0001      	movs	r1, r0
100054bc:	0005      	movs	r5, r0
100054be:	2201      	movs	r2, #1
100054c0:	0020      	movs	r0, r4
100054c2:	f7ff ff0b 	bl	100052dc <stdio_put_string>
100054c6:	4b08      	ldr	r3, [pc, #32]	@ (100054e8 <__wrap_puts+0x38>)
100054c8:	681c      	ldr	r4, [r3, #0]
100054ca:	2c00      	cmp	r4, #0
100054cc:	d006      	beq.n	100054dc <__wrap_puts+0x2c>
100054ce:	6863      	ldr	r3, [r4, #4]
100054d0:	2b00      	cmp	r3, #0
100054d2:	d005      	beq.n	100054e0 <__wrap_puts+0x30>
100054d4:	4798      	blx	r3
100054d6:	6924      	ldr	r4, [r4, #16]
100054d8:	2c00      	cmp	r4, #0
100054da:	d1f8      	bne.n	100054ce <__wrap_puts+0x1e>
100054dc:	0028      	movs	r0, r5
100054de:	bd70      	pop	{r4, r5, r6, pc}
100054e0:	6924      	ldr	r4, [r4, #16]
100054e2:	2c00      	cmp	r4, #0
100054e4:	d1f3      	bne.n	100054ce <__wrap_puts+0x1e>
100054e6:	e7f9      	b.n	100054dc <__wrap_puts+0x2c>
100054e8:	20000a48 	.word	0x20000a48

100054ec <stdio_uart_out_chars>:
100054ec:	b5f0      	push	{r4, r5, r6, r7, lr}
100054ee:	2900      	cmp	r1, #0
100054f0:	dd15      	ble.n	1000551e <stdio_uart_out_chars+0x32>
100054f2:	4b0e      	ldr	r3, [pc, #56]	@ (1000552c <stdio_uart_out_chars+0x40>)
100054f4:	270d      	movs	r7, #13
100054f6:	681a      	ldr	r2, [r3, #0]
100054f8:	4b0d      	ldr	r3, [pc, #52]	@ (10005530 <stdio_uart_out_chars+0x44>)
100054fa:	4c0e      	ldr	r4, [pc, #56]	@ (10005534 <stdio_uart_out_chars+0x48>)
100054fc:	18d3      	adds	r3, r2, r3
100054fe:	425d      	negs	r5, r3
10005500:	416b      	adcs	r3, r5
10005502:	1845      	adds	r5, r0, r1
10005504:	2120      	movs	r1, #32
10005506:	005b      	lsls	r3, r3, #1
10005508:	5f1e      	ldrsh	r6, [r3, r4]
1000550a:	7804      	ldrb	r4, [r0, #0]
1000550c:	42a6      	cmp	r6, r4
1000550e:	d007      	beq.n	10005520 <stdio_uart_out_chars+0x34>
10005510:	6993      	ldr	r3, [r2, #24]
10005512:	4219      	tst	r1, r3
10005514:	d1fc      	bne.n	10005510 <stdio_uart_out_chars+0x24>
10005516:	3001      	adds	r0, #1
10005518:	6014      	str	r4, [r2, #0]
1000551a:	42a8      	cmp	r0, r5
1000551c:	d1f5      	bne.n	1000550a <stdio_uart_out_chars+0x1e>
1000551e:	bdf0      	pop	{r4, r5, r6, r7, pc}
10005520:	6993      	ldr	r3, [r2, #24]
10005522:	4219      	tst	r1, r3
10005524:	d1fc      	bne.n	10005520 <stdio_uart_out_chars+0x34>
10005526:	6017      	str	r7, [r2, #0]
10005528:	e7f2      	b.n	10005510 <stdio_uart_out_chars+0x24>
1000552a:	46c0      	nop			@ (mov r8, r8)
1000552c:	20000aa0 	.word	0x20000aa0
10005530:	bffc8000 	.word	0xbffc8000
10005534:	20000a9c 	.word	0x20000a9c

10005538 <stdio_uart_in_chars>:
10005538:	b530      	push	{r4, r5, lr}
1000553a:	0004      	movs	r4, r0
1000553c:	1e0d      	subs	r5, r1, #0
1000553e:	dd2e      	ble.n	1000559e <stdio_uart_in_chars+0x66>
10005540:	2000      	movs	r0, #0
10005542:	2110      	movs	r1, #16
10005544:	4b1f      	ldr	r3, [pc, #124]	@ (100055c4 <stdio_uart_in_chars+0x8c>)
10005546:	3c01      	subs	r4, #1
10005548:	681a      	ldr	r2, [r3, #0]
1000554a:	6993      	ldr	r3, [r2, #24]
1000554c:	4219      	tst	r1, r3
1000554e:	d116      	bne.n	1000557e <stdio_uart_in_chars+0x46>
10005550:	3001      	adds	r0, #1
10005552:	6993      	ldr	r3, [r2, #24]
10005554:	4219      	tst	r1, r3
10005556:	d1fc      	bne.n	10005552 <stdio_uart_in_chars+0x1a>
10005558:	6813      	ldr	r3, [r2, #0]
1000555a:	5423      	strb	r3, [r4, r0]
1000555c:	4285      	cmp	r5, r0
1000555e:	d1f4      	bne.n	1000554a <stdio_uart_in_chars+0x12>
10005560:	4b19      	ldr	r3, [pc, #100]	@ (100055c8 <stdio_uart_in_chars+0x90>)
10005562:	681b      	ldr	r3, [r3, #0]
10005564:	2b00      	cmp	r3, #0
10005566:	d008      	beq.n	1000557a <stdio_uart_in_chars+0x42>
10005568:	2350      	movs	r3, #80	@ 0x50
1000556a:	6393      	str	r3, [r2, #56]	@ 0x38
1000556c:	6b51      	ldr	r1, [r2, #52]	@ 0x34
1000556e:	3b18      	subs	r3, #24
10005570:	400b      	ands	r3, r1
10005572:	4916      	ldr	r1, [pc, #88]	@ (100055cc <stdio_uart_in_chars+0x94>)
10005574:	468c      	mov	ip, r1
10005576:	4462      	add	r2, ip
10005578:	6013      	str	r3, [r2, #0]
1000557a:	0028      	movs	r0, r5
1000557c:	e00e      	b.n	1000559c <stdio_uart_in_chars+0x64>
1000557e:	4b12      	ldr	r3, [pc, #72]	@ (100055c8 <stdio_uart_in_chars+0x90>)
10005580:	681b      	ldr	r3, [r3, #0]
10005582:	2b00      	cmp	r3, #0
10005584:	d008      	beq.n	10005598 <stdio_uart_in_chars+0x60>
10005586:	2350      	movs	r3, #80	@ 0x50
10005588:	6393      	str	r3, [r2, #56]	@ 0x38
1000558a:	6b51      	ldr	r1, [r2, #52]	@ 0x34
1000558c:	3b18      	subs	r3, #24
1000558e:	400b      	ands	r3, r1
10005590:	490e      	ldr	r1, [pc, #56]	@ (100055cc <stdio_uart_in_chars+0x94>)
10005592:	468c      	mov	ip, r1
10005594:	4462      	add	r2, ip
10005596:	6013      	str	r3, [r2, #0]
10005598:	2800      	cmp	r0, #0
1000559a:	d00f      	beq.n	100055bc <stdio_uart_in_chars+0x84>
1000559c:	bd30      	pop	{r4, r5, pc}
1000559e:	4b0a      	ldr	r3, [pc, #40]	@ (100055c8 <stdio_uart_in_chars+0x90>)
100055a0:	681b      	ldr	r3, [r3, #0]
100055a2:	2b00      	cmp	r3, #0
100055a4:	d00a      	beq.n	100055bc <stdio_uart_in_chars+0x84>
100055a6:	2250      	movs	r2, #80	@ 0x50
100055a8:	4b06      	ldr	r3, [pc, #24]	@ (100055c4 <stdio_uart_in_chars+0x8c>)
100055aa:	681b      	ldr	r3, [r3, #0]
100055ac:	639a      	str	r2, [r3, #56]	@ 0x38
100055ae:	6b59      	ldr	r1, [r3, #52]	@ 0x34
100055b0:	3a18      	subs	r2, #24
100055b2:	400a      	ands	r2, r1
100055b4:	4905      	ldr	r1, [pc, #20]	@ (100055cc <stdio_uart_in_chars+0x94>)
100055b6:	468c      	mov	ip, r1
100055b8:	4463      	add	r3, ip
100055ba:	601a      	str	r2, [r3, #0]
100055bc:	2003      	movs	r0, #3
100055be:	4240      	negs	r0, r0
100055c0:	e7ec      	b.n	1000559c <stdio_uart_in_chars+0x64>
100055c2:	46c0      	nop			@ (mov r8, r8)
100055c4:	20000aa0 	.word	0x20000aa0
100055c8:	20000a14 	.word	0x20000a14
100055cc:	00001034 	.word	0x00001034

100055d0 <on_uart_rx>:
100055d0:	4b06      	ldr	r3, [pc, #24]	@ (100055ec <on_uart_rx+0x1c>)
100055d2:	b510      	push	{r4, lr}
100055d4:	681b      	ldr	r3, [r3, #0]
100055d6:	2b00      	cmp	r3, #0
100055d8:	d006      	beq.n	100055e8 <on_uart_rx+0x18>
100055da:	2100      	movs	r1, #0
100055dc:	4a04      	ldr	r2, [pc, #16]	@ (100055f0 <on_uart_rx+0x20>)
100055de:	6812      	ldr	r2, [r2, #0]
100055e0:	6391      	str	r1, [r2, #56]	@ 0x38
100055e2:	4a04      	ldr	r2, [pc, #16]	@ (100055f4 <on_uart_rx+0x24>)
100055e4:	6810      	ldr	r0, [r2, #0]
100055e6:	4798      	blx	r3
100055e8:	bd10      	pop	{r4, pc}
100055ea:	46c0      	nop			@ (mov r8, r8)
100055ec:	20000a14 	.word	0x20000a14
100055f0:	20000aa0 	.word	0x20000aa0
100055f4:	20000a18 	.word	0x20000a18

100055f8 <stdio_uart_out_flush>:
100055f8:	2208      	movs	r2, #8
100055fa:	4b03      	ldr	r3, [pc, #12]	@ (10005608 <stdio_uart_out_flush+0x10>)
100055fc:	6819      	ldr	r1, [r3, #0]
100055fe:	698b      	ldr	r3, [r1, #24]
10005600:	421a      	tst	r2, r3
10005602:	d1fc      	bne.n	100055fe <stdio_uart_out_flush+0x6>
10005604:	4770      	bx	lr
10005606:	46c0      	nop			@ (mov r8, r8)
10005608:	20000aa0 	.word	0x20000aa0

1000560c <stdio_uart_set_chars_available_callback>:
1000560c:	b570      	push	{r4, r5, r6, lr}
1000560e:	4e1b      	ldr	r6, [pc, #108]	@ (1000567c <stdio_uart_set_chars_available_callback+0x70>)
10005610:	4b1b      	ldr	r3, [pc, #108]	@ (10005680 <stdio_uart_set_chars_available_callback+0x74>)
10005612:	6832      	ldr	r2, [r6, #0]
10005614:	0005      	movs	r5, r0
10005616:	18d3      	adds	r3, r2, r3
10005618:	4258      	negs	r0, r3
1000561a:	4143      	adcs	r3, r0
1000561c:	3314      	adds	r3, #20
1000561e:	001c      	movs	r4, r3
10005620:	2d00      	cmp	r5, #0
10005622:	d004      	beq.n	1000562e <stdio_uart_set_chars_available_callback+0x22>
10005624:	4b17      	ldr	r3, [pc, #92]	@ (10005684 <stdio_uart_set_chars_available_callback+0x78>)
10005626:	681a      	ldr	r2, [r3, #0]
10005628:	2a00      	cmp	r2, #0
1000562a:	d011      	beq.n	10005650 <stdio_uart_set_chars_available_callback+0x44>
1000562c:	bd70      	pop	{r4, r5, r6, pc}
1000562e:	4e15      	ldr	r6, [pc, #84]	@ (10005684 <stdio_uart_set_chars_available_callback+0x78>)
10005630:	6833      	ldr	r3, [r6, #0]
10005632:	2b00      	cmp	r3, #0
10005634:	d0fa      	beq.n	1000562c <stdio_uart_set_chars_available_callback+0x20>
10005636:	2100      	movs	r1, #0
10005638:	0020      	movs	r0, r4
1000563a:	6395      	str	r5, [r2, #56]	@ 0x38
1000563c:	f7fc fab2 	bl	10001ba4 <irq_set_enabled>
10005640:	0020      	movs	r0, r4
10005642:	4911      	ldr	r1, [pc, #68]	@ (10005688 <stdio_uart_set_chars_available_callback+0x7c>)
10005644:	f7fc faea 	bl	10001c1c <irq_remove_handler>
10005648:	4b10      	ldr	r3, [pc, #64]	@ (1000568c <stdio_uart_set_chars_available_callback+0x80>)
1000564a:	6035      	str	r5, [r6, #0]
1000564c:	601d      	str	r5, [r3, #0]
1000564e:	e7ed      	b.n	1000562c <stdio_uart_set_chars_available_callback+0x20>
10005650:	601d      	str	r5, [r3, #0]
10005652:	4b0e      	ldr	r3, [pc, #56]	@ (1000568c <stdio_uart_set_chars_available_callback+0x80>)
10005654:	0020      	movs	r0, r4
10005656:	6019      	str	r1, [r3, #0]
10005658:	490b      	ldr	r1, [pc, #44]	@ (10005688 <stdio_uart_set_chars_available_callback+0x7c>)
1000565a:	f7fc fab5 	bl	10001bc8 <irq_set_exclusive_handler>
1000565e:	2101      	movs	r1, #1
10005660:	0020      	movs	r0, r4
10005662:	f7fc fa9f 	bl	10001ba4 <irq_set_enabled>
10005666:	2250      	movs	r2, #80	@ 0x50
10005668:	6833      	ldr	r3, [r6, #0]
1000566a:	639a      	str	r2, [r3, #56]	@ 0x38
1000566c:	6b59      	ldr	r1, [r3, #52]	@ 0x34
1000566e:	3a18      	subs	r2, #24
10005670:	400a      	ands	r2, r1
10005672:	4907      	ldr	r1, [pc, #28]	@ (10005690 <stdio_uart_set_chars_available_callback+0x84>)
10005674:	468c      	mov	ip, r1
10005676:	4463      	add	r3, ip
10005678:	601a      	str	r2, [r3, #0]
1000567a:	e7d7      	b.n	1000562c <stdio_uart_set_chars_available_callback+0x20>
1000567c:	20000aa0 	.word	0x20000aa0
10005680:	bffc8000 	.word	0xbffc8000
10005684:	20000a14 	.word	0x20000a14
10005688:	100055d1 	.word	0x100055d1
1000568c:	20000a18 	.word	0x20000a18
10005690:	00001034 	.word	0x00001034

10005694 <stdio_uart_init>:
10005694:	4b0d      	ldr	r3, [pc, #52]	@ (100056cc <stdio_uart_init+0x38>)
10005696:	b510      	push	{r4, lr}
10005698:	781b      	ldrb	r3, [r3, #0]
1000569a:	4b0d      	ldr	r3, [pc, #52]	@ (100056d0 <stdio_uart_init+0x3c>)
1000569c:	4c0d      	ldr	r4, [pc, #52]	@ (100056d4 <stdio_uart_init+0x40>)
1000569e:	781b      	ldrb	r3, [r3, #0]
100056a0:	4b0d      	ldr	r3, [pc, #52]	@ (100056d8 <stdio_uart_init+0x44>)
100056a2:	2102      	movs	r1, #2
100056a4:	781b      	ldrb	r3, [r3, #0]
100056a6:	4b0d      	ldr	r3, [pc, #52]	@ (100056dc <stdio_uart_init+0x48>)
100056a8:	2000      	movs	r0, #0
100056aa:	6023      	str	r3, [r4, #0]
100056ac:	f7fc f996 	bl	100019dc <gpio_set_function>
100056b0:	2102      	movs	r1, #2
100056b2:	2001      	movs	r0, #1
100056b4:	f7fc f992 	bl	100019dc <gpio_set_function>
100056b8:	21e1      	movs	r1, #225	@ 0xe1
100056ba:	6820      	ldr	r0, [r4, #0]
100056bc:	0249      	lsls	r1, r1, #9
100056be:	f7fd f8bb 	bl	10002838 <uart_init>
100056c2:	2101      	movs	r1, #1
100056c4:	4806      	ldr	r0, [pc, #24]	@ (100056e0 <stdio_uart_init+0x4c>)
100056c6:	f7ff fe89 	bl	100053dc <stdio_set_driver_enabled>
100056ca:	bd10      	pop	{r4, pc}
100056cc:	100063d8 	.word	0x100063d8
100056d0:	100063d4 	.word	0x100063d4
100056d4:	20000aa0 	.word	0x20000aa0
100056d8:	100063d0 	.word	0x100063d0
100056dc:	40034000 	.word	0x40034000
100056e0:	20000220 	.word	0x20000220

100056e4 <pio_add_program>:
100056e4:	b5f0      	push	{r4, r5, r6, r7, lr}
100056e6:	4657      	mov	r7, sl
100056e8:	46de      	mov	lr, fp
100056ea:	464e      	mov	r6, r9
100056ec:	4645      	mov	r5, r8
100056ee:	4688      	mov	r8, r1
100056f0:	b5e0      	push	{r5, r6, r7, lr}
100056f2:	b083      	sub	sp, #12
100056f4:	0006      	movs	r6, r0
100056f6:	2405      	movs	r4, #5
100056f8:	f7fc f9a2 	bl	10001a40 <hw_claim_lock>
100056fc:	4643      	mov	r3, r8
100056fe:	4684      	mov	ip, r0
10005700:	571c      	ldrsb	r4, [r3, r4]
10005702:	7918      	ldrb	r0, [r3, #4]
10005704:	4b36      	ldr	r3, [pc, #216]	@ (100057e0 <pio_add_program+0xfc>)
10005706:	4a37      	ldr	r2, [pc, #220]	@ (100057e4 <pio_add_program+0x100>)
10005708:	18f3      	adds	r3, r6, r3
1000570a:	0d1b      	lsrs	r3, r3, #20
1000570c:	009b      	lsls	r3, r3, #2
1000570e:	4692      	mov	sl, r2
10005710:	58d7      	ldr	r7, [r2, r3]
10005712:	2201      	movs	r2, #1
10005714:	4082      	lsls	r2, r0
10005716:	3a01      	subs	r2, #1
10005718:	2c00      	cmp	r4, #0
1000571a:	db42      	blt.n	100057a2 <pio_add_program+0xbe>
1000571c:	2120      	movs	r1, #32
1000571e:	1a09      	subs	r1, r1, r0
10005720:	428c      	cmp	r4, r1
10005722:	dc3b      	bgt.n	1000579c <pio_add_program+0xb8>
10005724:	0011      	movs	r1, r2
10005726:	40a1      	lsls	r1, r4
10005728:	0025      	movs	r5, r4
1000572a:	420f      	tst	r7, r1
1000572c:	d136      	bne.n	1000579c <pio_add_program+0xb8>
1000572e:	4641      	mov	r1, r8
10005730:	6809      	ldr	r1, [r1, #0]
10005732:	4689      	mov	r9, r1
10005734:	4641      	mov	r1, r8
10005736:	7989      	ldrb	r1, [r1, #6]
10005738:	2900      	cmp	r1, #0
1000573a:	d14d      	bne.n	100057d8 <pio_add_program+0xf4>
1000573c:	40aa      	lsls	r2, r5
1000573e:	4693      	mov	fp, r2
10005740:	423a      	tst	r2, r7
10005742:	d13f      	bne.n	100057c4 <pio_add_program+0xe0>
10005744:	2180      	movs	r1, #128	@ 0x80
10005746:	0189      	lsls	r1, r1, #6
10005748:	2200      	movs	r2, #0
1000574a:	4688      	mov	r8, r1
1000574c:	2800      	cmp	r0, #0
1000574e:	d016      	beq.n	1000577e <pio_add_program+0x9a>
10005750:	4661      	mov	r1, ip
10005752:	46a4      	mov	ip, r4
10005754:	0034      	movs	r4, r6
10005756:	464e      	mov	r6, r9
10005758:	4699      	mov	r9, r3
1000575a:	0003      	movs	r3, r0
1000575c:	9101      	str	r1, [sp, #4]
1000575e:	0051      	lsls	r1, r2, #1
10005760:	5a70      	ldrh	r0, [r6, r1]
10005762:	4540      	cmp	r0, r8
10005764:	d200      	bcs.n	10005768 <pio_add_program+0x84>
10005766:	1940      	adds	r0, r0, r5
10005768:	18a9      	adds	r1, r5, r2
1000576a:	3112      	adds	r1, #18
1000576c:	0089      	lsls	r1, r1, #2
1000576e:	3201      	adds	r2, #1
10005770:	5108      	str	r0, [r1, r4]
10005772:	429a      	cmp	r2, r3
10005774:	d3f3      	bcc.n	1000575e <pio_add_program+0x7a>
10005776:	9b01      	ldr	r3, [sp, #4]
10005778:	4664      	mov	r4, ip
1000577a:	469c      	mov	ip, r3
1000577c:	464b      	mov	r3, r9
1000577e:	465a      	mov	r2, fp
10005780:	4317      	orrs	r7, r2
10005782:	4652      	mov	r2, sl
10005784:	50d7      	str	r7, [r2, r3]
10005786:	4660      	mov	r0, ip
10005788:	f7fc f966 	bl	10001a58 <hw_claim_unlock>
1000578c:	0020      	movs	r0, r4
1000578e:	b003      	add	sp, #12
10005790:	bcf0      	pop	{r4, r5, r6, r7}
10005792:	46bb      	mov	fp, r7
10005794:	46b2      	mov	sl, r6
10005796:	46a9      	mov	r9, r5
10005798:	46a0      	mov	r8, r4
1000579a:	bdf0      	pop	{r4, r5, r6, r7, pc}
1000579c:	2401      	movs	r4, #1
1000579e:	4264      	negs	r4, r4
100057a0:	e7f1      	b.n	10005786 <pio_add_program+0xa2>
100057a2:	2420      	movs	r4, #32
100057a4:	1a24      	subs	r4, r4, r0
100057a6:	d40d      	bmi.n	100057c4 <pio_add_program+0xe0>
100057a8:	0011      	movs	r1, r2
100057aa:	40a1      	lsls	r1, r4
100057ac:	0025      	movs	r5, r4
100057ae:	468b      	mov	fp, r1
100057b0:	4239      	tst	r1, r7
100057b2:	d105      	bne.n	100057c0 <pio_add_program+0xdc>
100057b4:	e009      	b.n	100057ca <pio_add_program+0xe6>
100057b6:	0011      	movs	r1, r2
100057b8:	40a1      	lsls	r1, r4
100057ba:	0025      	movs	r5, r4
100057bc:	420f      	tst	r7, r1
100057be:	d0b6      	beq.n	1000572e <pio_add_program+0x4a>
100057c0:	3c01      	subs	r4, #1
100057c2:	d2f8      	bcs.n	100057b6 <pio_add_program+0xd2>
100057c4:	2409      	movs	r4, #9
100057c6:	4264      	negs	r4, r4
100057c8:	e7dd      	b.n	10005786 <pio_add_program+0xa2>
100057ca:	4642      	mov	r2, r8
100057cc:	6812      	ldr	r2, [r2, #0]
100057ce:	4691      	mov	r9, r2
100057d0:	4642      	mov	r2, r8
100057d2:	7992      	ldrb	r2, [r2, #6]
100057d4:	2a00      	cmp	r2, #0
100057d6:	d0b5      	beq.n	10005744 <pio_add_program+0x60>
100057d8:	2414      	movs	r4, #20
100057da:	4264      	negs	r4, r4
100057dc:	e7d3      	b.n	10005786 <pio_add_program+0xa2>
100057de:	46c0      	nop			@ (mov r8, r8)
100057e0:	afe00000 	.word	0xafe00000
100057e4:	20000a0c 	.word	0x20000a0c

100057e8 <pio_sm_set_consecutive_pindirs>:
100057e8:	b5f0      	push	{r4, r5, r6, r7, lr}
100057ea:	464e      	mov	r6, r9
100057ec:	4645      	mov	r5, r8
100057ee:	46de      	mov	lr, fp
100057f0:	4657      	mov	r7, sl
100057f2:	b5e0      	push	{r5, r6, r7, lr}
100057f4:	b083      	sub	sp, #12
100057f6:	4689      	mov	r9, r1
100057f8:	a90c      	add	r1, sp, #48	@ 0x30
100057fa:	4684      	mov	ip, r0
100057fc:	780d      	ldrb	r5, [r1, #0]
100057fe:	2a1f      	cmp	r2, #31
10005800:	d845      	bhi.n	1000588e <pio_sm_set_consecutive_pindirs+0xa6>
10005802:	4649      	mov	r1, r9
10005804:	0049      	lsls	r1, r1, #1
10005806:	4688      	mov	r8, r1
10005808:	4449      	add	r1, r9
1000580a:	00c9      	lsls	r1, r1, #3
1000580c:	1846      	adds	r6, r0, r1
1000580e:	0037      	movs	r7, r6
10005810:	0034      	movs	r4, r6
10005812:	37dc      	adds	r7, #220	@ 0xdc
10005814:	6838      	ldr	r0, [r7, #0]
10005816:	34cc      	adds	r4, #204	@ 0xcc
10005818:	4683      	mov	fp, r0
1000581a:	6820      	ldr	r0, [r4, #0]
1000581c:	0031      	movs	r1, r6
1000581e:	9001      	str	r0, [sp, #4]
10005820:	481c      	ldr	r0, [pc, #112]	@ (10005894 <pio_sm_set_consecutive_pindirs+0xac>)
10005822:	2480      	movs	r4, #128	@ 0x80
10005824:	4682      	mov	sl, r0
10005826:	02a4      	lsls	r4, r4, #10
10005828:	4451      	add	r1, sl
1000582a:	600c      	str	r4, [r1, #0]
1000582c:	4269      	negs	r1, r5
1000582e:	414d      	adcs	r5, r1
10005830:	211e      	movs	r1, #30
10005832:	426d      	negs	r5, r5
10005834:	438d      	bics	r5, r1
10005836:	4918      	ldr	r1, [pc, #96]	@ (10005898 <pio_sm_set_consecutive_pindirs+0xb0>)
10005838:	468a      	mov	sl, r1
1000583a:	4455      	add	r5, sl
1000583c:	2b05      	cmp	r3, #5
1000583e:	d90c      	bls.n	1000585a <pio_sm_set_consecutive_pindirs+0x72>
10005840:	20a0      	movs	r0, #160	@ 0xa0
10005842:	211f      	movs	r1, #31
10005844:	0540      	lsls	r0, r0, #21
10005846:	36d8      	adds	r6, #216	@ 0xd8
10005848:	0154      	lsls	r4, r2, #5
1000584a:	4304      	orrs	r4, r0
1000584c:	3205      	adds	r2, #5
1000584e:	3b05      	subs	r3, #5
10005850:	603c      	str	r4, [r7, #0]
10005852:	400a      	ands	r2, r1
10005854:	6035      	str	r5, [r6, #0]
10005856:	2b05      	cmp	r3, #5
10005858:	d8f6      	bhi.n	10005848 <pio_sm_set_consecutive_pindirs+0x60>
1000585a:	0152      	lsls	r2, r2, #5
1000585c:	069b      	lsls	r3, r3, #26
1000585e:	4313      	orrs	r3, r2
10005860:	4642      	mov	r2, r8
10005862:	444a      	add	r2, r9
10005864:	00d2      	lsls	r2, r2, #3
10005866:	4462      	add	r2, ip
10005868:	0010      	movs	r0, r2
1000586a:	32dc      	adds	r2, #220	@ 0xdc
1000586c:	6013      	str	r3, [r2, #0]
1000586e:	0003      	movs	r3, r0
10005870:	33d8      	adds	r3, #216	@ 0xd8
10005872:	601d      	str	r5, [r3, #0]
10005874:	465b      	mov	r3, fp
10005876:	6013      	str	r3, [r2, #0]
10005878:	9b01      	ldr	r3, [sp, #4]
1000587a:	30cc      	adds	r0, #204	@ 0xcc
1000587c:	6003      	str	r3, [r0, #0]
1000587e:	2000      	movs	r0, #0
10005880:	b003      	add	sp, #12
10005882:	bcf0      	pop	{r4, r5, r6, r7}
10005884:	46bb      	mov	fp, r7
10005886:	46b2      	mov	sl, r6
10005888:	46a9      	mov	r9, r5
1000588a:	46a0      	mov	r8, r4
1000588c:	bdf0      	pop	{r4, r5, r6, r7, pc}
1000588e:	2005      	movs	r0, #5
10005890:	4240      	negs	r0, r0
10005892:	e7f5      	b.n	10005880 <pio_sm_set_consecutive_pindirs+0x98>
10005894:	000030cc 	.word	0x000030cc
10005898:	0000e09f 	.word	0x0000e09f

1000589c <pio_sm_init>:
1000589c:	b5f0      	push	{r4, r5, r6, r7, lr}
1000589e:	2501      	movs	r5, #1
100058a0:	408d      	lsls	r5, r1
100058a2:	6804      	ldr	r4, [r0, #0]
100058a4:	43ac      	bics	r4, r5
100058a6:	6004      	str	r4, [r0, #0]
100058a8:	2b00      	cmp	r3, #0
100058aa:	d02e      	beq.n	1000590a <pio_sm_init+0x6e>
100058ac:	004d      	lsls	r5, r1, #1
100058ae:	186c      	adds	r4, r5, r1
100058b0:	00e4      	lsls	r4, r4, #3
100058b2:	1904      	adds	r4, r0, r4
100058b4:	0026      	movs	r6, r4
100058b6:	681f      	ldr	r7, [r3, #0]
100058b8:	36c8      	adds	r6, #200	@ 0xc8
100058ba:	6037      	str	r7, [r6, #0]
100058bc:	689f      	ldr	r7, [r3, #8]
100058be:	3604      	adds	r6, #4
100058c0:	6077      	str	r7, [r6, #4]
100058c2:	685f      	ldr	r7, [r3, #4]
100058c4:	68db      	ldr	r3, [r3, #12]
100058c6:	34dc      	adds	r4, #220	@ 0xdc
100058c8:	6037      	str	r7, [r6, #0]
100058ca:	6023      	str	r3, [r4, #0]
100058cc:	186b      	adds	r3, r5, r1
100058ce:	4d18      	ldr	r5, [pc, #96]	@ (10005930 <pio_sm_init+0x94>)
100058d0:	00db      	lsls	r3, r3, #3
100058d2:	46ac      	mov	ip, r5
100058d4:	2580      	movs	r5, #128	@ 0x80
100058d6:	18c4      	adds	r4, r0, r3
100058d8:	4464      	add	r4, ip
100058da:	062d      	lsls	r5, r5, #24
100058dc:	6025      	str	r5, [r4, #0]
100058de:	6025      	str	r5, [r4, #0]
100058e0:	4c14      	ldr	r4, [pc, #80]	@ (10005934 <pio_sm_init+0x98>)
100058e2:	1d0d      	adds	r5, r1, #4
100058e4:	408c      	lsls	r4, r1
100058e6:	6084      	str	r4, [r0, #8]
100058e8:	2401      	movs	r4, #1
100058ea:	0026      	movs	r6, r4
100058ec:	40ae      	lsls	r6, r5
100058ee:	2580      	movs	r5, #128	@ 0x80
100058f0:	3108      	adds	r1, #8
100058f2:	408c      	lsls	r4, r1
100058f4:	211f      	movs	r1, #31
100058f6:	01ad      	lsls	r5, r5, #6
100058f8:	1945      	adds	r5, r0, r5
100058fa:	18c0      	adds	r0, r0, r3
100058fc:	400a      	ands	r2, r1
100058fe:	30d8      	adds	r0, #216	@ 0xd8
10005900:	602e      	str	r6, [r5, #0]
10005902:	602c      	str	r4, [r5, #0]
10005904:	6002      	str	r2, [r0, #0]
10005906:	2000      	movs	r0, #0
10005908:	bdf0      	pop	{r4, r5, r6, r7, pc}
1000590a:	004d      	lsls	r5, r1, #1
1000590c:	186c      	adds	r4, r5, r1
1000590e:	00e4      	lsls	r4, r4, #3
10005910:	1904      	adds	r4, r0, r4
10005912:	0026      	movs	r6, r4
10005914:	2780      	movs	r7, #128	@ 0x80
10005916:	36c8      	adds	r6, #200	@ 0xc8
10005918:	027f      	lsls	r7, r7, #9
1000591a:	6037      	str	r7, [r6, #0]
1000591c:	27c0      	movs	r7, #192	@ 0xc0
1000591e:	033f      	lsls	r7, r7, #12
10005920:	60b7      	str	r7, [r6, #8]
10005922:	27f8      	movs	r7, #248	@ 0xf8
10005924:	3604      	adds	r6, #4
10005926:	027f      	lsls	r7, r7, #9
10005928:	34dc      	adds	r4, #220	@ 0xdc
1000592a:	6037      	str	r7, [r6, #0]
1000592c:	6023      	str	r3, [r4, #0]
1000592e:	e7cd      	b.n	100058cc <pio_sm_init+0x30>
10005930:	000010d0 	.word	0x000010d0
10005934:	01010101 	.word	0x01010101

10005938 <dma_claim_unused_channel>:
10005938:	b510      	push	{r4, lr}
1000593a:	4b06      	ldr	r3, [pc, #24]	@ (10005954 <dma_claim_unused_channel+0x1c>)
1000593c:	4c06      	ldr	r4, [pc, #24]	@ (10005958 <dma_claim_unused_channel+0x20>)
1000593e:	b082      	sub	sp, #8
10005940:	0001      	movs	r1, r0
10005942:	9300      	str	r3, [sp, #0]
10005944:	2200      	movs	r2, #0
10005946:	230b      	movs	r3, #11
10005948:	0020      	movs	r0, r4
1000594a:	f7fc f8b1 	bl	10001ab0 <hw_claim_unused_from_range>
1000594e:	b002      	add	sp, #8
10005950:	bd10      	pop	{r4, pc}
10005952:	46c0      	nop			@ (mov r8, r8)
10005954:	10006394 	.word	0x10006394
10005958:	200262a4 	.word	0x200262a4

1000595c <srand>:
1000595c:	2200      	movs	r2, #0
1000595e:	4b03      	ldr	r3, [pc, #12]	@ (1000596c <srand+0x10>)
10005960:	681b      	ldr	r3, [r3, #0]
10005962:	33a8      	adds	r3, #168	@ 0xa8
10005964:	6018      	str	r0, [r3, #0]
10005966:	605a      	str	r2, [r3, #4]
10005968:	4770      	bx	lr
1000596a:	46c0      	nop			@ (mov r8, r8)
1000596c:	20000238 	.word	0x20000238

10005970 <rand>:
10005970:	4b09      	ldr	r3, [pc, #36]	@ (10005998 <rand+0x28>)
10005972:	b510      	push	{r4, lr}
10005974:	681c      	ldr	r4, [r3, #0]
10005976:	4a09      	ldr	r2, [pc, #36]	@ (1000599c <rand+0x2c>)
10005978:	34a8      	adds	r4, #168	@ 0xa8
1000597a:	6820      	ldr	r0, [r4, #0]
1000597c:	6861      	ldr	r1, [r4, #4]
1000597e:	4b08      	ldr	r3, [pc, #32]	@ (100059a0 <rand+0x30>)
10005980:	f7fe f89e 	bl	10003ac0 <__wrap___aeabi_lmul>
10005984:	2201      	movs	r2, #1
10005986:	2300      	movs	r3, #0
10005988:	1880      	adds	r0, r0, r2
1000598a:	4159      	adcs	r1, r3
1000598c:	6020      	str	r0, [r4, #0]
1000598e:	6061      	str	r1, [r4, #4]
10005990:	0048      	lsls	r0, r1, #1
10005992:	0840      	lsrs	r0, r0, #1
10005994:	bd10      	pop	{r4, pc}
10005996:	46c0      	nop			@ (mov r8, r8)
10005998:	20000238 	.word	0x20000238
1000599c:	4c957f2d 	.word	0x4c957f2d
100059a0:	5851f42d 	.word	0x5851f42d

100059a4 <strlen>:
100059a4:	b510      	push	{r4, lr}
100059a6:	0783      	lsls	r3, r0, #30
100059a8:	d00a      	beq.n	100059c0 <strlen+0x1c>
100059aa:	0003      	movs	r3, r0
100059ac:	2103      	movs	r1, #3
100059ae:	e002      	b.n	100059b6 <strlen+0x12>
100059b0:	3301      	adds	r3, #1
100059b2:	420b      	tst	r3, r1
100059b4:	d005      	beq.n	100059c2 <strlen+0x1e>
100059b6:	781a      	ldrb	r2, [r3, #0]
100059b8:	2a00      	cmp	r2, #0
100059ba:	d1f9      	bne.n	100059b0 <strlen+0xc>
100059bc:	1a18      	subs	r0, r3, r0
100059be:	bd10      	pop	{r4, pc}
100059c0:	0003      	movs	r3, r0
100059c2:	6819      	ldr	r1, [r3, #0]
100059c4:	4a0c      	ldr	r2, [pc, #48]	@ (100059f8 <strlen+0x54>)
100059c6:	4c0d      	ldr	r4, [pc, #52]	@ (100059fc <strlen+0x58>)
100059c8:	188a      	adds	r2, r1, r2
100059ca:	438a      	bics	r2, r1
100059cc:	4222      	tst	r2, r4
100059ce:	d10f      	bne.n	100059f0 <strlen+0x4c>
100059d0:	6859      	ldr	r1, [r3, #4]
100059d2:	4a09      	ldr	r2, [pc, #36]	@ (100059f8 <strlen+0x54>)
100059d4:	3304      	adds	r3, #4
100059d6:	188a      	adds	r2, r1, r2
100059d8:	438a      	bics	r2, r1
100059da:	4222      	tst	r2, r4
100059dc:	d108      	bne.n	100059f0 <strlen+0x4c>
100059de:	6859      	ldr	r1, [r3, #4]
100059e0:	4a05      	ldr	r2, [pc, #20]	@ (100059f8 <strlen+0x54>)
100059e2:	3304      	adds	r3, #4
100059e4:	188a      	adds	r2, r1, r2
100059e6:	438a      	bics	r2, r1
100059e8:	4222      	tst	r2, r4
100059ea:	d0f1      	beq.n	100059d0 <strlen+0x2c>
100059ec:	e000      	b.n	100059f0 <strlen+0x4c>
100059ee:	3301      	adds	r3, #1
100059f0:	781a      	ldrb	r2, [r3, #0]
100059f2:	2a00      	cmp	r2, #0
100059f4:	d1fb      	bne.n	100059ee <strlen+0x4a>
100059f6:	e7e1      	b.n	100059bc <strlen+0x18>
100059f8:	fefefeff 	.word	0xfefefeff
100059fc:	80808080 	.word	0x80808080

10005a00 <_fini>:
10005a00:	b5f8      	push	{r3, r4, r5, r6, r7, lr}
10005a02:	46c0      	nop			@ (mov r8, r8)
10005a04:	0000      	movs	r0, r0
	...

10005a08 <__mutex_exit_veneer>:
10005a08:	b401      	push	{r0}
10005a0a:	4802      	ldr	r0, [pc, #8]	@ (10005a14 <__mutex_exit_veneer+0xc>)
10005a0c:	4684      	mov	ip, r0
10005a0e:	bc01      	pop	{r0}
10005a10:	4760      	bx	ip
10005a12:	bf00      	nop
10005a14:	2000015d 	.word	0x2000015d

10005a18 <____aeabi_ldiv0_veneer>:
10005a18:	b401      	push	{r0}
10005a1a:	4802      	ldr	r0, [pc, #8]	@ (10005a24 <____aeabi_ldiv0_veneer+0xc>)
10005a1c:	4684      	mov	ip, r0
10005a1e:	bc01      	pop	{r0}
10005a20:	4760      	bx	ip
10005a22:	bf00      	nop
10005a24:	20000185 	.word	0x20000185

10005a28 <____aeabi_idiv0_veneer>:
10005a28:	b401      	push	{r0}
10005a2a:	4802      	ldr	r0, [pc, #8]	@ (10005a34 <____aeabi_idiv0_veneer+0xc>)
10005a2c:	4684      	mov	ip, r0
10005a2e:	bc01      	pop	{r0}
10005a30:	4760      	bx	ip
10005a32:	bf00      	nop
10005a34:	20000185 	.word	0x20000185

10005a38 <__mutex_try_enter_block_until_veneer>:
10005a38:	b401      	push	{r0}
10005a3a:	4802      	ldr	r0, [pc, #8]	@ (10005a44 <__mutex_try_enter_block_until_veneer+0xc>)
10005a3c:	4684      	mov	ip, r0
10005a3e:	bc01      	pop	{r0}
10005a40:	4760      	bx	ip
10005a42:	bf00      	nop
10005a44:	200000c1 	.word	0x200000c1

10005a48 <__pre_init_runtime_init_early_resets>:
10005a48:	10002cb1                                .,..

10005a4c <__pre_init_runtime_init_usb_power_down>:
10005a4c:	10002cdd 10002e29 10003b85 100034bd     .,..)....;...4..
10005a5c:	10003af5                                .:..

10005a60 <__pre_init_runtime_init_clocks>:
10005a60:	10002d51                                Q-..

10005a64 <__pre_init_runtime_init_post_clock_resets>:
10005a64:	10002cf9                                .,..

10005a68 <__pre_init_runtime_init_rp2040_gpio_ie_disable>:
10005a68:	10002d19                                .-..

10005a6c <__pre_init_runtime_init_spin_locks_reset>:
10005a6c:	10002d2d                                --..

10005a70 <__pre_init_runtime_init_mutex>:
10005a70:	10001eb5                                ....

10005a74 <__pre_init_runtime_init_install_ram_vector_table>:
10005a74:	10002d35                                5-..

10005a78 <__pre_init_runtime_init_default_alarm_pool>:
10005a78:	1000223d                                ="..

10005a7c <__pre_init_first_per_core_initializer>:
10005a7c:	10002c79                                y,..

10005a80 <__pre_init_runtime_init_per_core_irq_priorities>:
10005a80:	10001b81                                ....

10005a84 <__frame_dummy_init_array_entry>:
10005a84:	100002fd                                ....

Disassembly of section .data:

200000c0 <mutex_try_enter_block_until>:
200000c0:	b5f0      	push	{r4, r5, r6, r7, lr}
200000c2:	46c6      	mov	lr, r8
200000c4:	0015      	movs	r5, r2
200000c6:	b500      	push	{lr}
200000c8:	0004      	movs	r4, r0
200000ca:	001e      	movs	r6, r3
200000cc:	6802      	ldr	r2, [r0, #0]
200000ce:	f3ef 8110 	mrs	r1, PRIMASK
200000d2:	b672      	cpsid	i
200000d4:	6813      	ldr	r3, [r2, #0]
200000d6:	2b00      	cmp	r3, #0
200000d8:	d0fc      	beq.n	200000d4 <mutex_try_enter_block_until+0x14>
200000da:	f3bf 8f5f 	dmb	sy
200000de:	2304      	movs	r3, #4
200000e0:	56e3      	ldrsb	r3, [r4, r3]
200000e2:	2b00      	cmp	r3, #0
200000e4:	db2d      	blt.n	20000142 <mutex_try_enter_block_until+0x82>
200000e6:	6822      	ldr	r2, [r4, #0]
200000e8:	f3bf 8f5f 	dmb	sy
200000ec:	2000      	movs	r0, #0
200000ee:	6010      	str	r0, [r2, #0]
200000f0:	f381 8810 	msr	PRIMASK, r1
200000f4:	22d0      	movs	r2, #208	@ 0xd0
200000f6:	0612      	lsls	r2, r2, #24
200000f8:	7812      	ldrb	r2, [r2, #0]
200000fa:	b252      	sxtb	r2, r2
200000fc:	4690      	mov	r8, r2
200000fe:	429a      	cmp	r2, r3
20000100:	d103      	bne.n	2000010a <mutex_try_enter_block_until+0x4a>
20000102:	2000      	movs	r0, #0
20000104:	bc80      	pop	{r7}
20000106:	46b8      	mov	r8, r7
20000108:	bdf0      	pop	{r4, r5, r6, r7, pc}
2000010a:	2700      	movs	r7, #0
2000010c:	e00b      	b.n	20000126 <mutex_try_enter_block_until+0x66>
2000010e:	6823      	ldr	r3, [r4, #0]
20000110:	f3bf 8f5f 	dmb	sy
20000114:	601f      	str	r7, [r3, #0]
20000116:	f381 8810 	msr	PRIMASK, r1
2000011a:	0028      	movs	r0, r5
2000011c:	0031      	movs	r1, r6
2000011e:	f000 f833 	bl	20000188 <__best_effort_wfe_or_timeout_veneer>
20000122:	2800      	cmp	r0, #0
20000124:	d1ed      	bne.n	20000102 <mutex_try_enter_block_until+0x42>
20000126:	6822      	ldr	r2, [r4, #0]
20000128:	f3ef 8110 	mrs	r1, PRIMASK
2000012c:	b672      	cpsid	i
2000012e:	6813      	ldr	r3, [r2, #0]
20000130:	2b00      	cmp	r3, #0
20000132:	d0fc      	beq.n	2000012e <mutex_try_enter_block_until+0x6e>
20000134:	f3bf 8f5f 	dmb	sy
20000138:	7923      	ldrb	r3, [r4, #4]
2000013a:	2b7f      	cmp	r3, #127	@ 0x7f
2000013c:	d9e7      	bls.n	2000010e <mutex_try_enter_block_until+0x4e>
2000013e:	4643      	mov	r3, r8
20000140:	e002      	b.n	20000148 <mutex_try_enter_block_until+0x88>
20000142:	23d0      	movs	r3, #208	@ 0xd0
20000144:	061b      	lsls	r3, r3, #24
20000146:	681b      	ldr	r3, [r3, #0]
20000148:	7123      	strb	r3, [r4, #4]
2000014a:	6823      	ldr	r3, [r4, #0]
2000014c:	f3bf 8f5f 	dmb	sy
20000150:	2200      	movs	r2, #0
20000152:	601a      	str	r2, [r3, #0]
20000154:	f381 8810 	msr	PRIMASK, r1
20000158:	2001      	movs	r0, #1
2000015a:	e7d3      	b.n	20000104 <mutex_try_enter_block_until+0x44>

2000015c <mutex_exit>:
2000015c:	6802      	ldr	r2, [r0, #0]
2000015e:	f3ef 8110 	mrs	r1, PRIMASK
20000162:	b672      	cpsid	i
20000164:	6813      	ldr	r3, [r2, #0]
20000166:	2b00      	cmp	r3, #0
20000168:	d0fc      	beq.n	20000164 <mutex_exit+0x8>
2000016a:	f3bf 8f5f 	dmb	sy
2000016e:	23ff      	movs	r3, #255	@ 0xff
20000170:	7103      	strb	r3, [r0, #4]
20000172:	6803      	ldr	r3, [r0, #0]
20000174:	f3bf 8f5f 	dmb	sy
20000178:	2200      	movs	r2, #0
2000017a:	601a      	str	r2, [r3, #0]
2000017c:	f381 8810 	msr	PRIMASK, r1
20000180:	bf40      	sev
20000182:	4770      	bx	lr

20000184 <__aeabi_idiv0>:
20000184:	4770      	bx	lr
20000186:	46c0      	nop			@ (mov r8, r8)

20000188 <__best_effort_wfe_or_timeout_veneer>:
20000188:	b401      	push	{r0}
2000018a:	4802      	ldr	r0, [pc, #8]	@ (20000194 <__best_effort_wfe_or_timeout_veneer+0xc>)
2000018c:	4684      	mov	ip, r0
2000018e:	bc01      	pop	{r0}
20000190:	4760      	bx	ip
20000192:	bf00      	nop
20000194:	10002555 	.word	0x10002555

20000198 <address_pointer>:
20000198:	20000aa4                                ... 

2000019c <striped_spin_lock_num>:
2000019c:	00000010                                ....

200001a0 <irq_handler_chain_slots>:
200001a0:	00000000 	.word	0x00000000
200001a4:	00010000 	.word	0x00010000
	...
200001b0:	00020000 	.word	0x00020000
	...
200001bc:	00030000 	.word	0x00030000
	...
200001c8:	00ff0000 	.word	0x00ff0000
200001cc:	00000000 	.word	0x00000000

200001d0 <irq_handler_chain_first_slot>:
200001d0:	b501      	push	{r0, lr}
200001d2:	6848      	ldr	r0, [r1, #4]
200001d4:	3101      	adds	r1, #1
200001d6:	468e      	mov	lr, r1
200001d8:	4700      	bx	r0

200001da <irq_handler_chain_remove_tail>:
200001da:	4670      	mov	r0, lr
200001dc:	3809      	subs	r0, #9
200001de:	4901      	ldr	r1, [pc, #4]	@ (200001e4 <irq_handler_chain_remove_tail+0xa>)
200001e0:	4788      	blx	r1
200001e2:	bd01      	pop	{r0, pc}
200001e4:	10001df1 	.word	0x10001df1

200001e8 <default_alarm_pool>:
	...
200001fc:	20000670                                p.. 

20000200 <aeabi_bits_funcs>:
20000200:	00003350 	.word	0x00003350
20000204:	0000334c 	.word	0x0000334c
20000208:	00003354 	.word	0x00003354
2000020c:	00003352 	.word	0x00003352

20000210 <aeabi_bits_funcs_end>:
20000210:	0000534d 	.word	0x0000534d
20000214:	0000434d 	.word	0x0000434d
20000218:	00003453 	.word	0x00003453
2000021c:	00003443 	.word	0x00003443

20000220 <stdio_uart>:
20000220:	100054ed 100055f9 10005539 1000560d     .T...U..9U...V..
20000230:	00000000 00000100                       ........

20000238 <_impure_ptr>:
20000238:	20000240 00000000                       @.. ....

20000240 <impure_data>:
20000240:	00000000 2000052c 20000594 200005fc     ....,.. ... ... 
	...
200002e8:	00000001 00000000 abcd330e e66d1234     .........3..4.m.
200002f8:	0005deec 0000000b 00000000 00000000     ................
	...

20000668 <print_mutex>:
	...
